ccopy_reg
_reconstructor
p1
(cnltk.probability
FreqDist
p2
c__builtin__
dict
p3
(dp4
V\u897f\u65bd
p5
I1
sV@>@@(H).\u005c
p6
I1
sV\u4e09\u9ede
p7
I6
sV\u5bb6\u99a8
p8
I1
sV\u66fe\u8cb4\u7ae0
p9
I1
sV\u7b2c\u4e8c
p10
I4
sV[2oh2].\u005c
p11
I1
sV] X> .\u005c
p12
I1
sV\u5efa\u8d77\u4f86
p13
I1
sV[2 @@= 2]
p14
I1
sV MRC,_
p15
I1
sV\u7b2c\u4e94
p16
I2
sV\u600e\u9ebc
p17
I76
sV\u6158
p18
I2
sV\u96d9\u6253
p19
I10
sV\u871a
p20
I1
sV..<Y 
p21
I1
sV\u6d1e
p22
I6
sV\u5085
p23
I1
sV\u4e00\u6a23
p24
I47
sV\u767c\u5c55
p25
I4
sV(0)m.\u005c
p26
I3
sV\u5361\u62c9
p27
I1
sV\u5e36\u6709
p28
I1
sV\u5206\u5e97
p29
I1
sV-.
p30
I1
sV\u6709\u7684
p31
I7
sV\u65e5\u672c\u4eba
p32
I1
sV@>=,_
p33
I1
sV\u6821\u5712
p34
I2
sV--1]
p35
I1
sV2].\u005c
p36
I10
sV\u89aa\u624b
p37
I3
sV\u7cdf\u7cd5
p38
I1
sV\u9053\u807d\u5857\u8aaa
p39
I1
sV@
p40
I17
sV\u4f0a
p41
I6
sV\u63d2\u82b1
p42
I1
sV\u8ac7
p43
I7
sV[63]3.\u005c
p44
I1
sV\u5f48\u92fc\u7434
p45
I1
sV\u51f3\u5b50
p46
I1
sV\u73cd
p47
I1
sV\u96fb\u98a8\u6247
p48
I1
sV\u79d1
p49
I1
sV./
p50
I4
sV\u6b63\u5e38
p51
I6
sV\u5b89\u975c
p52
I2
sV\u6539\u5230
p53
I1
sV..Hum.\u005c
p54
I1
sV\u7ffb\u8b6f
p55
I1
sV\u4e94\u9ede
p56
I2
sV\u9060
p57
I2
sV\u77e5
p58
I8
sV X> 
p59
I1
sV\u6295\u7c43
p60
I2
sV\u4e00\u6a13
p61
I1
sV\u63db\u4eba
p62
I1
sV\u5634\u5df4
p63
I1
sVS--
p64
I1
sV\u6a13\u4e0b
p65
I4
sV\u9577\u6d41
p66
I1
sV\u9396
p67
I1
sV\u6b72
p68
I4
sV(0)hm.\u005c
p69
I3
sV.. oh
p70
I1
sVQ>,_
p71
I1
sV..XX<E Do Do E>.\u005c
p72
I1
sV\u63a5\u8fd1
p73
I3
sV\u8fa6\u516c\u5ba4
p74
I9
sV...<MRC 
p75
I2
sV\u7403\u5834
p76
I5
sV\u9ad8\u8208
p77
I2
sV\u5973\u5b69\u5b50
p78
I1
sV\u62ff\u53bb
p79
I2
sV\u614b\u5ea6
p80
I5
sV\u7b2c\u4e00
p81
I27
sV\u591a\u591a
p82
I2
sV(0)Hen.\u005c
p83
I1
sV\u8dd1\u53bb
p84
I3
sV..nou
p85
I1
sV\u526f\u5802
p86
I2
sV\u7b2c\u4e09
p87
I1
sV\u7b97\u5f97
p88
I1
sV\u661f\u671f\u4e94
p89
I1
sV\u6f38\u6f38
p90
I1
sV\u5f15
p91
I1
sV\u7de8\u8f2f
p92
I2
sVma@>.\u005c
p93
I1
sV\u908a\u7586
p94
I1
sV\u95dc\u4e0d
p95
I1
sV\u8b1d
p96
I4
sV..Nh=.\u005c
p97
I1
sV[2
p98
I45
sV\u7121
p99
I1
sV(0)\u250c
p100
I1
sV\u5403\u98ef
p101
I5
sV\u8001\u5c07
p102
I1
sV...<T eh 
p103
I1
sV\u54ce\u5440
p104
I1
sV\u50be\u5411
p105
I3
sV\u6293\u8457
p106
I1
sV\u82ac
p107
I3
sV\u662f
p108
I875
sV\u7d44\u5408
p109
I1
sV\u4e8c\u5341\u4e5d
p110
I1
sV\u592a\u904e
p111
I1
sV\u5e72
p112
I1
sV\u500b\u9ad4
p113
I1
sV\u4e0d\u666f\u6c23
p114
I1
sV\u8a71\u8aaa
p115
I1
sV\u7d05\u8336\u5e97
p116
I1
sV\u5403\u5230
p117
I1
sV..ho.
p118
I1
sV\u9aee\u578b
p119
I3
sV\u82f1\u6587\u7cfb
p120
I1
sV\u4e5d\u6210
p121
I1
sV\u6642\u9593
p122
I19
sV\u660e\u986f
p123
I1
sV\u904b
p124
I2
sV\u4fca
p125
I2
sV\u4e0d\u7528
p126
I10
sV\u55ce
p127
I81
sV\u9322
p128
I20
sV\u4f86\u4e0d\u53ca
p129
I1
sV\u5217\u70ba
p130
I1
sV\u5616\u5616
p131
I3
sV\u5012\u6963
p132
I2
sV\u6559
p133
I3
sV\u6216\u8005
p134
I10
sV=<Hi ey Hi>
p135
I1
sV..<Q ey
p136
I1
sV\u4e5f
p137
I230
sV\u958b\u6703
p138
I3
sV\u770b\u4f86
p139
I4
sV\u4ee5\u4f86
p140
I2
sV\u4e0d\u4e00\u5b9a
p141
I5
sV\u4e0d\u80fd\u5920
p142
I2
sV\u63a5\u5f85
p143
I2
sV\u99ac\u723e\u6fdf
p144
I1
sV\u5148\u5929
p145
I1
sV\u7121\u6cd5
p146
I1
sV@>@@.\u005c
p147
I1
sV\u51f6
p148
I3
sV1].\u005c
p149
I10
sV\u4f86\u81ea
p150
I2
sV\u6709\u9322
p151
I2
sV\u5973\u670b\u53cb
p152
I2
sV\u7247
p153
I5
sV\u8dd1\u5230
p154
I7
sV\u6583
p155
I1
sV\u8f2a
p156
I1
sV @>?/
p157
I1
sV\u2514hmm.\u005c
p158
I1
sV\u54f2\u5b78
p159
I1
sV\u8fa6\u6cd5
p160
I14
sV\u4e0a
p161
I73
sV\u5e74\u9752
p162
I2
sV...he.\u005c
p163
I1
sV..um.\u005c
p164
I5
sV\u62ff\u5230
p165
I1
sV\u4ed6\u5011
p166
I152
sV\u7d93
p167
I1
sV\u5e95
p168
I3
sV\u904e\u5e74
p169
I3
sV\u5c0f\u8072
p170
I1
sV\u83ef\u795e
p171
I3
sV\u7d14\u771f
p172
I1
sV\u4e5f\u597d
p173
I6
sVA&B:@@
p174
I2
sV1][2
p175
I1
sV\u53b2\u5bb3
p176
I11
sV\u6aa2\u8a0e
p177
I1
sV\u54ea\u88e1
p178
I7
sV\u4e3b\u89c0
p179
I2
sV\u5c94\u958b
p180
I1
sV\u5538
p181
I7
sVXX 2]-
p182
I1
sV\u89ba\u5f97
p183
I178
sV\u5abd
p184
I21
sV\u65e5\u5b50
p185
I2
sV\u514b\u8f1d
p186
I1
sV\u5169\u6975\u5316
p187
I1
sV\u7d93\u8cbb
p188
I1
sV\u8881\u57f9\u83ef
p189
I1
sV\u4e03\u6708
p190
I2
sV\u767d\u8272
p191
I1
sV\u560d
p192
I2
sV\u6e4a
p193
I1
sV..um
p194
I2
sV\u98a8\u66b4
p195
I1
sV\u2027
p196
I7
sV\u58d8\u7dda
p197
I1
sV\u65b9
p198
I1
sV\u61fc\u6015
p199
I2
sV\u95dc\u4fc2
p200
I27
sV\u96fb\u8166
p201
I1
sV\u8001\u6797
p202
I8
sV\u8056
p203
I1
sV\u54ce\u55b2
p204
I3
sV\u665a
p205
I9
sV\u66f8\u67b6
p206
I2
sV..ha=,_
p207
I1
sV\u63a5\u8457
p208
I1
sV\u5c11
p209
I4
sV\u6b63\u5f0f
p210
I2
sV\u5341\u4e8c\u6708
p211
I1
sV\u770b\u6e05
p212
I1
sV\u4ee5\u4e0a
p213
I4
sV\u600e\u9ebc\u8aaa
p214
I2
sV\u5c0f\u8003
p215
I1
sV[X].\u005c
p216
I1
sV\u67ef
p217
I1
sV...(1.0)  mh==
p218
I1
sV\u6c11\u6b4c
p219
I2
sV\u8df3
p220
I8
sV\u8a72
p221
I5
sV\u6b23\u8cde
p222
I1
sV(0) oh=.\u005c
p223
I1
sV..(1.1)
p224
I1
sV\u660e\u5929
p225
I3
sV\u9304\u5f71\u5e36
p226
I1
sV..<@ MRC
p227
I1
sV\u6bdb\u9aa8\u8073\u7136
p228
I1
sV\u500d
p229
I1
sV\u920d
p230
I1
sV=,_
p231
I200
sV<E ^check E>.\u005c
p232
I1
sV\u76fc\u671b
p233
I1
sV=<x^
p234
I1
sV\u5ac1\u51fa\u53bb
p235
I2
sV...(1)[
p236
I1
sV\u708e\u71b1
p237
I1
sV\u60f3\u8981
p238
I5
sV<MRC 
p239
I1
sV\u51a0
p240
I1
sV\u5944\u5944\u4e00\u606f
p241
I1
sV\u9b27
p242
I2
sV\u843d\u89d2
p243
I1
sV\u812b
p244
I4
sV\u53ef\u80fd
p245
I48
sV ,_.
p246
I1
sV\u4e0a\u982d
p247
I1
sV\u54ea\u88cf
p248
I3
sV\u4e00\u6bb5
p249
I1
sV...(0.3)
p250
I2
sV\u8001\u677f
p251
I7
sV\u8df3\u86a4
p252
I4
sV\u5176\u6b21
p253
I1
sV\u5409
p254
I6
sV\u6709\u51fa\u5165
p255
I1
sV<E surprised E>.\u005c
p256
I1
sV=X> ,_
p257
I1
sV\u514b
p258
I7
sV.. <F ha
p259
I1
sV\u524d
p260
I9
sV...(2.7)
p261
I3
sV\u54ce
p262
I15
sV\u5144\u5f1f
p263
I8
sV\u9ad2
p264
I2
sV\u8def\u7dda
p265
I3
sV...oh
p266
I2
sV\u80d6
p267
I4
sV% ,_
p268
I1
sV\u9632\u885b
p269
I2
sV\u53d7\u4e0d\u4e86
p270
I2
sV\u8f5f
p271
I1
sV]eh.\u005c
p272
I1
sV\u8010\u4e0d\u4f4f
p273
I2
sV\u4e0d\u7406
p274
I1
sV\u610f\u898b
p275
I5
sV\u52a0\u4e0a
p276
I2
sV\u7dca\u5f35
p277
I2
sVho,
p278
I1
sV... (0.8)
p279
I1
sV..[oh].\u005c
p280
I1
sV...(1) 
p281
I3
sV\u5c41\u8a71
p282
I1
sV\u9069\u5408
p283
I3
sV\u5fcd\u53d7
p284
I2
sV\u9760\u8fd1
p285
I1
sV\u901a\u5e38
p286
I8
sV...(3)<X
p287
I1
sV\u99a8
p288
I3
sVXXXXX,_
p289
I1
sV\u6709\u5225
p290
I1
sV\u5de5\u4f5c\u5ba4
p291
I2
sV\u53f0\u4e2d
p292
I1
sV\u5446\u5750
p293
I1
sV\u540c\u5b78\u5011
p294
I1
sV...(2.9)<T ah 
p295
I1
sV>].\u005c
p296
I2
sV3]--
p297
I1
sV<F^
p298
I1
sV\u518d
p299
I48
sV\u300c
p300
I5
sV\u516c\u4f48
p301
I1
sV\u76f4\u8dd1
p302
I1
sV\u9b91
p303
I1
sV..  [
p304
I11
sV\u9802
p305
I11
sV(0)hmn.\u005c
p306
I1
sV\u6316
p307
I1
sV,_ X>
p308
I1
sV\u7fa8\u6155
p309
I2
sV@>]-
p310
I1
sV[=]--
p311
I1
sV\u7a97\u5e18
p312
I1
sV\u91ab\u9662
p313
I7
sV\u7cbe\u529b
p314
I1
sV\u7d93\u6fdf
p315
I1
sV\u78a7
p316
I1
sV\u9047\u5230
p317
I4
sV..'
p318
I3
sV\u5b8c\u5b8c\u5168\u5168
p319
I1
sV\u6021\u541b
p320
I1
sV,
p321
I12
sV\u6a21\u5f0f
p322
I1
sV\u51a0\u8ecd
p323
I1
sV\u5e79\u561b
p324
I4
sV=oh.\u005c
p325
I1
sV\u5beb\u51fa\u4f86
p326
I1
sV\u6c34
p327
I2
sV\u56db\u65e5
p328
I1
sV..Hum=
p329
I1
sV c>.\u005c
p330
I1
sV\u534a\u591c
p331
I1
sV\u91d1\u77f3\u5802
p332
I1
sV\u65c5
p333
I2
sV1]
p334
I20
sV\u59b3\u5011
p335
I10
sV\u91cd
p336
I6
sV\u704c
p337
I1
sV\u89aa\u8033
p338
I1
sV=2].\u005c
p339
I3
sVoh=,_
p340
I1
sV\u8ac7\u8aaa
p341
I1
sV\u6821\u9577
p342
I2
sV..mh.\u005c
p343
I1
sV\u624d\u80fd
p344
I2
sV\u4e09\u5546\u864e
p345
I2
sV\u7537\u5b69\u5b50
p346
I1
sV\u53e1
p347
I1
sV\u7260
p348
I67
sV\u9a0e\u8eca
p349
I2
sV\u525b\u5f37
p350
I1
sVT>,_
p351
I1
sV\u5f85\u4e45
p352
I1
sV..   
p353
I2
sV\u8aaa\u4e0d\u5b9a
p354
I1
sV\u51fa\u570b
p355
I2
sV[@@@..@@]
p356
I1
sVxx
p357
I6
sV\u7d50\u819c
p358
I3
sV\u250c@@
p359
I4
sV\u6797\u671d\u714c
p360
I1
sV2]?/
p361
I4
sV<F 
p362
I1
sV\u4e09\u632f
p363
I2
sV[Nomy].\u005c
p364
I1
sV..  <@<T
p365
I1
sV...(Hx)[2@@@2]
p366
I1
sV\u5e78\u798f
p367
I2
sV..hm.\u005c
p368
I36
sV\u5403\u58de
p369
I3
sV\u6545\u610f
p370
I10
sV(0) UM.\u005c
p371
I1
sV\u95dc\u9580
p372
I3
sV\u8f09
p373
I4
sV\u8d8a
p374
I8
sV\u6eff\u8db3
p375
I1
sV\u5c04\u9580
p376
I1
sV..  heN=.ey%-
p377
I1
sV\u7b11
p378
I3
sV\u5de5\u8b80\u751f
p379
I5
sV\u5e38\u5e38
p380
I8
sV\u7279
p381
I1
sV\u8173\u8e0f
p382
I2
sV\u5c94
p383
I1
sV\u65d7\u5b50
p384
I3
sV\u6253
p385
I82
sV...(1.5) 
p386
I3
sV\u63d0\u65e9
p387
I1
sV\u9023\u5e36
p388
I1
sV\u679c\u6548
p389
I1
sV\u7a2e\u6578
p390
I1
sV\u6295\u7d66
p391
I4
sVXXXX
p392
I1
sV\u9054\u52d2\u65af
p393
I5
sV\u4e0d\u5f97\u4e86
p394
I1
sV\u982d\u9aee
p395
I5
sV\u4ecb\u610f
p396
I3
sV\u554f\u554f\u770b
p397
I1
sV\u6253\u958b
p398
I2
sV\u524d\u9014
p399
I2
sVey
p400
I2
sV\u7cfb\u6240
p401
I1
sV\u8b6c\u5982
p402
I1
sV\u8cb4
p403
I8
sV\u5834\u5408
p404
I1
sV\u5973\u5152
p405
I1
sV\u5b50\u5f48
p406
I2
sV\u2027\u250c
p407
I1
sV\u505a\u5230
p408
I1
sVa    @@
p409
I2
sV\u919c\u5316
p410
I1
sV\u6230\u8853
p411
I1
sV\u61c2
p412
I4
sV\u5bb6\u5ead
p413
I2
sV\u5927\u8072
p414
I1
sV\u8f49
p415
I1
sV\u914d
p416
I1
sV\u7f8e\u5de5
p417
I2
sV\u51fa\u65bc
p418
I2
sV\u5168\u90e8
p419
I9
sV\u4e4b\u4e00
p420
I1
sV\u8fa6\u5ba4
p421
I1
sV\u9054\u5230
p422
I1
sV\u9644\u8fd1
p423
I7
sV\u6ac3\u6aaf
p424
I4
sV\u75b2\u4e4f
p425
I3
sV\u626e\u6f14
p426
I2
sV\u88dc
p427
I5
sV..m.\u005c
p428
I16
sV\u9ede\u51fa\u4f86
p429
I1
sV\u5361
p430
I3
sV\u72e0
p431
I1
sV\u5565
p432
I6
sV...uh,_
p433
I1
sV\u9ee8
p434
I3
sV@[@]
p435
I1
sV\u8acb\u554f
p436
I4
sV\u722d\u5f97
p437
I1
sV\u646f
p438
I1
sV\u300d,_
p439
I1
sV\u7368\u7acb
p440
I6
sV\u8b58\u76f8
p441
I1
sV\u6a94\u6848
p442
I1
sV\u5730\u6b65
p443
I1
sV\u7af9\u7c50
p444
I1
sV.. 
p445
I399
sV\u597d
p446
I163
sV\u4ec0\u9ebc
p447
I193
sV\u4e2d\u9593
p448
I5
sV\u9752\u5e74
p449
I5
sV\u4e0b\u9762
p450
I2
sV..  <T
p451
I1
sV]@>.\u005c
p452
I4
sV\u5bb6\u9580\u53e3
p453
I1
sV\u51fa\u5c40
p454
I4
sV\u5f85\u4e0d\u4f4f
p455
I1
sV...<@Joky
p456
I1
sV.. <E Hey you . I am asking you E>.\u005c
p457
I1
sV\u6d77\u68a8
p458
I2
sV..[<X
p459
I1
sV\u6216
p460
I7
sV\uff0e
p461
I33
sV\u591a\u9918
p462
I2
sV\u597d\u591a
p463
I6
sV\u5728\u4e00\u8d77
p464
I7
sV X>.\u005c
p465
I7
sV(0)Nh=.\u005c
p466
I4
sV\u82b1
p467
I3
sVZ&Y:@@@
p468
I1
sV\u665a\u4e0a
p469
I11
sV\u5f1f\u59b9
p470
I1
sV\u821e\u53f0
p471
I1
sV[1@@@1]
p472
I2
sV\u660e\u78ba
p473
I1
sV\u65af
p474
I2
sVhm.
p475
I1
sV2
p476
I5
sV\u529f\u592b
p477
I2
sV..hoN?/
p478
I1
sV...oh=,_
p479
I1
sV\u6253\u7403
p480
I21
sV\u73ed\u724c
p481
I1
sVNo.\u005c
p482
I1
sV\u8981\u597d
p483
I2
sV\u8a8d\u8b58
p484
I13
sV.\u005c \u005c
p485
I1
sV\u5927\u6982
p486
I18
sV\u57c3\u53ca
p487
I1
sV\u7814\u7a76\u751f
p488
I1
sV\u5f88\u5c11
p489
I6
sV @>.\u005c
p490
I36
sV @>._
p491
I1
sV\u6015\u4eba
p492
I1
sV@>].\u005c
p493
I4
sV\u597d\u597d\u7b11
p494
I2
sV\u714c
p495
I1
sV\u5728\u5834
p496
I4
sV\u53f3\u624b
p497
I1
sV\u5b50
p498
I2
sV\u6f14\u85dd
p499
I1
sV@>1].\u005c
p500
I2
sV(0) <T 
p501
I6
sV\u5e2b\u5927
p502
I1
sV\u99d5\u7167
p503
I2
sVoh?/
p504
I9
sV\u88dd
p505
I1
sV...(0.8)HaN?/
p506
I1
sV\u8ddf
p507
I174
sV[1@@@1]   [2@@@2]
p508
I1
sV\u54e5
p509
I1
sVeh.\u005c
p510
I9
sV\u7d00\u7469
p511
I1
sV\u8209\u624b
p512
I3
sV<xx>
p513
I1
sV\u50f9\u503c
p514
I1
sV\u8aaa\u5c0d
p515
I1
sV\u7d04\u597d
p516
I3
sV\u5b78\u5f1f
p517
I4
sV\u99ac\u53ef
p518
I1
sV\u751f\u547d\u7dda
p519
I4
sV=\uff0e
p520
I1
sVne?/
p521
I1
sV\u6050\u9f8d
p522
I1
sV\u6703
p523
I241
sV\u8acb\u5ba2
p524
I1
sV\u7c21\u55ae
p525
I5
sV...(4.1)
p526
I2
sVT>@>.\u005c
p527
I1
sV\u4e09
p528
I31
sV\u588a\u5e95
p529
I4
sV\u300d
p530
I6
sV...(0.75)
p531
I1
sV^
p532
I193
sV\u6703\u8a08
p533
I1
sV\u89aa\u81ea
p534
I1
sV\u7e5e
p535
I3
sV\u67ef\u7e3d\u4f0a
p536
I1
sV\u8b1b
p537
I133
sV\u773c\u775b
p538
I9
sV C x>.\u005c
p539
I1
sV\u5fd7\u9858
p540
I1
sV\u7279\u6b8a
p541
I1
sV\u8b1b\u6cd5
p542
I1
sV\u5927
p543
I51
sV\u5e7e\u865f
p544
I1
sV\u81fa\u5317\u5e02
p545
I1
sV\u4e8b\u5148
p546
I1
sV-
p547
I174
sV\u540c\u4e8b
p548
I1
sV\u652f
p549
I4
sV\u8a31
p550
I1
sV...(2)[1
p551
I1
sV...(1.2) <@ 
p552
I1
sV[ey]
p553
I2
sV\u6211\u7b49
p554
I1
sV..<E stop\uff0estop E>.\u005c
p555
I1
sV..  [1 
p556
I1
sV\u8f2a\u6d41
p557
I2
sV\u559c\u5e16
p558
I1
sVey .\u005c
p559
I1
sV...mm=,_
p560
I1
sV\u6539\u8b8a\u904e\u4f86
p561
I1
sV\u5403\u5b8c
p562
I2
sV\u5927\u817f
p563
I3
sV...(3.1)^
p564
I1
sV[xxx]
p565
I1
sV\u554f
p566
I25
sV.\u250c^
p567
I1
sV\u7a4d\u6975
p568
I1
sV\u6158\u75db
p569
I1
sV\u5206\u7d44
p570
I1
sV..[@@]
p571
I1
sV..hmm.\u005c
p572
I5
sV\u8cfa\u9032
p573
I1
sV\u64da
p574
I1
sV\u885d
p575
I3
sV...(2)<@(H)
p576
I1
sV...<F 
p577
I3
sV\u8cb7\u4e0d\u8d77
p578
I1
sV..<MRC 
p579
I5
sV\u4e0a\u7a7a
p580
I2
sV\u4e8c\u5341
p581
I2
sV\u7a0d\u7a0d
p582
I1
sV\u60e0
p583
I2
sV\u60f3\u51fa\u4f86
p584
I5
sV[Mh]
p585
I1
sV\u5fc3\u6b7b
p586
I1
sV.. or=.\u005c
p587
I1
sV\u56fa\u5b9a
p588
I7
sV(to a girl )...(5.2)
p589
I1
sV..Wau= ,_
p590
I1
sV\u5169\u5104
p591
I1
sV..  yeo yeo yeo.\u005c
p592
I1
sVT>?/
p593
I1
sV\u4e00\u4e03
p594
I1
sV\u9a37\u64fe
p595
I5
sV...Nonon L>.\u005c
p596
I1
sV\u5230\u5e95
p597
I8
sV\u4e00\u4e9b\u4e9b
p598
I1
sV\u5341\u4e8c
p599
I2
sV\u805e\u5f97
p600
I2
sV\u6536\u5230
p601
I1
sV\u5e74\u524d
p602
I2
sV\u9a0e\u904e\u53bb
p603
I1
sV\u5834\u5730
p604
I7
sV\u6e4a\u6e4a
p605
I1
sV\u63a5\u6bba
p606
I1
sV\u73fe\u8c61
p607
I2
sV..oh=
p608
I1
sV...(7.2)ey
p609
I1
sV\u6709\u95dc
p610
I5
sV\u8d77\u4f86
p611
I9
sV\u90a3
p612
I798
sV\u53f0
p613
I4
sV\u5224
p614
I12
sV\u78b0
p615
I5
sV\u4ed6\u7528
p616
I1
sV\u5e72\u64fe
p617
I1
sV..ho?/
p618
I3
sV(0.5)@@@
p619
I1
sV\u525b\u597d
p620
I9
sV\u521d\u8a3a
p621
I2
sV\u4ea4\u9ede
p622
I1
sV\u806f\u8abc
p623
I1
sV\u6bb5
p624
I5
sV\u5176\u4ed6
p625
I8
sV --
p626
I4
sV\u99ac\u723e
p627
I1
sV\u8cfd\u5b8c
p628
I1
sV\u6703\u9577
p629
I3
sV3].\u005c
p630
I1
sV\u593e
p631
I1
sV\u64fa\u8a2d
p632
I1
sV\u4ec7
p633
I1
sV=, _
p634
I1
sV\u63a8\u92b7\u54e1
p635
I1
sV-- ,_
p636
I1
sV\u58d3
p637
I1
sV(toB)..
p638
I1
sV\u5272\u4e0b\u4f86
p639
I2
sV\u5065\u5eb7
p640
I2
sV\u4e0d\u53ea
p641
I2
sV\u597d\u8655
p642
I4
sV\u8ce3\u6389
p643
I1
sV\u9762
p644
I11
sV c>?/
p645
I1
sV\u5f85\u5728
p646
I1
sV\u7d66
p647
I54
sV 2]-
p648
I1
sV..Nomy.\u005c
p649
I1
sV\u5f37\u608d
p650
I1
sV\u653e\u4e0d\u4e0b
p651
I1
sV\u7d50\u679c
p652
I38
sV\u6df1
p653
I2
sV...(3.2) 
p654
I1
sV<L2 morning call L2>
p655
I1
sV\u7576
p656
I13
sV\u6d41\u9732
p657
I2
sV\u9078
p658
I15
sV\u6930\u5b50\u6a39
p659
I1
sV\u81fa\u5317
p660
I1
sV\u7e7c
p661
I1
sV\u5148
p662
I28
sV..mm .\u005c
p663
I1
sV(0)[NnHh=].\u005c
p664
I1
sV\u8003
p665
I14
sV\u72c0\u6cc1
p666
I8
sV...(1.4) 
p667
I5
sV\u5118\u91cf
p668
I2
sV\u6d41\u8840
p669
I1
sV\u751c\u98df
p670
I1
sV\u8b8a
p671
I16
sV..e(Hx)
p672
I1
sV\u54c1\u5690
p673
I1
sV <F suhsuhsuhsuhsuh F>.\u005c
p674
I1
sV\u718a\u968a
p675
I1
sV\u4e00\u4e9b
p676
I47
sV(0)mm.\u005c
p677
I10
sV\u8f1d
p678
I2
sV\u9ebb\u7169
p679
I3
sV..2
p680
I3
sV\u9023
p681
I9
sVNo1]
p682
I1
sV\u548c\u6a02
p683
I2
sV\u5929
p684
I45
sV\u98a8
p685
I1
sV\u4f4f\u5b85
p686
I1
sV\u559c\u597d
p687
I2
sV\u4f01\u696d
p688
I2
sV\u7d50\u675f
p689
I3
sVnah ,_
p690
I1
sV\u4f0d\u4edf
p691
I1
sV<E counseling E>,_
p692
I1
sV\u7b54\u6848
p693
I2
sV\u6539\u56de
p694
I1
sV\u9577\u671f
p695
I4
sV x>]
p696
I1
sV\u5973\u6027
p697
I2
sV\u9ebc
p698
I1
sV\u6284\u5230
p699
I1
sV\u6574
p700
I5
sV\u6345
p701
I2
sV\u9b25\u725b
p702
I3
sV\u62c9\u56de
p703
I1
sV\u904e\u5ba2
p704
I4
sV\u5c08\u696d
p705
I5
sV<Q 
p706
I2
sV\u5176\u4e2d
p707
I1
sV\u60f3\u6cd5
p708
I6
sV\u71ce
p709
I1
sV\u5077\u5077
p710
I1
sV...(11.1)
p711
I1
sV\u4e0d\u7136
p712
I7
sV\u7de8\u8b6f
p713
I9
sV\u719f
p714
I5
sV\u81ea\u4fe1
p715
I6
sV\u6a5f
p716
I1
sV\u4e4b\u6240\u4ee5
p717
I2
sV..ey
p718
I11
sV\u738b\u5149\u8f1d
p719
I1
sV\u64c5\u81ea
p720
I1
sV...(1)XXX
p721
I1
sV\u81f3\u5c11
p722
I2
sV\u4f54
p723
I2
sV..XXXX
p724
I1
sV\u6cf0
p725
I3
sV..hon,_
p726
I1
sV\u6d3b\u52d5\u529b
p727
I1
sV<E morning call E>]-
p728
I1
sV\u5f48\u8df3
p729
I2
sV\u65b9\u5411
p730
I2
sV\u7da0\u541b
p731
I15
sV...(1.3)[
p732
I1
sV\u7576\u521d
p733
I4
sV\u7a7f
p734
I11
sV..ha?/
p735
I5
sV..henn.\u005c
p736
I3
sV@@@@
p737
I9
sV...(6.3)
p738
I1
sV\u8003\u616e\u5230
p739
I1
sV..<J so ga= J>.\u005c
p740
I1
sV\u80cc\u666f
p741
I1
sV\u958b
p742
I18
sV\u6253\u5230
p743
I14
sV\u963f\u82f1
p744
I3
sV\u9084\u8981
p745
I8
sV\u6709\u6c92\u6709
p746
I47
sV\u7b2c
p747
I1
sV\u82f1\u6587
p748
I6
sV\u55ae\u65b9\u9762
p749
I1
sV\u6709\u53f2\u4ee5\u4f86
p750
I1
sVoh ,_
p751
I3
sV\u9ad8\u500b\u5b50
p752
I1
sV\u9664\u4e86
p753
I5
sV\u73bb\u7483\u5c4b
p754
I2
sV\u6383\u904e
p755
I1
sV...[2 uh= 2].\u005c
p756
I1
sV..oh oh oh.\u005c
p757
I1
sV\u7e3d\u5e79\u4e8b
p758
I1
sV\u50b3\u627f
p759
I1
sVXXX,_
p760
I1
sV\u51fa\u624b
p761
I1
sV\u9928
p762
I1
sV\u662f\u4ee5
p763
I1
sV\u672c
p764
I9
sV\u6bd4\u5b50
p765
I1
sV.
p766
I90
sV\u5168\u570b
p767
I1
sV\u4e8b\u7269
p768
I2
sV(0) 
p769
I93
sV\u5546\u696d
p770
I3
sVU.W.A.B:@@@
p771
I1
sV\u967d\u660e
p772
I1
sV\u96f2\u5f69
p773
I2
sV\u5c04\u5230
p774
I1
sV\u7834
p775
I1
sV\u9752\u5149\u773c
p776
I1
sV\u7bc4\u570d
p777
I3
sV\u53cd\u6b63
p778
I10
sV\u4ee5\u5f8c
p779
I34
sV...um,_
p780
I1
sV\u4e16\u754c
p781
I1
sVxxx
p782
I10
sV(0)[
p783
I5
sV\u8463
p784
I5
sV\u904e
p785
I44
sV..hoN,_
p786
I1
sV\u4ec0\u4e00
p787
I3
sV\u7b54
p788
I1
sV\u4e0a\u7c43
p789
I4
sVla ,_
p790
I1
sV\u862d
p791
I1
sV...(6.1)
p792
I1
sV\u4f5c
p793
I5
sV.\u005c Q>
p794
I1
sV\u4e8c\u5341\u4e09
p795
I1
sV\u6e05\u82ac
p796
I9
sV\u5c0d\u4e86
p797
I6
sV\u65b7\u65b7\u7e8c\u7e8c
p798
I1
sV\u963b\u6b62
p799
I1
sV\u7968
p800
I1
sV\u5100\u5668
p801
I1
sV\u60f3\u8d77
p802
I1
sV\u83ef
p803
I4
sV\u8d70
p804
I4
sV[ey] ,_
p805
I1
sV..uuh.\u005c
p806
I1
sV\u8208\u596e
p807
I1
sV\u898f\u5b9a
p808
I3
sV\u54ac\u4e0b\u53bb
p809
I2
sV...(0.7)<F ey F>?/
p810
I1
sV\u5f7c
p811
I2
sV <MRC 
p812
I1
sV[2 XXXX (Hx)(Hx) 2].\u005c
p813
I1
sV\u5f1f\u5f1f
p814
I2
sV...hey.\u005c
p815
I1
sV\u4ee3\u8868
p816
I1
sV\u671f\u671b
p817
I3
sV\u679c\u6c41
p818
I1
sV\u6d88\u5316
p819
I2
sV\u6771\u5e1d\u58eb
p820
I1
sVNo--
p821
I1
sV\u662f\u4e5f
p822
I8
sV-- T>
p823
I3
sV\u9913
p824
I3
sV\u5ba3\u9053\u6703
p825
I1
sV\u908a\u908a
p826
I1
sV\u90a3\u9ebc
p827
I15
sV.\u005c
p828
I2379
sV\u96a8\u4fbf
p829
I5
sV\u5b78\u59ca
p830
I1
sV\u5e73\u5e38
p831
I11
sV\u5225
p832
I6
sV\u6e05
p833
I1
sV\u885b\u6d74
p834
I1
sV\u4e0d\u904e
p835
I16
sV\u7136\u5f8c
p836
I212
sV\u571f\u5730
p837
I2
sVQ> ,_
p838
I2
sV\u7051
p839
I1
sV...Nonon,_
p840
I1
sV--
p841
I428
sV\u5305\u8d77
p842
I2
sV...(1.8) 
p843
I5
sV\u88dc\u7fd2\u73ed
p844
I1
sV<E cover E>
p845
I1
sV...(1.8)<@ 
p846
I1
sV<E  ^Akancer  E>.\u005c
p847
I1
sV\u524d\u9762
p848
I2
sV\u958b\u73a9\u7b11
p849
I5
sV...(4.2)
p850
I2
sV\u76ee\u7684
p851
I3
sV...(1.9)
p852
I8
sV\u9280\u724c
p853
I2
sV <E morning call E>@>.\u005c
p854
I1
sV\u5927\u806f\u76df
p855
I3
sV\u5e38\u6709
p856
I2
sV\u5690\u8a66
p857
I1
sV\u7c21\u76f4
p858
I1
sV-,
p859
I1
sV\u9053\u8def
p860
I3
sV\u8cfa\u4e0d\u5230
p861
I1
sV\u7fd2\u6163\u6027
p862
I1
sV\u4fdd\u5b88
p863
I1
sV\u5ee3\u5834
p864
I1
sV[X],_
p865
I1
sV\u96e2
p866
I2
sV\u8aaa\u771f\u7684
p867
I2
sV\u8981\u4e0d\u8981
p868
I7
sV\u59e8
p869
I1
sV\u5927\u54e5
p870
I3
sV\u9054\u6210
p871
I1
sV\u8dd1\u56de
p872
I2
sVey= ,_
p873
I1
sV\u7f3a\u9ede
p874
I5
sV...(2.3)
p875
I3
sV\u885d\u7a81
p876
I1
sV\u963f\u8205
p877
I3
sV\u523b\u610f
p878
I1
sV\u570b\u8a9e
p879
I1
sV\u7a69\u5b9a
p880
I2
sV\u7f8e\u597d
p881
I2
sV\u4e09\u58d8
p882
I5
sV\u5df1\u7d93
p883
I4
sV\u54aa
p884
I1
sV.. hm.\u005c
p885
I1
sV\u9673\u6c34\u6241
p886
I3
sV\u653e\u5230
p887
I2
sV\u4e0d\u53ef
p888
I2
sV\u8b8a\u6210
p889
I13
sV\u540c
p890
I3
sV\u60bd\u6158
p891
I1
sV\u72d7\u72d7
p892
I13
sV\u5ef6\u4f38
p893
I1
sV...(6.8)
p894
I1
sV\u9867\u9663
p895
I1
sV\u7814
p896
I1
sV\u4e0d\u597d\u610f\u601d
p897
I1
sV\u6536
p898
I1
sV\u4e9b
p899
I20
sV\u64bf\u8d77\u4f86
p900
I1
sV..no,_
p901
I1
sV\u4e82\u8b1b
p902
I2
sV\u4e00\u5e74
p903
I4
sV@>?/
p904
I7
sVoh Hi>?\u005c
p905
I1
sV\u9322\u6ac3
p906
I1
sV\u6f02\u4eae
p907
I6
sV\u5806
p908
I8
sVeh Q>.\u005c
p909
I1
sVJackie Jackie,_
p910
I1
sV\u6e96\u5099\u597d
p911
I1
sV.. ey ,_
p912
I3
sV\u4f60\u5011
p913
I69
sV\u540c\u5b78
p914
I33
sV\u6eff\u8db3\u611f
p915
I1
sV oh Hi>?/
p916
I1
sV\u7238
p917
I7
sV\u90ed\u60e0\u73cd
p918
I1
sV...(0.5)
p919
I2
sV\u5641\u5fc3
p920
I3
sV\u53f0\u8996
p921
I1
sV\u5206\u6524
p922
I1
sV\u4f46
p923
I6
sV\u767c\u7a3f
p924
I1
sV\u611f\u52d5
p925
I1
sV\u7a0d\u5fae
p926
I2
sV\u588a\u5b50
p927
I1
sV\u50cf
p928
I92
sV\u6108\u4f86\u6108
p929
I1
sVoh,_
p930
I10
sV\u6562
p931
I16
sV...(2.5)
p932
I8
sV\u5f80\u5f8c
p933
I1
sVoh Hi>?/
p934
I1
sV\u6697\u865f
p935
I3
sV..ey=\uff0e
p936
I1
sVa    @@@.\u005c
p937
I1
sV\u8eab\u50f9
p938
I1
sV...(3.4)
p939
I4
sV..\u300c
p940
I2
sV...m 
p941
I1
sV-<T
p942
I1
sV[HON].\u005c
p943
I1
sV\u9910
p944
I4
sV=
p945
I136
sV\u804a\u5230
p946
I1
sV\u5927\u5c0f\u4fbf
p947
I2
sV\u904a\u6232
p948
I1
sV\u7d93\u8b8a
p949
I1
sV\u904e\u591a
p950
I2
sV\u5c0f\u7d44\u9577
p951
I1
sV...<x ey 
p952
I1
sV\u6f14
p953
I4
sV\u8a18\u61b6\u9ad4
p954
I1
sV\u5feb\u8981
p955
I2
sV<@[
p956
I1
sV(TSK)
p957
I1
sV\u4f86
p958
I116
sV (H)e],_
p959
I1
sV\u5927\u843d
p960
I1
sV\u4e16\u4fd7
p961
I1
sV\u7d93\u6b77
p962
I1
sV\u548c
p963
I5
sV\u540d\u756b
p964
I1
sV..(3.2)
p965
I1
sV\u5433\u5a49
p966
I1
sVQ>.\u005c
p967
I4
sV X>
p968
I1
sV\u5973\u820d
p969
I4
sV\u4f7f\u7528
p970
I9
sV\u771f\u7406
p971
I4
sVla.\u005c
p972
I1
sV\u8eca\u6d41
p973
I1
sV\u904a\u89bd\u8eca
p974
I1
sV(0)<@ ey
p975
I1
sV\u554f\u5b8c
p976
I1
sV\u76ee\u524d
p977
I2
sV 1][2 
p978
I1
sV\u79ae\u62dc\u5929
p979
I2
sV\u5927\u90e8\u4efd
p980
I4
sV\u6d77\u6d0b
p981
I1
sV\u56de\u61b6
p982
I1
sV\u6578\u64da
p983
I4
sV\u60c5\u540c\u624b\u8db3
p984
I1
sV\u6cd5\u5f8b
p985
I1
sV(0)@@@(H)
p986
I1
sV\u7981\u8cfd
p987
I3
sV\u55ac\u6cbb
p988
I1
sVle.\u005c
p989
I4
sV\u6253\u51fa
p990
I1
sV\u7a0b\u5ea6
p991
I5
sV\u6027\u617e
p992
I1
sV\u5348\u9910
p993
I1
sV..<@ ha @>?/
p994
I1
sV\u5750\u4e0b\u53bb
p995
I1
sV\u5b8c\u5168
p996
I2
sV\u8ca1\u6771
p997
I1
sV\u6b63\u78ba
p998
I1
sV\u5bf6\u8cb4
p999
I1
sV\u5ee3
p1000
I2
sV\u6ce8\u610f\u5230
p1001
I1
sV\u5f31\u9ede
p1002
I2
sV...[1oh=1].\u005c
p1003
I1
sV\u59ff\u52e2
p1004
I3
sV\u5730\u4f4d
p1005
I4
sV\u7761
p1006
I22
sV\u56e0
p1007
I4
sV??/
p1008
I4
sV...(1.0) 
p1009
I1
sV\u5165
p1010
I2
sV\u6a21\u7bc4
p1011
I1
sV\u90a3\u9ebc\u591a
p1012
I5
sV\u4f9d\u9644
p1013
I1
sV\u770b\u898b
p1014
I2
sV\u4eba\u4e8b
p1015
I1
sV\u6454\u8de4
p1016
I2
sVNo,_
p1017
I3
sV\u51b7\u6389
p1018
I1
sV\u65b0\u5b78\u53cb
p1019
I3
sVum\u2027
p1020
I1
sV XX
p1021
I1
sV\u5224\u5b9a
p1022
I1
sV\u5477
p1023
I1
sV\u7121\u8ad6
p1024
I1
sVmah?/
p1025
I2
sV\u51fa
p1026
I8
sV<@ 
p1027
I10
sV..<Q ou
p1028
I1
sV\u6700
p1029
I34
sV\u6383
p1030
I4
sV\u540c\u6a23
p1031
I1
sV...(2.2)
p1032
I3
sV\u5230\u6642\u5019
p1033
I2
sVa   (0) [
p1034
I1
sV... eN
p1035
I1
sV\u81fa\u7063
p1036
I1
sV\u6b63\u597d
p1037
I2
sV\u5fd8
p1038
I9
sV(0)oh
p1039
I2
sV\u4f9b
p1040
I1
sV= 2], _
p1041
I1
sV\u89e3\u91cb
p1042
I1
sV\u5496\u5561
p1043
I4
sV\u6211\u5011\u5006
p1044
I1
sV[Nh=].\u005c
p1045
I2
sV(to a girl)...(1)
p1046
I1
sV\u7b28
p1047
I6
sV\u4e0b\u5348
p1048
I13
sV\u5c0f\u6642
p1049
I2
sV\u50d1\u751f
p1050
I1
sV\u51ac\u5929
p1051
I1
sV\u529b\u6c23
p1052
I4
sV\u8aaa\u51fa\u53bb
p1053
I1
sV\u5979\u5011
p1054
I8
sV\u51a0\u8ecd\u8cfd
p1055
I1
sVNBA
p1056
I1
sV3],_
p1057
I2
sV\u5750\u4e0d\u4e0b
p1058
I1
sVx>].\u005c
p1059
I2
sV(0) hM?/
p1060
I1
sV\u6027\u80fd
p1061
I1
sV\u8036
p1062
I11
sV\u600e\u9ebc\u6a23
p1063
I13
sV\u9ed1
p1064
I1
sV\u5538\u66f8
p1065
I1
sV\u5e0c\u7f85\u57c3
p1066
I1
sV 2].\u005c
p1067
I1
sV\u900f
p1068
I1
sV\u65d7
p1069
I1
sV\u5f9e\u5c0f
p1070
I1
sV..hum @>.\u005c
p1071
I1
sV\u7761\u89ba
p1072
I8
sV\u4fdd\u990a
p1073
I1
sV[3
p1074
I4
sV\u9760
p1075
I6
sV[1
p1076
I51
sV\u5462
p1077
I39
sV\u7167
p1078
I4
sV L>?/
p1079
I1
sV\u9001\u91ab
p1080
I1
sV\u53ef\u4e0d\u53ef\u4ee5
p1081
I7
sV..humm.\u005c
p1082
I1
sV\u53d7\u50b7
p1083
I2
sV\u6587\u5ba3
p1084
I1
sV\u4e00\u8d77
p1085
I10
sV\u99ac\u8def
p1086
I3
sV\u842c\u91cc\u6674\u7a7a
p1087
I1
sV hey T>.\u005c
p1088
I1
sV\u4eba\u54e1
p1089
I1
sV\u4e0a\u5e1d
p1090
I4
sV\u79ae\u62dc\u5802
p1091
I1
sV\u5c0d\u8c61
p1092
I3
sV\u4e86
p1093
I244
sV\u4ea4\u7d66
p1094
I1
sV..X
p1095
I1
sV\u770b
p1096
I161
sV\u8981\u7dca
p1097
I3
sV(TSK) -- T>
p1098
I1
sV\u9f13\u52f5
p1099
I4
sV\u805a\u6703
p1100
I4
sV\u4eba\u683c
p1101
I3
sV@@@.\u005c
p1102
I1
sV\u4e0d\u4e0b
p1103
I4
sV\u6e6f\u5319
p1104
I1
sV\u7fd2\u6163
p1105
I11
sV\u5730\u4e0a
p1106
I2
sVmah=?/
p1107
I1
sV\u60f3\u4f86
p1108
I2
sV\u807d\u8aaa
p1109
I4
sV\u8c93
p1110
I2
sV@>.\u005c
p1111
I48
sV@>._
p1112
I1
sV.. [1hun hun1].\u005c
p1113
I1
sV\u632a\u53bb
p1114
I1
sV.\u005c.
p1115
I1
sV T>.\u005c
p1116
I33
sV...(5.2) 
p1117
I1
sV...oh=.\u005c
p1118
I1
sV\u9019\u9ebc
p1119
I22
sV\u7537
p1120
I9
sV[XXX].\u005c
p1121
I1
sV\u70ba
p1122
I16
sVa   .. <Q
p1123
I1
sV\u6392\u958b
p1124
I1
sV...[2
p1125
I2
sV\u4f7f\u547d
p1126
I3
sV\u5de6\u53f3
p1127
I3
sV\u5bb3\u7f9e
p1128
I1
sV..eh,_
p1129
I1
sV...(2)
p1130
I11
sV\u8457
p1131
I12
sV...(5.2)^
p1132
I1
sV...[1
p1133
I2
sV\u56db\u767e\u591a
p1134
I1
sVa   ..
p1135
I6
sV\u6557
p1136
I4
sV\u66d6
p1137
I1
sV\u4e0b\u53bb
p1138
I4
sV..Hm.\u005c
p1139
I1
sV.\u005c_
p1140
I1
sV\u6fc3\u7e2e
p1141
I1
sV\u4fee\u5fa9
p1142
I1
sV\u62b1\u56de\u4f86
p1143
I2
sV\u9644\u4e2d
p1144
I1
sV\u4e00\u8de4
p1145
I1
sV\u5e2b
p1146
I1
sV\u7a69
p1147
I2
sVe T>.\u005c
p1148
I1
sV\u555e
p1149
I1
sV\u904e\u5883
p1150
I1
sV<MRC
p1151
I2
sVKTV,_
p1152
I1
sV\u958b\u767c\u51fa
p1153
I1
sV(0) Wa[se].\u005c
p1154
I1
sV\u6253\u70ca
p1155
I1
sV\u4efd\u6578
p1156
I1
sV\u6628\u5929
p1157
I21
sV\u6380\u8d77
p1158
I1
sV\u9577
p1159
I9
sV\u96f6
p1160
I3
sV\u7537\u751f
p1161
I16
sV[@@@=]
p1162
I2
sVa   (0)
p1163
I2
sV\u6bd4\u5982
p1164
I5
sV\u8868\u60c5
p1165
I2
sV\u8981
p1166
I248
sV\u58d3\u6b72\u9322
p1167
I1
sV\u627e\u51fa
p1168
I1
sV\u5b88\u5099
p1169
I4
sV...<T xx
p1170
I1
sV\u4f4f\u5728
p1171
I1
sV\u8b1d\u8b1d
p1172
I11
sV\u5dee\u7570\u6027
p1173
I1
sV...(4.3)
p1174
I1
sV.. (TSK)..
p1175
I1
sV\u7279\u6027
p1176
I1
sV\u9ad4\u6703
p1177
I1
sV\u5931\u8840
p1178
I1
sV\u4e00\u6210
p1179
I2
sV\u53f0\u5317\u5e02
p1180
I1
sV\u5614
p1181
I1
sV\u5fc3\u809d
p1182
I1
sV\u4e0d\u5df2
p1183
I1
sV\u63e0\u82d7\u52a9\u9577
p1184
I1
sV Nonon 
p1185
I1
sV\u8fa6\u516c
p1186
I1
sV..<x @ 
p1187
I1
sV[@@@]
p1188
I9
sV\u5f31
p1189
I5
sVa    @@@
p1190
I2
sV..<Hi 
p1191
I8
sV\u77ad\u89e3
p1192
I15
sV..xxx
p1193
I1
sV\u722c\u6a13\u68af
p1194
I2
sV\u88ab
p1195
I43
sV\u9019\u6a23\u5b50
p1196
I52
sV\u8868\u6f14
p1197
I3
sV\u767c\u5446
p1198
I1
sV\u9818\u5e36
p1199
I2
sV(0)Oh=,_
p1200
I1
sV\u8f49\u64ad
p1201
I1
sV\u6fdf
p1202
I3
sV\u6dcb\u96e8
p1203
I1
sV\u9935
p1204
I4
sV\u7f3a
p1205
I5
sV(0) hoN.hoN.\u005c
p1206
I1
sV\u6c92\u6709
p1207
I243
sV\u79fb\u4f86
p1208
I1
sV(0)<@ 
p1209
I1
sV\u5929\u6c23
p1210
I1
sV\u4e5d\u9ede
p1211
I4
sV\u88dc\u7fd2
p1212
I1
sV\u5206\u671f\u4ed8\u6b3e
p1213
I1
sV\u67b6
p1214
I1
sV\u868a\u5b50
p1215
I1
sV\u8a2d\u8a08
p1216
I4
sV\u5fc3\u60c5
p1217
I1
sV\u60f3\u8d77\u4f86
p1218
I1
sV\u91d1
p1219
I2
sV\u60e0\u82f1
p1220
I2
sV(H).\u005c
p1221
I2
sV\u6559\u5ba4
p1222
I4
sV(H)
p1223
I1
sV\u7d30\u83cc
p1224
I2
sV\u554f\u554f
p1225
I1
sV\u52d5\u4f5c
p1226
I9
sV\u500b\u5200
p1227
I1
sVHi>(Hx)3].\u005c
p1228
I1
sV\u6c11\u9032\u9ee8
p1229
I2
sV\u5f35\u4fe1
p1230
I2
sV(0) <@ 
p1231
I2
sV\u6b78\u7d0d
p1232
I1
sV\u5b78\u7406
p1233
I1
sV\u5efa\u5802
p1234
I5
sV@@[@]
p1235
I1
sV\u610f\u601d
p1236
I11
sV..  <L 
p1237
I1
sV\u8336\u6c34
p1238
I8
sV\u8001\u4eba
p1239
I2
sV\u4e8c\u58d8
p1240
I8
sV\u4eba\u672c
p1241
I1
sV\u5019
p1242
I1
sV\u4f11\u606f\u5ba4
p1243
I10
sV\u8207
p1244
I2
sV\u4e0d\u898b\u4e86
p1245
I1
sV\u9ec3\u88d5\u767b
p1246
I1
sV(0)@@@
p1247
I2
sV\u771f\u7406\u5802
p1248
I14
sV\u62bd\u7c64
p1249
I1
sV]?/
p1250
I19
sV\u50f9\u683c
p1251
I1
sV\u5fc3\u601d
p1252
I2
sV\u9214\u7968
p1253
I1
sV\u6e05\u6f54
p1254
I4
sV\u96fb\u68af
p1255
I3
sV\u56de\u4f86
p1256
I28
sV\u8584\u52a0\u4e18
p1257
I1
sV H>,_
p1258
I1
sV..oh
p1259
I2
sV\u5e36\u4f86
p1260
I1
sV\u4e09\u767e
p1261
I2
sV\u4e4b
p1262
I6
sV\u679d
p1263
I1
sV\u898b\u8b49
p1264
I1
sV\u6559\u5c0e
p1265
I1
sV(0)To To,_
p1266
I1
sV\u4e3b\u8981
p1267
I9
sV2]@>.\u005c
p1268
I1
sV\u6574\u4fee
p1269
I3
sV\u540d\u5b57
p1270
I10
sV\u8a2a\u554f
p1271
I3
sV.. [1
p1272
I2
sV\u62ff\u624b
p1273
I1
sV\u4e00\u9663\u5b50
p1274
I6
sV\u8b1b\u5b8c
p1275
I1
sV\u4e0d\u932f
p1276
I20
sV\u963f
p1277
I9
sV\u70ba\u516c
p1278
I1
sV\u4e00\u898b\u937e\u60c5
p1279
I2
sV\u738b\u6cd5
p1280
I2
sV\u5435\u7ffb\u5929
p1281
I1
sVho x @>,_
p1282
I1
sV\u800c\u662f
p1283
I2
sV\u767c\u9054
p1284
I1
sV\u81ea\u5df1
p1285
I72
sV\u570b
p1286
I2
sV\u561f\u561f
p1287
I1
sV...hoN?/
p1288
I1
sV\u5206\u985e
p1289
I1
sV\u96d9\u8a9e
p1290
I2
sV[
p1291
I340
sV\u53d6\u52dd
p1292
I1
sV\u865f
p1293
I13
sV\u5efa\u7bc9\u7269
p1294
I1
sV\u6211\u5011
p1295
I239
sV\u865f\u78bc
p1296
I1
sV(to S)...
p1297
I1
sV\u57fa\u790e
p1298
I1
sV\u7a7f\u8457
p1299
I3
sV\u51fa\u4f86
p1300
I15
sV\u5169\u9ede
p1301
I2
sV[<x
p1302
I1
sV\u5168\u9ad4
p1303
I1
sV\u516d\u5341\u842c
p1304
I1
sV=].\u005c
p1305
I3
sV...(1.3)<L 
p1306
I1
sV\u9084\u56de\u4f86
p1307
I1
sV\u66f4
p1308
I12
sV\u5a77
p1309
I1
sV\u66f8\u6ac3
p1310
I1
sV\u4e00\u81f4\u6027
p1311
I1
sV=2],_
p1312
I1
sV[XX
p1313
I1
sV\u8001
p1314
I2
sV\u6a02
p1315
I1
sV\u4e8b\u5be6
p1316
I7
sV\u6d6a\u8cbb
p1317
I1
sV\u6b63\u9762
p1318
I7
sV...<E BBS E>
p1319
I1
sV\u5c0e
p1320
I2
sV[1<@
p1321
I1
sV\u6709\u6642\u5019
p1322
I23
sV\u6700\u5c11
p1323
I1
sV\u4fca\u54f2
p1324
I3
sV\u6846\u6846
p1325
I1
sV(0)<T ha T>.\u005c
p1326
I1
sV\u5427\u6aaf
p1327
I2
sV\u7d55\u4ea4
p1328
I1
sV] x>,_
p1329
I1
sV\u5b78\u9577
p1330
I1
sV\u641e
p1331
I3
sV\u5920
p1332
I4
sV\u555f\u667a\u73ed
p1333
I1
sV\u7d50\u8ad6
p1334
I2
sV\u6069\u8cdc
p1335
I2
sV\u77ed\u5ba3
p1336
I7
sV\u6559\u66f8
p1337
I2
sV\u7528
p1338
I44
sV\u6490\u5098
p1339
I10
sV(Hx)--
p1340
I1
sV(0)hum.\u005c
p1341
I1
sV...(3.7)<@ 
p1342
I1
sV...(8) oh ,_
p1343
I1
sV...(2.4) 
p1344
I1
sV\u767c\u554f
p1345
I2
sV..xxx 
p1346
I1
sV\u68ee\u6797
p1347
I1
sV<A 
p1348
I1
sV..oh.\u005c
p1349
I2
sV\u6234
p1350
I12
sV\u795e\u79d8
p1351
I1
sV\u6559\u6388
p1352
I1
sV(0)um.\u005c
p1353
I9
sV...(2.4)[
p1354
I1
sV\u51b7\u6c23
p1355
I2
sV\u5b89\u5168\u611f
p1356
I3
sV\u9591
p1357
I2
sV\uff2f.
p1358
I1
sV^ha=?/
p1359
I1
sV\u7c43\u6846
p1360
I4
sV\u638c
p1361
I1
sV\u59b9
p1362
I1
sV\u7dda\u8def
p1363
I1
sV\u7121\u6575
p1364
I1
sVyou.\u005c
p1365
I2
sV\u73ed\u8cbb\u8ce0
p1366
I1
sV\u4e09\u6a13
p1367
I12
sV.. <E Yes maybe E>.\u005c
p1368
I1
sV\u884c\u70ba
p1369
I1
sV 1]--
p1370
I1
sV\u653e\u7d66
p1371
I1
sV oh.\u005c
p1372
I2
sV\u624b\u5957
p1373
I2
sV\u5148\u65ac\u5f8c\u594f
p1374
I1
sV...[ey.
p1375
I1
sV\u64fa\u6709
p1376
I1
sV\u6c92\u8fa6\u6cd5
p1377
I10
sV\u2502@@
p1378
I1
sV\u767c\u751f
p1379
I6
sV\u966a
p1380
I1
sV\u4e8c\u59ca
p1381
I1
sV\u901a\u904e\u9ede
p1382
I1
sV\u5de8\u86cb
p1383
I3
sV\u8272
p1384
I2
sV\u653f\u898b
p1385
I4
sV,_T>
p1386
I1
sV\u771f\u5be6
p1387
I2
sV\u672a\u4f86
p1388
I2
sV\u8d70\u904e\u4f86
p1389
I1
sV\u5c31\u662f
p1390
I247
sV\u9019\u908a
p1391
I27
sV\u5fc3\u610f
p1392
I4
sV1]ah.\u005c
p1393
I1
sV\u6307
p1394
I1
sV(0)<F
p1395
I2
sVW.A.B:\u2514@@
p1396
I1
sV\u5b8c
p1397
I8
sV\u60c5\u5883
p1398
I1
sVoh .\u005c
p1399
I1
sV\u9910\u98f2
p1400
I2
sV\u5047\u5982
p1401
I3
sV\u653f\u6cbb
p1402
I2
sV\u611b
p1403
I5
sV\u770b\u66f8
p1404
I2
sV\u4f11\u606f
p1405
I2
sV\u649e
p1406
I1
sV?_
p1407
I1
sV\u5ee3\u544a
p1408
I4
sV\u6709\u7a7a
p1409
I2
sV...(0.7)<F 
p1410
I1
sV\u96fb\u8996
p1411
I1
sV\u770b\u770b\u66f8
p1412
I1
sV\u9806\u670d
p1413
I2
sV\u540d
p1414
I1
sV,-
p1415
I1
sV\u8a2d
p1416
I1
sV\u968e\u6bb5
p1417
I2
sV\u61c9
p1418
I6
sV\u6536\u5f97
p1419
I1
sV\u5c39
p1420
I1
sV\u723d
p1421
I4
sV\u63a8\u56de\u53bb
p1422
I1
sV\u6d88\u606f
p1423
I4
sV\u5fc3\u614b
p1424
I7
sVho,_
p1425
I80
sV\u6536\u7a6b
p1426
I3
sV\u4e45
p1427
I14
sV@ @ @
p1428
I1
sV140
p1429
I3
sV\u860b\u679c
p1430
I3
sV\u9673\u9806
p1431
I2
sV..(0.8) 
p1432
I1
sV..hoN.\u005c
p1433
I1
sV..hm,\u005c
p1434
I1
sV\u500b\u4e2d
p1435
I2
sV...um.\u005c
p1436
I2
sV..<x [
p1437
I1
sV?/
p1438
I340
sV\u540d\u7a31
p1439
I2
sV(H)?/
p1440
I1
sVmai
p1441
I1
sV,_
p1442
I3148
sVX T>.\u005c
p1443
I1
sVNo3],_
p1444
I1
sV\u795e\u5947
p1445
I1
sV\u4e00\u767e\u591a
p1446
I1
sV\u82f1\u8a9e\u7cfb
p1447
I5
sV\u592a\u591a
p1448
I6
sV\u6566\u5357
p1449
I1
sV\u7469
p1450
I1
sV\u9707\u61be
p1451
I2
sV\u53ef\u53e3
p1452
I1
sV='
p1453
I1
sV..  heN,_
p1454
I1
sV\u4e0d\u53ef\u6536\u62fe
p1455
I1
sV\u505a\u597d
p1456
I1
sV\u96d9\u6bba
p1457
I4
sV\u4e0d\u5c11
p1458
I2
sV\u6697\u793a
p1459
I1
sV\u7b77
p1460
I1
sV\u6709\u7a2e
p1461
I1
sV\u5efa
p1462
I7
sV=]-
p1463
I2
sV\u5ee2\u8a71
p1464
I2
sV Hi>.\u005c
p1465
I4
sV\u6c92\u6536
p1466
I1
sV...(3)
p1467
I7
sV(0) Hum ,_
p1468
I1
sV...<@ 
p1469
I1
sV\u598d
p1470
I1
sV\u82f1\u8a9e
p1471
I2
sV\u4e03\u6a13
p1472
I1
sV\u9112
p1473
I4
sV\u96fb\u5f71\u9662
p1474
I1
sV(0)mh mh.\u005c
p1475
I1
sV\u7238\u5abd
p1476
I1
sV\u88dd\u914d
p1477
I1
sV\u4e18
p1478
I1
sV\u60c5\u611b
p1479
I1
sV\u7cfe\u6b63
p1480
I1
sV\u809a\u5b50
p1481
I2
sV
p1482
I85
sV\u4e0d\u5fc5
p1483
I1
sV\u5973\u4eba
p1484
I2
sV[1(Hx)(Hx)(Hx)1].\u005c
p1485
I1
sV\u4e0d\u898b\u5f97
p1486
I1
sV X>--
p1487
I2
sV\u4e0a\u53bb
p1488
I7
sV(0) <@
p1489
I1
sV\u8102\u80aa
p1490
I2
sV\u5c0d\u5c0d\u5c0d
p1491
I13
sV\u7c21\u9910
p1492
I1
sV<@XXXX
p1493
I1
sV\u78ba\u5b9a
p1494
I1
sV...Ha.
p1495
I1
sV\u63a5\u6536\u5230
p1496
I1
sV\u5e38
p1497
I16
sV\u903c
p1498
I1
sV<E Arkansas E>
p1499
I1
sV\u65c5\u884c
p1500
I2
sV\u96fb\u8a71
p1501
I1
sV<E counseling E>
p1502
I1
sV\u4ecb\u7d39\u5b8c
p1503
I1
sV...(3.7)
p1504
I1
sV\u63a8\u92b7
p1505
I1
sV..<Hi oh= Hi>.\u005c
p1506
I1
sV\u72d7\u5e97
p1507
I4
sV\u5439
p1508
I2
sV..eh\uff0e
p1509
I1
sV\u9152
p1510
I1
sV\u6ce8\u76ee
p1511
I1
sV\u6b77\u53f2
p1512
I1
sV... ey ,_
p1513
I1
sV<L2 morning call L2> ^
p1514
I1
sVXXX.\u005c
p1515
I1
sV...(2.1)ey
p1516
I1
sV\u005c
p1517
I3
sV\u672c\u58d8
p1518
I3
sV,_0
p1519
I1
sV\u5de5
p1520
I1
sV\u5c64
p1521
I3
sV\u73fe\u6210
p1522
I1
sV\u904e\u654f
p1523
I1
sV...(4.1)um.\u005c
p1524
I1
sV\u8209\u624b\u4e4b\u52de
p1525
I1
sV\u4e0a\u53f0
p1526
I2
sV\u4e0a\u6821
p1527
I5
sV\u591a\u9ebc
p1528
I1
sV\u4e0a\u73ed
p1529
I3
sV\u9020\u6210
p1530
I3
sV\u5408\u9069
p1531
I1
sV...(2)X-
p1532
I1
sV\u5433\u5b97\u5d50
p1533
I1
sV\u5e78
p1534
I1
sV\u5438\u5f15
p1535
I1
sV\u6c92\u6548
p1536
I1
sV\u707c
p1537
I1
sV\u7136\u5019
p1538
I1
sV\u8ca0\u9762
p1539
I9
sV\u7537\u670b\u53cb
p1540
I1
sV@[1@@1]
p1541
I1
sV...(0.7)
p1542
I35
sVxx T>,_
p1543
I1
sV\u7d14\u7cb9
p1544
I1
sV\u5206\u9418
p1545
I3
sV\u9760\u4e0d\u4f4f
p1546
I1
sV\u6170\u52de
p1547
I1
sV\u6700\u5f8c
p1548
I14
sV\u7f8e
p1549
I3
sV\u512a\u826f
p1550
I2
sV...(1)<@
p1551
I1
sV\u8981\u662f
p1552
I7
sV\u5225\u4eba
p1553
I22
sV\u53c3\u52a0
p1554
I2
sV\u79b1\u544a
p1555
I8
sV\u5473\u5168\u9f8d
p1556
I4
sV\u7591\u60d1
p1557
I1
sV\u9084\u662f
p1558
I50
sV\u671f\u672b\u8003
p1559
I2
sV\u56de\u994b
p1560
I5
sV @>]--
p1561
I1
sV[@@]@
p1562
I1
sV\u5efa\u7acb
p1563
I6
sV=]?/
p1564
I1
sVey.\u005c
p1565
I5
sV\u8a73\u7d30
p1566
I3
sV...[
p1567
I3
sV(0)<Hi Hah=
p1568
I1
sV\u2514hey.\u005c
p1569
I1
sV\u5bd2\u5047
p1570
I1
sV\u7761\u8457
p1571
I2
sV\u5bb6
p1572
I59
sV\u8881\u57f9
p1573
I2
sV\u6295\u8cc7
p1574
I2
sV\u9023\u7d61
p1575
I2
sV\u76f8\u53cd
p1576
I1
sV\u4e8c\u5341\u842c
p1577
I1
sV\u8eca
p1578
I5
sV\u5230\u9054
p1579
I1
sV\u91cd\u9ede
p1580
I4
sVah ,_
p1581
I2
sV\u7d50\u819c\u708e
p1582
I3
sVXX].\u005c
p1583
I1
sV\u552f\u4e00
p1584
I1
sV\u5a49\u6148
p1585
I3
sV\u5653
p1586
I1
sV\u71d2
p1587
I1
sV\u4e0a\u5348
p1588
I1
sV\u904e\u5ea6
p1589
I2
sVne @>.\u005c
p1590
I1
sV..(0)
p1591
I1
sV\u6539\u56de\u4f86
p1592
I1
sV\u55ae\u7368
p1593
I1
sV\u7f85\u99ac
p1594
I1
sV Q>.\u005c
p1595
I19
sV@ @
p1596
I2
sV\u570b\u6587
p1597
I3
sVNo@>,_
p1598
I1
sV[ey
p1599
I3
sV\u53e6
p1600
I1
sV\u96e8
p1601
I3
sV\u4e26
p1602
I2
sV\u4e0a\u5370
p1603
I1
sV\u666e\u901a
p1604
I3
sV\u4fee
p1605
I3
sV(0)Oh=
p1606
I1
sV\u6297\u8b70
p1607
I6
sV\u4ea4\u901a
p1608
I2
sV\u5931\u8aa4
p1609
I6
sV... (1.8)<X 
p1610
I1
sV\u7d42\u65bc
p1611
I3
sV\u6709\u5920
p1612
I3
sV.. e=
p1613
I1
sV..(1) 
p1614
I1
sV\u4e0d\u53ef\u4ee5
p1615
I2
sV\u505a\u5b8c
p1616
I1
sV[@]<@ 
p1617
I1
sV(0) mh.\u005c
p1618
I2
sV\u7126\u9ede
p1619
I1
sV\u7e3d\u5171
p1620
I2
sV...^
p1621
I2
sV=F>,_
p1622
I1
sV\u6708
p1623
I2
sV\u5df4\u6bd4
p1624
I2
sV ey T>,_
p1625
I1
sV\u590f\u5b63
p1626
I1
sV Q>?/
p1627
I1
sV\u9858\u4e0d\u9858\u610f
p1628
I2
sV\u6436\u5230
p1629
I1
sV..<L 
p1630
I1
sV..Nh=
p1631
I1
sV\u5012
p1632
I6
sV...(1 8) 
p1633
I1
sV\u77ee\u5b50
p1634
I1
sV\u639b
p1635
I1
sV\u6b63\u7576
p1636
I2
sV\u958b\u8cfd
p1637
I1
sV3] ,_
p1638
I1
sVoh.\u005c
p1639
I9
sV\u5916\u52e4
p1640
I2
sV\u52a0\u84cb
p1641
I1
sV\u95dc\u65bc
p1642
I1
sV\u62b1
p1643
I2
sV<Hi 
p1644
I1
sV\u4fe1\u7fa9\u6703
p1645
I1
sVle,_
p1646
I2
sV\u53bb
p1647
I183
sV\u79d1\u76ee
p1648
I3
sV...(9) ch=.\u005c
p1649
I1
sV\u53f2\u6069
p1650
I1
sV\u8c50\u5bcc
p1651
I1
sV3
p1652
I2
sV[X.XXXXXXX].\u005c
p1653
I1
sV\u4e0d\u4e2d\u4e0d\u897f
p1654
I1
sV\u5e74\u7d1a
p1655
I1
sVa   ..<E O.K. E>,_
p1656
I1
sV\u66c9
p1657
I1
sV\u6bd4\u7537
p1658
I1
sVNonon.\u005c
p1659
I4
sV\u7d30\u80de
p1660
I1
sV\u526f\u696d
p1661
I2
sV\u4e8c
p1662
I6
sV\u653e\u7f6e
p1663
I1
sV\u896f\u886b
p1664
I1
sV\u63db
p1665
I11
sV\u7f8e\u5473
p1666
I1
sV\u5e74\u7d00
p1667
I4
sV\u61f6\u60f0
p1668
I1
sV\u51b7\u6e05
p1669
I1
sV\u63db\u65b0
p1670
I1
sV\u540c\u6642
p1671
I1
sV..hm
p1672
I1
sV\u9ec3\u5e73\u6d0b
p1673
I2
sV..ho
p1674
I1
sV\u81c9\u8272
p1675
I2
sV\u4e00\u58d8\u624b
p1676
I4
sV..he
p1677
I1
sV\u82f1
p1678
I6
sV\u62c9\u7968
p1679
I1
sV\u7533\u8a9e\u54e5
p1680
I3
sV\u6389\u4e0b\u4f86
p1681
I1
sV\u901f\u6230\u901f\u6c7a
p1682
I1
sV\u4e0d\u540c
p1683
I2
sV\u8b6c\u5982\u8aaa
p1684
I5
sV\u90fd
p1685
I301
sV\u6240\u5728
p1686
I1
sV\u767e
p1687
I1
sV...(1.5)@@@
p1688
I1
sV\u8b80
p1689
I3
sV\u8f03
p1690
I1
sV(0) hum,_
p1691
I1
sV\u5b99\u6500\u54e5
p1692
I1
sV\u70ae\u8f5f
p1693
I2
sV..  yi=.\u005c
p1694
I1
sV..<@KTV@>.\u005c
p1695
I1
sV\u5eca\u9053
p1696
I2
sV\u6b21\u885b\u723e\u5eb7
p1697
I1
sV\u51fa\u8cfd
p1698
I2
sV\u7537\u5973
p1699
I2
sV\u5594
p1700
I76
sV\u8abf
p1701
I2
sV...  
p1702
I1
sV\u5f04\u5f97
p1703
I2
sV(0)[2
p1704
I1
sV\u524d\u5929
p1705
I3
sVYah.\u005c
p1706
I1
sV\u4e09\u5546
p1707
I5
sV\u90a3\u908a
p1708
I40
sV\u5f71\u97ff\u5230
p1709
I1
sV\u5efa\u7bc9
p1710
I1
sV\u5b8c\u5c01
p1711
I2
sV\u540d\u984d
p1712
I1
sV<@ [
p1713
I1
sV\u8981\u5bb3
p1714
I1
sV\u4eae
p1715
I1
sV\u611f\u53d7
p1716
I4
sV A>.\u005c
p1717
I2
sV\u654f\u611f\u5ea6
p1718
I1
sV\u6293\u4f4f
p1719
I1
sV\u5e7e\u4e4e
p1720
I8
sV]x>.\u005c
p1721
I1
sV\u9996\u90fd
p1722
I2
sV@[@@]
p1723
I1
sV\u9677\u5165
p1724
I1
sV\u7f8e\u98df\u8857
p1725
I2
sV[<@
p1726
I3
sV\u6372\u8d77
p1727
I1
sVsa-
p1728
I1
sV\u62c6
p1729
I1
sV\u627e\u5230
p1730
I4
sV[3@@@3]
p1731
I1
sV@>@@@.\u005c
p1732
I1
sV\u559d\u9189\u9152
p1733
I1
sV\u9867\u5ba2
p1734
I1
sV[@@]<@
p1735
I1
sV\u4f5c\u54c1
p1736
I1
sV\u2514@@@
p1737
I2
sVW.A.B:  \u2514@@
p1738
I1
sV\u5973\u7814\u793e
p1739
I5
sV\u5f1f\u5144
p1740
I10
sV]
p1741
I130
sV.. <Q ey
p1742
I1
sV\u77e5\u4e0d\u77e5\u9053
p1743
I1
sV\u91d1\u84ee
p1744
I2
sV\u62b9\u62b9
p1745
I1
sV\u5167
p1746
I11
sV\u8f5f\u70b8
p1747
I2
sV\u8a18\u61b6
p1748
I1
sV..  heN
p1749
I2
sV\u54ea
p1750
I21
sVa B:       [
p1751
I1
sV\u6587\u5b57\u90e8
p1752
I2
sV\u8868\u9054
p1753
I1
sV\u670b\u53cb
p1754
I12
sV\u63d0\u5021
p1755
I2
sV\u597d\u597d\u73a9
p1756
I3
sV\u73ed\u8d70
p1757
I1
sV\u4e00\u81f4
p1758
I1
sV\u5e79
p1759
I4
sV\u52a0
p1760
I2
sV\u5c6c\u65bc
p1761
I5
sV\u653e\u5fc3
p1762
I1
sV\u9019\u9ebc\u591a
p1763
I1
sV...(1.7) oh ,_
p1764
I1
sV\u5c64\u9762
p1765
I4
sV\u539f\u56e0
p1766
I4
sV\u6253\u64ca\u529b
p1767
I3
sV\u7279\u8272
p1768
I3
sV= MRC>?/
p1769
I1
sVKTV.\u005c
p1770
I2
sV\u773c\u82b1
p1771
I1
sV...(TSK).
p1772
I1
sV\u6210\u7e3e
p1773
I1
sV\u5857\u5857
p1774
I1
sV\u5f7c\u6b64
p1775
I1
sV\u5712
p1776
I3
sV\u5b78\u671f
p1777
I6
sV\u9214
p1778
I1
sV\u5439\u5230
p1779
I1
sV\u6700\u591a
p1780
I6
sV\u8438\u82b3
p1781
I2
sV\u4e0a\u9580
p1782
I1
sV\u5f8c\u4f86
p1783
I37
sV\u5531
p1784
I4
sV\u78b0\u5230
p1785
I9
sV\u8f38\u6389
p1786
I1
sV]Q>.\u005c
p1787
I2
sV[1@@1]
p1788
I2
sV\u540c\u610f
p1789
I3
sV Q@>?/
p1790
I1
sV\u5730\u65b9
p1791
I19
sV\u89e3\u6c7a
p1792
I3
sV\u4f7f\u5f92
p1793
I1
sV\u654f\u611f
p1794
I3
sV\u4f48\u544a\u6b04
p1795
I1
sV\u8dd1\u904e\u4f86
p1796
I1
sV\u7070\u982d\u571f\u81c9
p1797
I1
sV\u5eb7
p1798
I2
sV\u751f\u547d\u529b
p1799
I1
sV...(H)Oh
p1800
I1
sV MRC>2].\u005c
p1801
I1
sV\u5927\u4e8c
p1802
I1
sV\u53ea\u597d
p1803
I2
sV\u82f1\u8cd3
p1804
I1
sV\u8932\u5b50
p1805
I2
sV\u2514mm.\u005c
p1806
I2
sV\u50f9\u503c\u89c0
p1807
I1
sV<x 
p1808
I15
sV\u81c9
p1809
I2
sV\u79c1\u5e95\u4e0b
p1810
I1
sV...(1.3)<F ey F>?/
p1811
I1
sV\u5012\u5c3e
p1812
I1
sV\u5929\u82b1\u677f
p1813
I1
sV\u89f8\u6bba
p1814
I2
sV\u4e09\u5e74
p1815
I3
sV\u62cd\u51fa\u4f86
p1816
I1
sV\u65b0\u5947
p1817
I1
sV\u56de\u994b\u7d66
p1818
I1
sV\u539f\u5148
p1819
I1
sV\u82b1\u6389
p1820
I1
sV\u5beb\u4e0a\u53bb
p1821
I2
sV\u767d\u75f4
p1822
I1
sV\u5144\u5f1f\u8c61
p1823
I4
sV\u4e00\u865f
p1824
I1
sV\u5c0f\u5b69\u5b50
p1825
I2
sV Hi>?/
p1826
I1
sVa    (0)
p1827
I1
sV\u6bba
p1828
I1
sV\u8ddf\u53bb
p1829
I1
sV\u689d
p1830
I20
sV\u5566
p1831
I176
sV\u7121\u804a
p1832
I2
sV\u898f\u5283
p1833
I1
sV\u53ea\u8981
p1834
I23
sV\u5bb6\u4eba
p1835
I2
sV\u60f3
p1836
I94
sV\u8077\u68d2
p1837
I5
sV(to Y)..
p1838
I1
sV\u5ba3\u9053
p1839
I2
sV\u76f4\u63a5
p1840
I8
sV\u767c
p1841
I4
sV\u6700\u597d
p1842
I4
sV\u5be2\u5ba4
p1843
I6
sV\u505a\u5c0d
p1844
I1
sV\u6751\u838a
p1845
I3
sV\u9700\u8981
p1846
I8
sV\u7aef\u838a
p1847
I1
sV...<T 
p1848
I13
sV\u5c0b
p1849
I1
sV\u8907\u96dc
p1850
I2
sV\u5169\u5e74
p1851
I3
sV\u5d07\u9ad8
p1852
I1
sV\u516b\u6a13
p1853
I4
sV\u7a7a\u767d
p1854
I1
sV\u6539\u5efa
p1855
I5
sV\u5e36\u904e
p1856
I1
sV\u6e05\u6dbc
p1857
I3
sV(0)(H)
p1858
I1
sV\u671d
p1859
I2
sV\u8aaa\u7d66
p1860
I1
sV\u9802\u591a
p1861
I3
sV\u98f2\u6599\u985e
p1862
I1
sV<Q aiyo ,_
p1863
I1
sV\u5931\u7720
p1864
I1
sV\u898f\u5247
p1865
I5
sV\u7403\u54e1
p1866
I6
sV\u5230\u8655
p1867
I2
sV\u6253\u7b97
p1868
I1
sV\u4e8c\u5c08
p1869
I1
sVNeN= ,_
p1870
I1
sV\u63a5\u89f8
p1871
I2
sV\u597d\u4e86
p1872
I13
sV\u884c
p1873
I3
sV\u5927\u4e00
p1874
I9
sV\u6709\u5f62
p1875
I1
sV\u5b0c\u5a9a
p1876
I1
sV\u5927\u4e09
p1877
I1
sV\u6253\u6703
p1878
I1
sV\u4e00\u500b\u6a23
p1879
I1
sV\u69cd\u6583
p1880
I2
sV\u4fc2
p1881
I1
sV\u9650\u5236
p1882
I2
sV\u5148\u751f
p1883
I9
sV\u76ae\u5305\u9aa8
p1884
I2
sV25
p1885
I1
sV[1Hh1].\u005c
p1886
I1
sV...(0.8)
p1887
I36
sV\u5c4b
p1888
I1
sV...(1)hm.\u005c
p1889
I1
sV\u897f\u9580\u753a
p1890
I6
sV(H),_
p1891
I2
sV\u524d\u5e74
p1892
I5
sV\u9053
p1893
I2
sV\u904e\u53bb
p1894
I5
sV\u6ce1\u9eb5
p1895
I7
sV\u5ea6
p1896
I2
sV Q>--
p1897
I2
sV\u800c\u5df1
p1898
I2
sV\u6c23\u5473
p1899
I1
sV\u88d8
p1900
I3
sV<T ^
p1901
I1
sV\u5e73\u5747
p1902
I1
sV[@@@@]
p1903
I1
sV\u5341\u865f
p1904
I1
sV\u60c5\u7dd2
p1905
I1
sV\u5ed6\u654f\u96c4
p1906
I1
sV.\u005c x>
p1907
I2
sV\u5206\u5272
p1908
I1
sV\u884c\u696d
p1909
I1
sV\u4e8c\u6280
p1910
I1
sVF>.\u005c
p1911
I7
sV\u6478\u53bb
p1912
I1
sV\u7169
p1913
I1
sV\u90e8
p1914
I10
sV\u5831\u5c0e
p1915
I4
sV\u9023\u7e8c
p1916
I4
sV\u771f\u5e73
p1917
I1
sV\u592a\u5c11
p1918
I1
sV(0)
p1919
I208
sV\u53ef\u80fd\u6027
p1920
I1
sV...<
p1921
I1
sV\u5916\u6587\u7cfb
p1922
I5
sV\u5979
p1923
I324
sV\u800c\u5df2
p1924
I18
sV\u5bb9\u6613
p1925
I25
sV...(2)(H)
p1926
I1
sV(0)[um].\u005c
p1927
I1
sV\u540c\u6027
p1928
I2
sV\u5f48\u56de
p1929
I1
sV\u6709\u9ede
p1930
I7
sV\u8089
p1931
I1
sV\u6108
p1932
I6
sV\u5de5\u4eba
p1933
I4
sVNonon1],_
p1934
I1
sV\u60f3\u4e0d\u5230
p1935
I1
sV<@ hoh @>,_
p1936
I1
sV<@ X
p1937
I1
sV..<Hi (Hx)Ha Hi>
p1938
I1
sV.. [XXXX]
p1939
I1
sV\u8005
p1940
I4
sV Hi>].\u005c
p1941
I1
sVho .\u005c
p1942
I1
sV.. or.\u005c
p1943
I1
sV...(2.8)
p1944
I3
sV...(1.1) XX
p1945
I1
sV\u7167\u9867
p1946
I1
sV\u7b49\u65bc
p1947
I3
sV\u6d17\u6fa1
p1948
I5
sV= X>,_
p1949
I1
sV\u4e0a\u74b0
p1950
I3
sV\u767e\u8ca8\u516c\u53f8
p1951
I4
sV\u5de5\u4f5c
p1952
I15
sV\u5370\u8c61
p1953
I6
sV..mm.\u005c
p1954
I26
sV\u4e00\u6ce2\u53c8\u8d77
p1955
I1
sV@> ,_
p1956
I1
sV\u773c
p1957
I4
sV\u8dd1\u4f86
p1958
I3
sV [2
p1959
I2
sV\u52a9\u6559
p1960
I1
sV\u4e2d\u6307
p1961
I2
sV...(2.5)<E I don't know E>,_
p1962
I1
sV\u540c\u5e74
p1963
I3
sV\u807d\u807d
p1964
I1
sV\u6148
p1965
I2
sV\u8aaa\u5230
p1966
I2
sV\u8aa4\u6bba
p1967
I1
sV\u5289\u5c0f
p1968
I2
sV\u751f\u75c5
p1969
I1
sV\u5831\u4e0a
p1970
I1
sV\u5be9\u5224
p1971
I1
sV\u9ec3\u88d5
p1972
I1
sV\u6210\u5c31\u611f
p1973
I3
sV\u62b1\u62b1
p1974
I3
sV X>,_
p1975
I5
sV\u52d5\u6a5f
p1976
I1
sV..mh 
p1977
I1
sV\u7246\u58c1
p1978
I3
sV\u5168
p1979
I12
sV\u526a
p1980
I2
sV...(5)
p1981
I2
sV\u694a\u7433
p1982
I2
sV<E full-time E>.\u005c
p1983
I1
sV\u5169
p1984
I77
sV\u5177\u9ad4
p1985
I1
sV\u804a\u5929
p1986
I9
sVXXXXXX
p1987
I1
sV\u6ce8\u91cd
p1988
I1
sV[2@@@2]
p1989
I2
sV\u7a7a
p1990
I1
sV\u9806\u8def
p1991
I2
sV\u4e0d\u9867
p1992
I1
sV\u4e82
p1993
I9
sV\u5167\u90e8
p1994
I2
sV.. e
p1995
I1
sV\u6240
p1996
I12
sVY>.\u005c
p1997
I1
sV\u5fc5\u8981
p1998
I1
sV\u5f8c
p1999
I7
sV(0) e=
p2000
I1
sV\u5411
p2001
I2
sV\u9032\u4f86
p2002
I3
sV\u7a00\u54e9\u5629\u5566
p2003
I1
sV...(1.1)[
p2004
I1
sV\u6fc0\u52d5
p2005
I1
sV\u4e09\u5341
p2006
I2
sV\u8a31\u5bb6\u99a8
p2007
I2
sV\u8abf\u67e5
p2008
I2
sV\u5b58\u5728
p2009
I1
sV\u6905\u5b50
p2010
I4
sV[Mn=],.\u005c
p2011
I1
sV\u7c21
p2012
I1
sV\u7da0
p2013
I10
sV\u704c\u7c43
p2014
I2
sVXXX
p2015
I1
sV\u4e2d
p2016
I15
sV\u5433\u6631\u9716
p2017
I1
sV\u88dc\u500b
p2018
I1
sV\u65b0
p2019
I6
sV\u5473\u5168
p2020
I10
sV\u5168\u7f8e
p2021
I2
sV\u716e\u597d
p2022
I1
sV\u7389\u83ef
p2023
I1
sV\u592d\u58fd
p2024
I1
sV.. [
p2025
I4
sV\u958b\u6a5f
p2026
I2
sV\u7528\u5730
p2027
I4
sV.. ^
p2028
I1
sV\u6210\u9f8d
p2029
I1
sV..  
p2030
I544
sV\u5b89\u6771\u5c3c
p2031
I3
sV\u6211
p2032
I932
sV\u5b89\u5b9a
p2033
I2
sV\u5f62\u8c61
p2034
I1
sV\u5c24\u5176
p2035
I6
sV\u559d\u6c34
p2036
I3
sV\u8077\u696d
p2037
I1
sV\u7403\u9580
p2038
I1
sV\u53ad\u5026
p2039
I1
sV\u767c\u708e
p2040
I1
sV ey T>?/
p2041
I1
sV\u807d\u5f97\u5230
p2042
I1
sVlah?/
p2043
I1
sV\u4ed4\u7d30
p2044
I7
sV...(0.9)<E gay E>.\u005c
p2045
I1
sV\u77e5\u89ba
p2046
I1
sVMTV
p2047
I1
sV\u6c27\u6c23
p2048
I1
sV\u4eba\u624d
p2049
I1
sV\u8b1b\u8a71
p2050
I17
sV\u5373\u4f7f
p2051
I3
sV[1@1][2@2]
p2052
I1
sV\u54e6
p2053
I146
sV\u6436\u904e\u53bb
p2054
I1
sV<xx>.\u005c
p2055
I1
sV\u8cb7\u5b8c
p2056
I1
sV...(1.1) 
p2057
I1
sV\u8e22\u4e0b
p2058
I1
sV\u8173
p2059
I6
sV\u53ea
p2060
I14
sV\u6bd4\u7387
p2061
I1
sV\u537f
p2062
I1
sV... (3.1) 
p2063
I1
sV\u4e00
p2064
I353
sV[1 
p2065
I1
sV..<Q 
p2066
I14
sV..hey
p2067
I2
sV\u6389
p2068
I8
sV\u4e0a\u6620
p2069
I1
sVJoky?/
p2070
I1
sV T>],_
p2071
I1
sVxx,_
p2072
I3
sV\u61c9\u6709
p2073
I1
sV\u8db3\u7403
p2074
I1
sV\u6709\u95dc\u4fc2
p2075
I2
sV(0) oh=oh.\u005c
p2076
I1
sV\u8a18
p2077
I2
sV[(Hx)(H)].\u005c
p2078
I1
sV\u5408\u7406
p2079
I2
sV<E morning call E>
p2080
I1
sV <E Jordan E>
p2081
I1
sV\u544a\u767c
p2082
I1
sV\u7de8\u8f2f\u5ba4
p2083
I1
sV\u7d22
p2084
I2
sV\u54a7
p2085
I2
sV\u73a9
p2086
I9
sV\u53cd\u800c
p2087
I4
sV\u8eab
p2088
I3
sV\u6cd5\u5716
p2089
I2
sV..(1.2)  <Hi 
p2090
I1
sV\u5728
p2091
I294
sV\u8a71\u984c
p2092
I4
sV\u56f0\u96e3
p2093
I6
sV\u82b3
p2094
I10
sV\u5b9a\u7fa9
p2095
I1
sV\u570b\u4e2d
p2096
I3
sV4
p2097
I2
sV\u622a\u7136\u4e0d\u540c
p2098
I3
sV\u4eca\u65e5
p2099
I1
sV\u96bb
p2100
I18
sV\u5148\u77e5
p2101
I3
sV\u5224\u932f
p2102
I1
sV\u4f4e\u6f6e
p2103
I1
sV\u4e0d\u7ba1
p2104
I8
sV\u5537
p2105
I1
sV\u6253\u597d
p2106
I1
sV\u62ff
p2107
I12
sV MRC>.\u005c
p2108
I7
sV\u96e3
p2109
I19
sV\u4e2d\u5348
p2110
I4
sV\u8239
p2111
I3
sV \u250c--
p2112
I1
sV\u6162
p2113
I2
sV\u71d5
p2114
I1
sV\u738b\u5efa\u7444
p2115
I1
sV Y>?/
p2116
I1
sV\u5f37\u8abf
p2117
I1
sV\u62ff\u7d66
p2118
I1
sVx>.\u005c
p2119
I5
sV..he 
p2120
I1
sV\u66dd\u9732
p2121
I3
sV\u4e0d\u5b89
p2122
I1
sV\u611f\u53d7\u5230
p2123
I1
sV\u60c5\u5f62
p2124
I7
sV\u544a\u8a34
p2125
I5
sV\u62f3
p2126
I1
sV\u707d\u5340
p2127
I1
sV=.\u005c
p2128
I26
sV...<x  
p2129
I1
sV F>,_
p2130
I2
sV\u5927\u6c34
p2131
I1
sV\u6975\u529b
p2132
I1
sV\u6309
p2133
I4
sV...(1.3)
p2134
I13
sV\u7d0d
p2135
I1
sV X> .\u005c
p2136
I2
sV...(4.3) ey
p2137
I1
sV\u5b9a\u9ede
p2138
I1
sV.. <@ aiyo @>.\u005c
p2139
I1
sV\u6771\u897f
p2140
I54
sV\u6e05\u695a
p2141
I16
sV.. um
p2142
I1
sV...(1)
p2143
I29
sV\u5916\u9762
p2144
I7
sV\u52dd\u904e
p2145
I2
sV\u5427
p2146
I33
sV[4XXX4]
p2147
I1
sV\u6771\u65b9
p2148
I1
sV\u671f
p2149
I2
sV\u984f\u745e\u5100
p2150
I2
sV\u5341\u842c
p2151
I1
sV..hey.
p2152
I1
sV\u6731
p2153
I5
sV\u8af8\u845b
p2154
I3
sV...<T ah 
p2155
I1
sV@>>?/
p2156
I1
sV Hi>,_
p2157
I2
sV..hey=
p2158
I1
sV\u6709\u7d66
p2159
I1
sV\u7403\u968a
p2160
I1
sV\u592a\u5e38
p2161
I1
sV] X>.\u005c
p2162
I1
sV\u5916\u570b
p2163
I1
sV..ey.
p2164
I1
sV...(3.5)
p2165
I4
sV\u9d28\u86cb
p2166
I1
sV\u57f9
p2167
I1
sV=(H)
p2168
I1
sV\u56b4\u91cd
p2169
I3
sV\u7576\u5834
p2170
I4
sV\u54ea\u4e9b
p2171
I1
sV...(1.5)
p2172
I13
sV_
p2173
I3
sV\u5de6\u624b
p2174
I1
sV(0)Nh.\u005c
p2175
I1
sV\u77a7
p2176
I2
sV\u5ed6
p2177
I2
sV(0) [
p2178
I1
sV\u5b50\u731b
p2179
I1
sV\u9818\u5c0e\u4eba
p2180
I1
sV@>--
p2181
I2
sV\u96e3\u8b1b
p2182
I1
sV=Hi],_
p2183
I1
sV\u9019\u9ebc\u5c11
p2184
I1
sV\u7f8e\u91d1
p2185
I1
sV\u767b
p2186
I1
sV\u7b97\u51fa
p2187
I1
sV\u4e0a\u9762
p2188
I9
sV\u73fe
p2189
I5
sV\u6703\u53cb
p2190
I5
sV\u7576\u7136
p2191
I9
sVNo
p2192
I6
sV\u525b\u525b
p2193
I10
sV...(0.9)
p2194
I13
sV\u64e0\u51fa\u4f86
p2195
I1
sV...(2.0)XX
p2196
I1
sV..<Hi ehn Hi>
p2197
I1
sV\u9a0e
p2198
I5
sV\u5b57\u5e55
p2199
I1
sV\u829d\u52a0\u54e5
p2200
I1
sV\u5927\u4e00\u7248
p2201
I1
sV\u76f8\u4fe1
p2202
I2
sV..Mh=
p2203
I1
sV\u96dc\u8a8c
p2204
I2
sV Q>,_
p2205
I4
sV\u5531\u6b4c
p2206
I5
sV\u985b\u5012
p2207
I1
sV..(TSK)
p2208
I12
sV\u5ba3
p2209
I5
sV...<Q 
p2210
I1
sV\u7d30\u7bc0
p2211
I2
sV\u555f\u667a
p2212
I1
sV..<x C 
p2213
I1
sV\u7626
p2214
I2
sV\u52a9
p2215
I1
sV\u6642\u5831
p2216
I1
sV X>] --
p2217
I1
sV\u9806\u4fbf
p2218
I1
sV\uff0eun
p2219
I1
sV\u6210\u70ba
p2220
I1
sV\u7260\u5011
p2221
I2
sV\u7b97\u9032
p2222
I1
sV\u4fca\u570b\u718a
p2223
I4
sV\u5e36
p2224
I17
sV\u641e\u4e0d\u597d
p2225
I11
sV\u653e\u9b06
p2226
I2
sV...(2.2)<@
p2227
I1
sV..xx
p2228
I3
sV\u96e3\u8aaa
p2229
I1
sV\u8ced\u8cc7
p2230
I3
sV...(1)[2
p2231
I1
sV@@@@@
p2232
I1
sV\u7528\u529b
p2233
I1
sV\u62c9
p2234
I7
sV1],_
p2235
I10
sV\u804a
p2236
I5
sV\u9999\u83c7
p2237
I3
sV\u8cb7\u4e0b\u4f86
p2238
I1
sV] --
p2239
I2
sV\u79cb\u862d
p2240
I1
sV..(2)
p2241
I1
sV\u5c0f\u6642\u5019
p2242
I3
sV\u8b58
p2243
I3
sV(0).. 
p2244
I1
sV\u7570\u6027
p2245
I2
sV\u6469\u6258\u8eca
p2246
I7
sVxx T>._
p2247
I1
sV\u6d88\u8cbb\u7248
p2248
I1
sV\u8b8a\u5927
p2249
I1
sV\u4e0a\u76f8
p2250
I1
sV\u90ed\u60e0
p2251
I1
sV.. NeN=.
p2252
I1
sV..(1.5)
p2253
I1
sV...(9.0) 
p2254
I1
sV\u8ced
p2255
I3
sV\u7238\u7238
p2256
I10
sV\u6fc0\u9032
p2257
I1
sV\u73fe\u6709
p2258
I2
sV].\u005c
p2259
I109
sV]._
p2260
I1
sV\u7af9
p2261
I1
sV\u5b78
p2262
I4
sV. <F
p2263
I1
sV\u8db3\u5920
p2264
I1
sV\u7a7a\u9592
p2265
I1
sV\u7a7a\u9593
p2266
I6
sV\u5f04\u5b8c
p2267
I1
sV(0) heN
p2268
I1
sV\u767c\u73fe
p2269
I12
sV\u6fc0\u70c8
p2270
I3
sVho.\u005c      ?
p2271
I1
sV\u5c0d
p2272
I588
sV\u7da0\u7da0
p2273
I1
sV(0)[2Nh=2].\u005c
p2274
I1
sVho--
p2275
I1
sV(0)Hh Hh.\u005c
p2276
I1
sV\u5dee\u8ddd
p2277
I1
sV\u6d17
p2278
I10
sV\u6e96
p2279
I3
sV\u6a19
p2280
I1
sV\u8faf\u8ad6
p2281
I2
sV[2Nh=2].\u005c
p2282
I1
sV\u5012\u662f
p2283
I1
sV\u611f
p2284
I4
sV\u8ab2\u7a0b
p2285
I1
sV...(2.9)
p2286
I5
sV\u5ba2\u89c0
p2287
I1
sVle].\u005c
p2288
I1
sV\u5229
p2289
I1
sV< Arkansas >
p2290
I1
sV x>?/
p2291
I2
sV...(2.2) 
p2292
I2
sV\u8b93\u7d66
p2293
I1
sV\u65e9\u5831
p2294
I1
sV[DODO].\u005c
p2295
I1
sV\u64b2
p2296
I1
sV\u986f\u793a
p2297
I2
sV\u706b\u8eca
p2298
I2
sV..you?/
p2299
I1
sV\u5ee3\u6771\u8a71
p2300
I2
sV\u4e00\u65b9
p2301
I1
sV...(1.0) ey ,_
p2302
I1
sVx @>.\u005c
p2303
I1
sVah.\u005c
p2304
I7
sV\u5927\u8d77
p2305
I1
sV\u6587\u5316
p2306
I1
sV\u5148\u5929\u4e0b\u4e4b\u6182\u800c\u6182
p2307
I1
sV...<E C E>[
p2308
I1
sV\u6587\u5b78
p2309
I2
sVts,_
p2310
I1
sV\u8003\u5b8c
p2311
I2
sV\u88dd\u749c
p2312
I1
sV\u540c\u6027\u6200
p2313
I12
sV\u68d2\u7403
p2314
I4
sV.. <@
p2315
I3
sVNonon,_
p2316
I3
sV\u6280\u8853
p2317
I3
sV\u5f48\u5409
p2318
I1
sV.. <X
p2319
I2
sV(0)Hn=.\u005c
p2320
I1
sV\u4ed6
p2321
I325
sV\u9ed8\u5951
p2322
I2
sV.. <Q
p2323
I4
sV\u5206\u914d
p2324
I1
sV..<@<F 
p2325
I1
sV[Nh].\u005c
p2326
I2
sV\u98db\u5230
p2327
I2
sV\u4fca\u5f65
p2328
I1
sV\u9999\u6e2f
p2329
I13
sV\u65b9\u5f0f
p2330
I2
sV\u51b0\u96f9
p2331
I3
sV\u53cd\u61c9
p2332
I5
sV\u862d\u99a8
p2333
I13
sV\u9084\u4e0d\u662f
p2334
I4
sV%--
p2335
I4
sV\u5225\u7684
p2336
I2
sV\u7b26\u5408
p2337
I1
sV\u5750\u4e0b
p2338
I1
sV\u6dd8\u6c70
p2339
I1
sV\u8afe
p2340
I2
sV\u547d
p2341
I1
sV\u6253\u64e6
p2342
I1
sV\u9000
p2343
I1
sV\u8a18\u904e
p2344
I3
sV\u5c31\u5750
p2345
I3
sV\u4e7e\u65f1
p2346
I2
sVY>?/
p2347
I2
sV\u773c\u93e1
p2348
I1
sV(0) hum.\u005c
p2349
I7
sV\u7709\u6bdb
p2350
I2
sV\u50ac
p2351
I1
sV\u65e2\u7136
p2352
I1
sV\u4e14
p2353
I1
sV\u804a\u804a\u5929
p2354
I1
sV\u6025\u8a3a
p2355
I1
sV-]
p2356
I6
sV\u9418
p2357
I1
sV..<F ha F>
p2358
I1
sV.... 
p2359
I3
sV\u5331\u4e4f
p2360
I1
sV\u5435
p2361
I5
sV 
p2362
I2
sVa    .. 
p2363
I2
sV\u7cfb\u5217
p2364
I3
sV\u8ab0
p2365
I51
sV\u7403\u8863
p2366
I2
sV[@@@].
p2367
I1
sV A>,_
p2368
I1
sV\u5927\u529b
p2369
I1
sV\u722c
p2370
I3
sV(to W)...
p2371
I1
sV\u807d\u4f86
p2372
I2
sV..<@ 
p2373
I26
sV\u6e1b\u80a5
p2374
I4
sV\u770b\u4e0d\u51fa\u4f86
p2375
I1
sV\u8438
p2376
I1
sV\u5206\u4eab
p2377
I5
sV\u8a3c
p2378
I1
sV\u745e\u82f1
p2379
I3
sV\u6ce1
p2380
I2
sVa     ..
p2381
I1
sV\u9644
p2382
I1
sV@@
p2383
I77
sV\u52d5
p2384
I9
sV\u4e09\u4e94
p2385
I1
sV..<@[
p2386
I1
sV\u8f03\u591a
p2387
I7
sV\u4e0d\u65b7
p2388
I2
sV\u7d30\u5bc6
p2389
I2
sV...(1.8)
p2390
I7
sV\u72d7
p2391
I30
sV..Un.\u005c
p2392
I1
sV\u8a9e\u8a00
p2393
I3
sV\u6d0b\u5c07
p2394
I2
sV\u795d\u798f
p2395
I1
sV\u4e2d\u7a0b
p2396
I1
sV @>
p2397
I1
sV\u6b64
p2398
I2
sV\u6191
p2399
I1
sV\u4ed6\u53bb
p2400
I1
sV\u67e5
p2401
I4
sV- 
p2402
I1
sV....[
p2403
I1
sV.. [hou=hou].\u005c
p2404
I1
sV\u914d\u5408\u5ea6
p2405
I2
sV\u6c68
p2406
I1
sV\u4f6a
p2407
I1
sV\u73ed
p2408
I15
sV\u8907\u8a3a
p2409
I2
sV\u64d4\u5fc3
p2410
I3
sV\u83dc\u9ce5
p2411
I1
sV\u5e74
p2412
I7
sV(Hx) @> --
p2413
I1
sV\u6478
p2414
I6
sV\u4e8b\u696d\u7dda
p2415
I2
sV\u6eff
p2416
I4
sV(H)<@
p2417
I1
sV\u5341
p2418
I4
sV\u7403
p2419
I31
sV...(1.5) <E O=^neal= E> ,_
p2420
I1
sV\u7684
p2421
I935
sV\u4e8b\u696d
p2422
I8
sV\u66f8\u9662
p2423
I4
sVC2&C3:..
p2424
I1
sV1]oh.\u005c
p2425
I1
sV\u8eca\u5b50
p2426
I1
sV\u5531\u5531\u6b4c
p2427
I3
sV\u9580\u8def
p2428
I3
sV\u65e9\u65e9
p2429
I1
sV\u5b38\u5b38
p2430
I1
sV\u8f15
p2431
I3
sV\u4e94
p2432
I5
sV\u5217
p2433
I1
sV\u745e
p2434
I3
sV\u62ff\u51fa
p2435
I1
sV\u7576\u6642
p2436
I1
sV\u5c0b\u4ec7
p2437
I1
sV\u7570
p2438
I1
sV\u9060\u898b
p2439
I2
sV\u5de5\u5177
p2440
I1
sV\u529f\u8ab2
p2441
I1
sV\u55ae
p2442
I1
sV\u4e4b\u9593
p2443
I4
sV\u56db\u9762
p2444
I1
sV\u62b1\u6028
p2445
I1
sV\u5f35
p2446
I5
sV...(1)(TSK)..
p2447
I1
sV\u724c\u5b50
p2448
I2
sVJocky].\u005c
p2449
I1
sV\u6539
p2450
I3
sV\u883b
p2451
I75
sV\u5012\u6389
p2452
I1
sV<F [
p2453
I1
sV\u76f8\u8655
p2454
I2
sV...(1)<MRC
p2455
I1
sV <E drive E> @> ,_
p2456
I1
sV\u540c\u5de5
p2457
I1
sV]@> ,_
p2458
I1
sV\u6563\u64ad
p2459
I1
sV\u4e3b\u5834
p2460
I1
sV\u514d
p2461
I1
sVK
p2462
I3
sV\u4fe1\u7fa9
p2463
I7
sV\u6d41\u884c
p2464
I1
sV\u80cc
p2465
I1
sVe=.\u005c
p2466
I3
sV\u7f8e\u570b
p2467
I11
sV1]?/
p2468
I3
sV...ey 
p2469
I1
sV\u7559
p2470
I1
sV\u6e96\u5099
p2471
I1
sV\u9ede\u5fc3
p2472
I1
sV\u8ced\u535a
p2473
I1
sV..ey [<
p2474
I1
sV\u6b63\u4e2d\u592e
p2475
I1
sV\u8a87\u5f35
p2476
I2
sV\u684c\u6905
p2477
I2
sV\u67d4\u5a9a
p2478
I2
sV\u64ca\u51fa
p2479
I3
sV\u5169\u6210
p2480
I2
sV\u7537\u820d
p2481
I4
sV\u52a9\u9078\u54e1
p2482
I1
sV\u6478\u4f86
p2483
I1
sV\u904e\u4f86
p2484
I8
sV\u6216\u8a31
p2485
I1
sV\u7c73
p2486
I2
sV\u7f75
p2487
I7
sV\u8f9b\u82e6
p2488
I1
sV\u8aaa\u4f86
p2489
I1
sV<@ <T ha..
p2490
I1
sV..<E cut cut E>,_
p2491
I1
sV..<Q 2
p2492
I2
sVJocky 
p2493
I1
sV\u6c92\u95dc\u4fc2
p2494
I9
sV\u5c0f\u6e2f
p2495
I2
sV\u88e1\u9762
p2496
I18
sV\u6392
p2497
I2
sV\u5176\u5be6
p2498
I77
sV\u9806
p2499
I1
sV\u90a3\u6a23
p2500
I8
sV\u5df2\u7d93
p2501
I43
sV\u5de8\u4eba\u968a
p2502
I1
sV<E range E>
p2503
I1
sV\u913a\u7f8e\u96f2
p2504
I1
sV..yi
p2505
I1
sV\u4e00\u822c
p2506
I8
sV\u767c\u89ba\u5230
p2507
I1
sV... haN?/
p2508
I1
sV...(1.4)
p2509
I16
sV\u4e00\u58d8
p2510
I5
sV\u6982\u8981
p2511
I1
sV\u80a1
p2512
I2
sV[oh] Hi>.\u005c
p2513
I1
sV\u9806\u624b
p2514
I1
sV..<E bye-bye E>.\u005c
p2515
I1
sV\u5144\u5f1f\u8c61\u968a
p2516
I1
sV 2],_
p2517
I2
sV...HaN?/
p2518
I1
sV\u5beb\u5230
p2519
I3
sV\u9eb5
p2520
I1
sV\u500b
p2521
I679
sV\u54c1\u8336
p2522
I1
sV[2Oh=2].\u005c
p2523
I1
sV\u512a\u79c0
p2524
I1
sV\u5f15\u8d77
p2525
I1
sV(to W) ..
p2526
I1
sV\u751a\u81f3
p2527
I2
sV]--
p2528
I52
sV<E sales E>
p2529
I1
sV\u628a
p2530
I54
sV\u96c5
p2531
I1
sV..Oh
p2532
I1
sV\u624b
p2533
I7
sV\u4e0d
p2534
I552
sV\u770b\u5f97\u51fa\u4f86
p2535
I2
sV\u4e1f\u81c9
p2536
I3
sV\u8ca0\u8cac
p2537
I7
sVxxxxx
p2538
I7
sV...(2.2)  ey-
p2539
I1
sV=],_
p2540
I5
sVho ,_
p2541
I1
sV\u95dc\u5fc3
p2542
I10
sV\u53d7
p2543
I4
sV [
p2544
I1
sV..hm hm.\u005c
p2545
I1
sV\u788e
p2546
I1
sV\u5169\u842c\u591a
p2547
I1
sV\u5b5c
p2548
I2
sV\u4f86\u904e
p2549
I1
sV\u5176\u5b83
p2550
I3
sV\u4e0b\u96e8
p2551
I14
sV\u60f3\u597d
p2552
I1
sV\u5dee\u932f
p2553
I1
sV\u89d2\u819c
p2554
I5
sV\u5b8c\u86cb
p2555
I3
sV\u5c07
p2556
I1
sV\u7562\u696d\u751f
p2557
I1
sV\u7f70\u9322
p2558
I3
sV...(7.0)ey
p2559
I1
sV\u8aaa\u4e0a
p2560
I1
sV\u75a4
p2561
I2
sV\u5c01\u6bba
p2562
I3
sV1]--
p2563
I5
sV\u6bd4\u8f03
p2564
I108
sV.. <@ 
p2565
I4
sV\u9001
p2566
I1
sV\u7b97\u4e86
p2567
I4
sV T>._
p2568
I3
sV\u66fe\u7d93
p2569
I7
sV\u5973\u751f
p2570
I12
sV\u666e\u904d
p2571
I1
sV\u4e2d\u5fc3
p2572
I10
sV\u914d\u642d
p2573
I1
sV\u51fa\u9580
p2574
I1
sV\u820d
p2575
I4
sV\u7ffb
p2576
I2
sV...(1.3) <T 
p2577
I1
sV\u53c8
p2578
I33
sV(0) um.\u005c
p2579
I6
sV...<F Jackie F>
p2580
I1
sV\u8eab\u9ad4
p2581
I4
sV\u4e00\u5b9a
p2582
I24
sV??\u005c
p2583
I1
sV\u8eab\u9ad8
p2584
I3
sV\u597d\u73a9
p2585
I7
sV\u4e09\u5343
p2586
I1
sV\u958b\u767c
p2587
I1
sV\u5019\u9078\u4eba
p2588
I1
sVxxxx
p2589
I5
sV\u61c9\u8a72
p2590
I30
sV\u5de5\u53cb
p2591
I5
sV\u540c\u5fd7
p2592
I1
sV\u5916\u8868
p2593
I1
sV\u5be6\u9a57\u5ba4
p2594
I3
sV\u722d
p2595
I1
sV\u7e73
p2596
I2
sV\u9032\u53bb
p2597
I10
sV\u5831
p2598
I1
sV\u7368\u6a39\u4e00\u683c
p2599
I2
sV\u771f\u6b63
p2600
I8
sV\u8a3c\u660e
p2601
I1
sV\u8208\u8da3
p2602
I5
sV\u516d\u6a13
p2603
I2
sV\u6392\u6389
p2604
I1
sVAky
p2605
I2
sV..<Hi ey Hi>
p2606
I2
sVKTV[
p2607
I1
sV\u5ba2\u6c23
p2608
I1
sV\u9019\u88cf
p2609
I4
sV T>
p2610
I8
sV\u50c5\u50c5
p2611
I1
sV\u7518\u8106
p2612
I1
sV<E expensve E>
p2613
I1
sV\u6240\u6709
p2614
I8
sV\u624d
p2615
I53
sV@>,_
p2616
I6
sV\u53e6\u5916
p2617
I11
sV\u6851
p2618
I1
sV\u501f\u904e
p2619
I3
sVho,-
p2620
I1
sV\u5f97\u9ad4
p2621
I1
sV...(0.9)[
p2622
I1
sV\u9ecf
p2623
I3
sV\u964c\u751f
p2624
I2
sV\u8607\u83c1\u6167
p2625
I1
sV\u5feb\u9ede
p2626
I1
sV\u719f\u4eba
p2627
I3
sV(0)[<
p2628
I1
sV\u5949\u737b
p2629
I11
sV\u5c0d\u65bc
p2630
I3
sV\u9019\u88e1
p2631
I14
sV\u8de8
p2632
I5
sV\u516b
p2633
I2
sV[hoN.
p2634
I1
sV\u6253\u8d77\u4f86
p2635
I1
sV\u7e8c
p2636
I1
sV\u716e\u98ef
p2637
I1
sV\u6a23\u5b50
p2638
I15
sV\u597d\u53cb
p2639
I1
sV\u5200
p2640
I3
sV..\u250c'
p2641
I1
sV(0) oh.\u005c
p2642
I2
sV\u5404
p2643
I5
sV...(1)<oh=>.\u005c
p2644
I1
sV\u7169\u60f1
p2645
I3
sV\u59ca
p2646
I1
sV\u800c
p2647
I8
sV\u9084\u53ef\u4ee5
p2648
I1
sV\u671f\u4e2d\u8003
p2649
I2
sV@>(Hx)@(H)@(Hx)@?/
p2650
I1
sV\u8d95
p2651
I1
sV...(0.9) 
p2652
I4
sVU.A:\u2514@@
p2653
I1
sV\u5beb\u4e0b\u4f86
p2654
I2
sV\u5546\u4e8b\u6cd5
p2655
I1
sVa   .. 
p2656
I1
sV\u5c0b\u6c42
p2657
I2
sV..Aky..
p2658
I1
sV..<Q hey
p2659
I1
sV[<L Jocky L>].\u005c
p2660
I1
sV\u4e8b\u60c5
p2661
I36
sV\u53cd\u5c0d
p2662
I3
sV\u689d\u78bc
p2663
I1
sV..  <T 
p2664
I8
sVoh].\u005c
p2665
I2
sV@@@].\u005c
p2666
I1
sVs--
p2667
I3
sV ho T>,_
p2668
I1
sV\u53ea\u6709
p2669
I11
sV\u2514@@
p2670
I5
sV\u65b0\u9ee8
p2671
I10
sV\u5929\u5802
p2672
I2
sV\u8cbf
p2673
I1
sV\u7d93\u904e
p2674
I3
sV\u57fa\u672c
p2675
I8
sV\u5ec1\u6240
p2676
I1
sV\u751f\u4f86
p2677
I1
sV\u75c5
p2678
I1
sV\u5f37
p2679
I12
sV\u5c0f\u6728\u5c4b
p2680
I2
sV2]
p2681
I14
sV...\u250c
p2682
I1
sV..un,_
p2683
I1
sV..Jackie=
p2684
I1
sVF>,_
p2685
I2
sV..[<@
p2686
I2
sV@>(H)@@@=,_
p2687
I1
sV\u85cd\u8272
p2688
I2
sV2][3
p2689
I1
sV\u5e6b\u5fd9
p2690
I1
sVNonon
p2691
I5
sV\u5cf6
p2692
I1
sV...(9.1)
p2693
I1
sV\u7cdf
p2694
I2
sV=]--
p2695
I2
sV\u8d0a\u6210
p2696
I1
sV\u958b\u9580
p2697
I1
sV\u8863\u670d
p2698
I2
sV\u958b\u958b
p2699
I1
sV((to H)) ....(1.4) 
p2700
I1
sV\u4e5f\u8a31
p2701
I4
sV...\u2514<F 
p2702
I1
sV\u770b\u770b
p2703
I12
sV\u51fa\u751f
p2704
I1
sVa     .. (H)
p2705
I1
sV\u7d2f\u7a4d
p2706
I2
sVla @>.\u005c
p2707
I1
sV\u5df1\u8eab
p2708
I1
sV\u7d81\u624b\u7d81\u8173
p2709
I1
sV..  hoN 
p2710
I1
sV\u6295\u7403
p2711
I4
sV\u4e16\u8cbf
p2712
I1
sV\u9ec3\u570b
p2713
I3
sV\u6240\u8b02
p2714
I3
sVxx.\u005c
p2715
I2
sV\u6bd4\u8cfd
p2716
I6
sV..  <@
p2717
I9
sV\u89d2\u8272
p2718
I4
sV\u4f11\u5b78
p2719
I2
sV..ti-
p2720
I1
sV\u7b77\u5b50
p2721
I3
sV\u7da0\u8272
p2722
I2
sV[2@@2]
p2723
I2
sV\u8dd1\u4f86\u8dd1\u53bb
p2724
I1
sV\u8f14\u52a9
p2725
I1
sV\u8d70\u5eca
p2726
I2
sV\u539f\u4f86
p2727
I5
sV\u5927\u9678\u793e
p2728
I1
sV\u6642\u523b
p2729
I1
sV..(0.9) 
p2730
I1
sVa    ..
p2731
I3
sV\u5f9e
p2732
I25
sVX>].\u005c
p2733
I1
sV\u672c\u6027
p2734
I2
sV..hun,_
p2735
I1
sV..<T hey,_
p2736
I1
sV\u8ac7\u5230
p2737
I1
sV\u516b\u767e\u516d\u5341\u5e7e
p2738
I3
sV\u7169\u71e5
p2739
I1
sV\u85cd\u5fc3\u6e44
p2740
I3
sV<F To To 
p2741
I1
sV\u639b\u865f
p2742
I1
sV\u5473\u9053
p2743
I1
sV\u53e3\u865f
p2744
I3
sV\u89c0\u5ff5
p2745
I2
sV..0[0]-
p2746
I1
sVoh Hi>.\u005c
p2747
I1
sV\u6559\u6703
p2748
I10
sV\u65b0\u53f0\u5e63
p2749
I1
sV\u67f1\u5b50
p2750
I2
sV...(2.0) 
p2751
I2
sV\u4ecb\u5165
p2752
I1
sV..<T hey 
p2753
I1
sV\u60c5\u6cc1
p2754
I4
sV\u81ea\u52d5\u5316
p2755
I1
sV\u7dca
p2756
I1
sV= 2] 
p2757
I1
sV MRC>,_
p2758
I2
sV(0)Mh=.\u005c
p2759
I1
sVx>,_
p2760
I1
sV\u89d2
p2761
I1
sV\u53d6
p2762
I3
sV\u82b1\u7d0b
p2763
I1
sV\u55da
p2764
I1
sVe.\u005c
p2765
I1
sV\u96e3\u770b
p2766
I2
sV.. e,_
p2767
I1
sV\u540c\u4e00
p2768
I1
sV\u4e0d\u6703
p2769
I69
sV\u4f69
p2770
I3
sV\u7a0b\u5b78\u7fa9
p2771
I1
sV\u6eab\u99a8
p2772
I4
sV\u516d
p2773
I13
sV\u56db\u6210\u516d
p2774
I5
sV\u77ee
p2775
I3
sV\u73bb\u7483
p2776
I4
sV\u7403\u5b63
p2777
I1
sV\u5e73
p2778
I1
sV\u4eca\u5929
p2779
I45
sV\u96c5\u7dfb
p2780
I2
sV\u6eab\u99b4
p2781
I1
sV\u66f8
p2782
I9
sV\u597d\u50cf
p2783
I81
sV\u5370\u51fa\u4f86
p2784
I1
sV\u8b66\u89ba\u5230
p2785
I1
sV..[xx]
p2786
I1
sV<E morning call E> ,_
p2787
I1
sV\u8001\u95c6
p2788
I5
sV.. [2<MRC 
p2789
I1
sV\u5fc5\u9700
p2790
I1
sV\u660e
p2791
I1
sV\u5929\u5929
p2792
I2
sV\u7d71\u4e00
p2793
I4
sV\u53ea\u662f
p2794
I23
sV..  X.
p2795
I1
sV\u6d17\u982d\u9aee
p2796
I1
sV..(1.2)
p2797
I1
sV...(7)
p2798
I1
sV\u5718
p2799
I2
sV\u4e3b\u5be9
p2800
I2
sV\u591c
p2801
I3
sV\u4f86\u5230
p2802
I2
sV(to L) ...(3.1)
p2803
I1
sV..[(H)
p2804
I1
sV\u8209\u51fa
p2805
I1
sV\u64a5
p2806
I2
sV\u4e09\u865f
p2807
I2
sV\u9019\u6a23
p2808
I143
sV<E routine E>
p2809
I1
sV..Ha?/
p2810
I1
sV\u4e0a\u8ab2
p2811
I3
sV\u6b78
p2812
I1
sV\u5341\u4e8c\u9ede
p2813
I3
sVX>
p2814
I4
sV\u516c\u5e73
p2815
I1
sV\u6691\u5047
p2816
I3
sV\u8ca1\u529b
p2817
I1
sV\u84bc\u8805
p2818
I1
sV\u5340
p2819
I2
sV[(H)
p2820
I1
sV\u51b7
p2821
I6
sV[Hi
p2822
I1
sV\u5f48
p2823
I5
sV\u8a18\u8005
p2824
I11
sV\u611f\u67d3
p2825
I1
sV\u58de\u8655
p2826
I1
sV\u8a18\u9304
p2827
I3
sV\u5dee\u5225
p2828
I1
sV\u80fd\u4e0d\u80fd
p2829
I2
sV(0) UNH.\u005c
p2830
I1
sVXX
p2831
I5
sVoh= ,_
p2832
I1
sV.. he=a= ,_
p2833
I1
sV...(3.3)
p2834
I3
sV\u6c92\u6709\u7528
p2835
I3
sV\u6728\u982d
p2836
I1
sV\u6574\u7406
p2837
I1
sV.. [3<Hi
p2838
I1
sV\u8070\u660e
p2839
I6
sV\u6b7b\u6389
p2840
I1
sV\u5916\u8a9e
p2841
I1
sV...(1.7)
p2842
I6
sV\u9580\u53e3
p2843
I1
sV@@@(H)(H),_
p2844
I1
sV..\u250c
p2845
I13
sV\u59ca\u59b9
p2846
I4
sV\u8a66
p2847
I1
sV\u76f4\u89ba
p2848
I1
sV\u5967\u904b
p2849
I3
sV\u53eb
p2850
I59
sV\u570b\u5c0f
p2851
I1
sV\u8ca0\u64d4\u5f97\u8d77
p2852
I1
sV\u55ef
p2853
I33
sVxx]--
p2854
I1
sV\u9806\u53e3
p2855
I1
sV\u7cfb
p2856
I12
sV\u9ad2\u4e82
p2857
I1
sV\u6276
p2858
I3
sV\u5927\u91cf
p2859
I1
sV\u62bd\u8c61
p2860
I1
sV\u5f04\u5230
p2861
I1
sV..[@@
p2862
I1
sV] ,_
p2863
I6
sV] X> ?/
p2864
I1
sV\u5435\u67b6
p2865
I1
sV\u96d9\u91cd
p2866
I1
sV\u6a02\u5712
p2867
I1
sVkuai.\u005c
p2868
I1
sV...(0.9)(Hx)<@
p2869
I1
sV\u5f88
p2870
I319
sV\u50f9\u9322
p2871
I1
sV\u650f
p2872
I1
sV\u8a13\u7df4
p2873
I8
sV\u5fd8\u8a18
p2874
I5
sV\u6253\u4e0b\u4f86
p2875
I3
sV\u62c9\u6210
p2876
I2
sV\u6d77\u5831
p2877
I2
sV\u7d04\u514b\u590f
p2878
I2
sV\u5982\u679c
p2879
I53
sV\u5c11\u4e00\u9ede
p2880
I1
sV\u597d\u4e0d\u597d
p2881
I7
sV\u67d0\u67d0\u4eba
p2882
I1
sV\u6b21\u8981
p2883
I1
sV\u8d95\u56de
p2884
I1
sV\u4e0d\u6642
p2885
I1
sV[Hh Hh Hh].\u005c
p2886
I1
sV..<xxx 
p2887
I1
sV\u7a31
p2888
I1
sV\u96f2
p2889
I1
sV\u6253\u96fb\u8a71
p2890
I5
sV\u61f7\u7591
p2891
I2
sV ,_
p2892
I169
sV.. <A 
p2893
I1
sV\u624b\u52e2
p2894
I2
sV\u81a8\u8139
p2895
I1
sV\uff0e^
p2896
I3
sV..un-
p2897
I1
sV\u6578\u5b78\u7cfb
p2898
I4
sV\u90a3\u88e1
p2899
I18
sV\u554f\u984c
p2900
I38
sV\u6dd1\u60e0
p2901
I1
sV\u68d2
p2902
I4
sV\u6d17\u81c9
p2903
I2
sV\u8f49\u5f4e
p2904
I1
sV\u5b83\u5011
p2905
I2
sV..hey.\u005c
p2906
I1
sV\u75d5\u8de1
p2907
I1
sV\u5beb\u4e0d\u51fa
p2908
I2
sV\u9ede
p2909
I9
sV\u5371\u96aa
p2910
I4
sV\u90a3\u88cf
p2911
I4
sV\u592a\u5e73\u5929\u570b
p2912
I1
sV<E ^message E>,_
p2913
I1
sV\u518d\u4e0d\u7136
p2914
I1
sV\u9b3c\u795e
p2915
I1
sV\u4ed6\u5011\u5006
p2916
I1
sV...<A 
p2917
I1
sV],_
p2918
I46
sV\u6253\u64ca
p2919
I1
sV\u4e00\u6ce2\u672a\u5e73
p2920
I1
sV[XXXXXXX] ,_
p2921
I1
sV\u6d0b\u6295
p2922
I2
sV\u59ca\u592b
p2923
I1
sV\u6cd5
p2924
I1
sV..hm=,_
p2925
I1
sV\u64fa
p2926
I2
sV<E BBS E>
p2927
I2
sV\u6efe
p2928
I3
sV\u8868\u793a
p2929
I1
sVHi>?/
p2930
I1
sV...<@
p2931
I2
sV\u6574\u5408
p2932
I1
sV\u5b89\u6253
p2933
I14
sV\u8faf\u89e3
p2934
I1
sV\u660c
p2935
I3
sV\u8154
p2936
I1
sV[0]01.127
p2937
I1
sV\u96d9
p2938
I2
sV\u6cc1\u4e14
p2939
I1
sV\u804a\u804a
p2940
I1
sV\u5e78\u597d
p2941
I1
sV\u570b\u5167
p2942
I1
sV\u4eba\u5bb6
p2943
I39
sV\u623f\u5b50
p2944
I2
sV\u72fc\u72ac
p2945
I1
sV\u7e5e\u4f86\u7e5e\u53bb
p2946
I1
sV\u63a5
p2947
I8
sV\u6cd5\u5b78\u9662
p2948
I2
sV\u5feb\u6a02
p2949
I1
sV\u6a5f\u6703
p2950
I5
sV\u5c40\u90e8
p2951
I2
sV\u56db\u9762\u516b\u65b9
p2952
I1
sV\u5962\u4f88
p2953
I1
sV\u72af
p2954
I2
sV\u5f37\u70c8
p2955
I1
sV\u5fb5\u53ec
p2956
I1
sV\u5065\u5168
p2957
I4
sV\u6efe\u5730\u7403
p2958
I1
sV\u4e09\u767e\u591a
p2959
I2
sV\u88dd\u6f62
p2960
I2
sV\u963b\u64cb
p2961
I6
sV\u4e0a\u73ed\u65cf
p2962
I1
sV\u727d\u626f\u5230
p2963
I2
sV(0)Nomy,_
p2964
I1
sV\u4e8b
p2965
I22
sV\u77e5\u9053
p2966
I105
sV\u5440
p2967
I39
sV\u7fa4\u96c6
p2968
I1
sV\u7bc0\u7701
p2969
I1
sV...eh
p2970
I2
sV-- X>.
p2971
I1
sV\u84cb
p2972
I1
sV\u5b78\u6821
p2973
I8
sV\u8981\u4e0d
p2974
I3
sV\u6295\u5230
p2975
I2
sV\u5f85\u6703
p2976
I1
sV\u8dd1
p2977
I10
sV\u5c31
p2978
I501
sV\u8aaa\u597d
p2979
I1
sV...ey
p2980
I1
sV\u8d85\u7d1a
p2981
I3
sV...ho.\u005c
p2982
I1
sV(0) heN.
p2983
I1
sV\u611f\u60c5
p2984
I9
sV MRC>
p2985
I1
sV[he=]
p2986
I1
sV...oh.\u005c
p2987
I1
sV\u795e
p2988
I11
sV\u64e6\u6b50
p2989
I2
sV\u70cf\u96f2
p2990
I4
sV\u649e\u5230
p2991
I2
sV\u570b\u6c11\u9ee8
p2992
I3
sV<E Packman E>X
p2993
I1
sV\u597d\u68d2
p2994
I2
sV\u5e55\u50da
p2995
I1
sV\u4fdd\u8a3c
p2996
I1
sV\u67b6\u69cb
p2997
I2
sV\u5927\u56db
p2998
I2
sV...(1.1)mm=,_
p2999
I1
sV\u716e
p3000
I5
sV\u5df1
p3001
I1
sV(0)oh 
p3002
I1
sV\u4e0a\u8def
p3003
I4
sV\u250c--
p3004
I1
sVF>].\u005c
p3005
I2
sV\u8a2d\u9632
p3006
I1
sV\u7c3d\u540d
p3007
I1
sV\u5c0f\u59d0
p3008
I6
sV\u8ffd
p3009
I1
sV..(1.1) 
p3010
I1
sV\u96e2\u5a5a
p3011
I1
sV\u6069\u5178
p3012
I1
sV\u9003
p3013
I1
sV\u52dd\u7e3e
p3014
I2
sV\u5305
p3015
I3
sV\u81ea
p3016
I3
sV\u773c\u7dda
p3017
I1
sV\u600e\u6a23
p3018
I19
sV\u670d
p3019
I1
sVho x>?/
p3020
I1
sV][
p3021
I1
sV\u516c
p3022
I2
sV\u8001\u670b\u53cb
p3023
I1
sV= --
p3024
I1
sV\u51fa\u73fe
p3025
I1
sV%,_
p3026
I3
sV.. oh=
p3027
I1
sV\u5098
p3028
I1
sV\u7d44\u7e54
p3029
I2
sV<E BBS E>,_
p3030
I1
sV\u8cf4\u5b88\u6b63
p3031
I1
sV\u4e00\u842c\u591a
p3032
I2
sV...(15)
p3033
I1
sV\u56de\u53bb
p3034
I1
sV\u4e00\u518d
p3035
I1
sV\u6709
p3036
I464
sVhey,_
p3037
I1
sV\u9810\u5099
p3038
I3
sV\u6230\u7e3e
p3039
I1
sV\u6b4c\u624b
p3040
I2
sV\u771f\u662f
p3041
I3
sV\u534a
p3042
I17
sV\u4f48\u7f6e
p3043
I2
sV\u7403\u8cfd
p3044
I1
sV\u6253\u6383
p3045
I3
sV\u8212\u670d
p3046
I5
sV\u751f\u6c23
p3047
I2
sV\u7d93\u7531
p3048
I1
sV\u5f9e\u982d
p3049
I1
sV\u54c0
p3050
I1
sV\u7559\u4e0b
p3051
I2
sV\u8868\u73fe
p3052
I6
sV\u5fa9\u767c
p3053
I1
sV\u5c31\u7b97
p3054
I7
sV\u807d\u5f97\u61c2
p3055
I1
sV1] .\u005c
p3056
I1
sV[2 
p3057
I2
sV\u6c92\u6cd5\u5ea6
p3058
I2
sV\u5927\u9678
p3059
I2
sV(0) <Hi ey.ey.ey Hi> ,_
p3060
I1
sV\u6d41\u6c57
p3061
I1
sV\u6c11\u4ee5\u98df\u70ba\u5929
p3062
I1
sV\u500b\u4eba
p3063
I4
sV\u4e00\u9ede
p3064
I35
sV\u5f9e\u4f86
p3065
I7
sV\u64e0
p3066
I2
sV\u6559\u5e2b
p3067
I9
sV\u5beb\u4e0b\u53bb
p3068
I1
sV<X 
p3069
I11
sV\u53ef\u4ee5
p3070
I106
sV\u770b\u5b88
p3071
I1
sV(to a girl)    [
p3072
I1
sV\u526f
p3073
I12
sV\u660f\u5012
p3074
I1
sV\u5c0f\u7d44
p3075
I5
sV\u5341\u5e74
p3076
I4
sV\u611f\u6069
p3077
I1
sV]-
p3078
I17
sV\u8001\u7238
p3079
I3
sV\u5e7e
p3080
I29
sV\u4e7e\u8106
p3081
I3
sV\u5341\u5e7e
p3082
I1
sV\u66ab\u6642
p3083
I1
sV\u5d11\u66f2
p3084
I3
sV\u9304
p3085
I6
sV\u7dda\u4e0a
p3086
I1
sV\u5b78\u696d
p3087
I1
sV\u7c43\u7403
p3088
I6
sV<E gesture E>.\u005c
p3089
I1
sV<H 
p3090
I1
sVA&B:..ha?/
p3091
I1
sV\u8aaa\u8a71
p3092
I3
sV\u638f
p3093
I1
sV\u600e
p3094
I3
sV\u7533\u8acb
p3095
I1
sV\u4e0d\u80fd
p3096
I28
sV..<@\u250c
p3097
I1
sV\u4fdd\u8b49
p3098
I7
sV(0) [eN 
p3099
I1
sV\u6210\u672c
p3100
I1
sV\u6aaf\u5b50
p3101
I1
sV\u58d3\u529b
p3102
I8
sV\u4ea4
p3103
I1
sV\u4fdd\u8b77
p3104
I2
sV\u751f\u529b\u9eb5
p3105
I1
sV\u8003\u616e
p3106
I6
sV\u8f09\u6eff
p3107
I1
sV\u8072\u97f3
p3108
I2
sV\u56de\u5230
p3109
I1
sV.. XXXXXX.\u005c
p3110
I1
sV\u64e0\u6389
p3111
I1
sV\u9054\u52d2
p3112
I1
sV\u9810\u8a00
p3113
I3
sV\u7121\u610f\u7fa9
p3114
I1
sV\u591a\u5c11
p3115
I5
sV\u59b3
p3116
I268
sV\u9762\u524d
p3117
I2
sV\u5ba2\u4eba
p3118
I3
sV\u6436
p3119
I2
sV@@@
p3120
I61
sV\u89d2\u843d
p3121
I2
sV\u7d00
p3122
I1
sV\u4f3c
p3123
I1
sV\u597d\u770b
p3124
I11
sV(0)<Hi ey Hi>
p3125
I1
sV\u63d0\u5230
p3126
I3
sV\u8cb7
p3127
I21
sV\u516c\u8eca
p3128
I3
sV\u8302\u91ce
p3129
I1
sV\u65b0\u805e
p3130
I4
sV\u8cfa\u9322
p3131
I3
sV\u7b52\u5b50
p3132
I1
sV..<@Jocky Jocky @>.\u005c
p3133
I1
sV...(4)
p3134
I2
sVF>.
p3135
I1
sV\u5f65
p3136
I2
sV\u8f03\u5c11
p3137
I2
sV\u985e
p3138
I2
sV\u6709\u610f\u601d
p3139
I4
sV\u7f3a\u4e4f
p3140
I1
sV\u7121\u5948
p3141
I1
sV..<Q eh
p3142
I1
sV\u5728\u4e16
p3143
I1
sV\u9f13
p3144
I1
sV\u53ef
p3145
I6
sV..(H)@@@
p3146
I1
sV\u9664\u975e
p3147
I8
sV\u60f3\u60f3
p3148
I4
sV..<T hey
p3149
I2
sV..[(H)@@@]
p3150
I1
sV...(0.86)(H)
p3151
I1
sV\u6574\u7406\u51fa
p3152
I1
sV\u5f37\u66b4\u6848
p3153
I1
sV\u96c5\u5a77
p3154
I1
sV\u7562\u7adf
p3155
I1
sV\u4efd
p3156
I11
sV\u7d44\u5224
p3157
I1
sV\u5207
p3158
I2
sV\u5f88\u591a
p3159
I51
sV\u9580
p3160
I7
sV\u9752\u5c11\u5e74
p3161
I1
sV\u5dee\u4e00\u9ede
p3162
I1
sV\u719f\u6089
p3163
I1
sV?/s
p3164
I1
sV\u5f90\u8c9e\u7f8e
p3165
I1
sV\u5927\u773e
p3166
I1
sV\u5f35\u5c0f\u8679
p3167
I1
sV\u6c11
p3168
I1
sV\u590f\u6d1b\u7279
p3169
I1
sV\u6027\u5225
p3170
I1
sV\u516c\u725b\u968a
p3171
I2
sV\u5509\u5537
p3172
I1
sV...(3.2)
p3173
I3
sV\u9019
p3174
I320
sV... <@ 
p3175
I1
sVNo@>2].\u005c
p3176
I1
sV\u6709\u6642
p3177
I3
sV\u9f9c
p3178
I1
sV\u81ea\u5f9e
p3179
I2
sV\u8b1b\u5230
p3180
I2
sV\u751f\u6d3b
p3181
I7
sV\u96e3\u904e
p3182
I1
sV(0)[Hun=].\u005c
p3183
I1
sV\u67d0\u67d0
p3184
I1
sV\u4eca\u5e74
p3185
I17
sV\u9762\u5c0d
p3186
I9
sV\u716e\u6162
p3187
I1
sV\u8aaa
p3188
I319
sV\u7bc0\u76ee
p3189
I3
sV\u932f
p3190
I19
sV\u4e1f\u5230
p3191
I2
sV\u90a3\u4e9b
p3192
I9
sV\u5831\u7d19
p3193
I3
sV\u53f2
p3194
I2
sV...(0.84)
p3195
I3
sV\u6709\u4e00\u9ede\u9ede
p3196
I2
sV\u9b91\u79c9
p3197
I1
sV\u6d3b
p3198
I5
sV=2] F>.\u005c
p3199
I1
sV..<x 
p3200
I15
sV\u4f4d\u5b50
p3201
I6
sV\u5143
p3202
I1
sV\u53bb\u53bb
p3203
I1
sV\u5361\u5728
p3204
I3
sV\u767c\u89ba
p3205
I3
sV<x
p3206
I1
sV(0)[oh=].\u005c
p3207
I1
sV\u6bd4
p3208
I25
sV\u6210\u7acb
p3209
I3
sV\u91d8
p3210
I3
sV\u8b20\u8a00
p3211
I2
sV\u58de
p3212
I4
sV...(1.6)
p3213
I7
sV..[1
p3214
I5
sV<T
p3215
I1
sV\u6cd5\u5f8b\u7cfb
p3216
I5
sV\u8655\u5206
p3217
I2
sV<Q
p3218
I5
sV\u500b\u4f8b
p3219
I3
sV\u756b
p3220
I5
sV<X
p3221
I2
sV<Y
p3222
I1
sV MRC>F>.\u005c
p3223
I1
sV\u5973
p3224
I19
sV\u9084\u597d
p3225
I13
sV(0) <MRC 
p3226
I1
sV<@
p3227
I20
sV\u61f8
p3228
I1
sV\u540d\u661f
p3229
I1
sV..m
p3230
I1
sV\u88dd\u98fe
p3231
I1
sV T>,_
p3232
I15
sV\u5927\u5bb6
p3233
I43
sV\u5b89
p3234
I4
sV\u51fa\u5165
p3235
I1
sV\u990a
p3236
I32
sV\u6210\u719f
p3237
I1
sV\u8a02
p3238
I1
sV..x
p3239
I1
sV\u963f\u82b3
p3240
I8
sV..um.
p3241
I1
sV\u4e0a\u4f86
p3242
I5
sV\u5718\u5951
p3243
I2
sVbah ,_
p3244
I1
sV\u770b\u597d
p3245
I1
sV\u5c40\u52e2
p3246
I1
sV\u5728\u4e00\u584a
p3247
I1
sV\u512a\u9ede
p3248
I1
sV=@> ,_
p3249
I1
sV\u8aa0\u61c7
p3250
I1
sV\u5f37\u52c1
p3251
I1
sV\u5c0d\u65b9
p3252
I7
sVMRC>.\u005c
p3253
I1
sV\u5e45\u5ea6
p3254
I1
sVMRC>
p3255
I1
sV..^
p3256
I23
sV\u6d32\u5b50\u7063
p3257
I1
sV\u6d3b\u52d5
p3258
I2
sV..[
p3259
I32
sV\u5834
p3260
I28
sV\u597d\u5403
p3261
I2
sV..eh
p3262
I3
sV=1] ,_
p3263
I1
sV'<Q 
p3264
I1
sV[1<Hi HaHn Hi>1]?/
p3265
I1
sVse.\u005c
p3266
I1
sV\u8a18\u5927\u904e
p3267
I1
sV...
p3268
I657
sV(to a student)  [
p3269
I1
sV\u6d29\u9732
p3270
I1
sV\u770b\u6cd5
p3271
I5
sV\u5403\u4e0d\u6d88
p3272
I1
sV\u5abd\u5abd
p3273
I19
sV\u86cb
p3274
I2
sV\u6211\u4eba
p3275
I2
sV\u85cd
p3276
I2
sV\u6311\u8cfc
p3277
I1
sV\u8fd1
p3278
I7
sV\u5b78\u7fd2
p3279
I2
sV\u5206\u88c2
p3280
I1
sV..<
p3281
I1
sV\u82f1\u96c4
p3282
I1
sV\u7834\u6389
p3283
I2
sV\u6d17\u4e7e\u6de8
p3284
I2
sV\u8eab\u4efd
p3285
I1
sV\u98df
p3286
I3
sV @> ,_
p3287
I1
sV>._
p3288
I1
sV T> @>,_
p3289
I1
sV>.\u005c
p3290
I2
sV\u5c0f\u770b
p3291
I1
sV\u600e\u9ebc\u8fa6
p3292
I13
sV\u623f\u9593
p3293
I1
sV\u6709\u8acb
p3294
I1
sV\u7121\u8f9c
p3295
I1
sV\u5927\u5b78\u6cd5
p3296
I1
sV. x>
p3297
I1
sV\u67e5\u5f97
p3298
I1
sV\u4f5c\u696d
p3299
I15
sV\u5426\u8a8d
p3300
I1
sV\u8a0e\u8ad6
p3301
I19
sV\u4f46\u662f
p3302
I42
sV\u6241
p3303
I1
sV@>@@=,_
p3304
I1
sV\u9084
p3305
I121
sV\u5e7e\u5341\u5e74
p3306
I1
sV\u60a8\u597d
p3307
I4
sV\u63d0\u51fa
p3308
I6
sV\u6a5f\u52d5
p3309
I1
sV..<x
p3310
I4
sV\u6d88\u8017
p3311
I1
sV\u8c6c
p3312
I9
sV\u4f11
p3313
I1
sV\u6709\u6548
p3314
I1
sV\u6a13
p3315
I2
sV\u7d93\u5e38
p3316
I1
sV\u503c\u9322
p3317
I1
sV\u7d71\u5408
p3318
I1
sV(0)hmm.\u005c
p3319
I4
sVoh 2],_
p3320
I1
sV\u89c0\u5bdf
p3321
I3
sVhoN ,_
p3322
I3
sV= ,_
p3323
I28
sV\u8abf\u67e5\u8868
p3324
I2
sV\u7ffb\u51fa\u4f86
p3325
I1
sV..<Q
p3326
I2
sV\u8fa6
p3327
I4
sV\u88ab\u8feb
p3328
I1
sV\u6a6b\u6728
p3329
I1
sV..<X
p3330
I2
sV..<Y
p3331
I1
sV\u5144\u5f1f\u968a
p3332
I3
sV..<F
p3333
I3
sV..<@
p3334
I35
sV..<E Pig No E>.\u005c
p3335
I1
sV\u559c\u6b61
p3336
I35
sV\u4e3b
p3337
I4
sV\u5169\u4e09\u5e74
p3338
I1
sV\u5b78\u8aaa
p3339
I1
sV@ Q>?/
p3340
I1
sVA.B.W:@@@
p3341
I3
sV[^
p3342
I2
sV\u55ae\u4f4d
p3343
I2
sV\u66f4\u66ff
p3344
I1
sV\u7b49
p3345
I9
sV..Aky,_
p3346
I1
sV.. [2
p3347
I2
sV\u6293\u5230
p3348
I3
sV\u53e4\u8463
p3349
I2
sV\u7a7a\u6c23
p3350
I3
sV\u5f37\u5236
p3351
I1
sV\u982d\u8166
p3352
I1
sV\u6297\u62d2
p3353
I1
sV\u4e0d\u5b9c
p3354
I1
sV\u91ab\u751f
p3355
I2
sVho.\u005c
p3356
I12
sVho._
p3357
I1
sV\u66f4\u5c11
p3358
I1
sV(TSK)..
p3359
I1
sV\u95dc\u61f7
p3360
I1
sV\u63d0\u9192
p3361
I2
sV...(14)
p3362
I1
sV\u65e2
p3363
I2
sV\u63d0\u4f9b\u7d66
p3364
I1
sV\u5531\u8d77
p3365
I1
sV\u7206\u767c\u51fa\u4f86
p3366
I1
sV\u9ec3\u8702\u968a
p3367
I1
sV(0)[<@
p3368
I1
sV\u8a18\u8005\u6703
p3369
I1
sV Q>
p3370
I1
sV\u5df2
p3371
I3
sV=?/
p3372
I4
sV\u53f0\u5927
p3373
I10
sV\u6c11\u751f\u5831
p3374
I1
sV\u958b\u8eca
p3375
I4
sV\u98db\u51fa\u53bb
p3376
I2
sV\u9694\u58c1
p3377
I3
sV..<C 
p3378
I2
sV\u7267\u9577
p3379
I1
sV(0) hm.\u005c
p3380
I2
sV..[1<@
p3381
I1
sV\u6aa2\u67e5
p3382
I1
sV\u50b3\u9053
p3383
I1
sV\u683c\u8abf
p3384
I1
sV\u54fc\u54fc
p3385
I1
sV\u7a81\u7136
p3386
I5
sV\u250c
p3387
I35
sV\u5e2b\u6bcd
p3388
I1
sV\u50b3\u9054
p3389
I1
sV\u8b93
p3390
I27
sV(0)mh.\u005c
p3391
I8
sV\u80fd\u529b
p3392
I5
sV\u5616
p3393
I3
sV\u6295\u5165
p3394
I1
sV\u7d71\u8a08
p3395
I2
sV...Ha=
p3396
I1
sV\u5831\u544a
p3397
I8
sV\u5f35\u6587\u5b97
p3398
I2
sV\u597d\u7528
p3399
I1
sVyou.
p3400
I1
sV... < Q @ 
p3401
I1
sV\u6240\u6709\u4eba
p3402
I1
sV.-
p3403
I1
sV..
p3404
I4629
sV[1@@@@@1]
p3405
I2
sV. 
p3406
I1
sV\u795e\u7d93\u8cea
p3407
I1
sV\u70ba\u4e86
p3408
I4
sV\u661f\u671f\u5929
p3409
I3
sV\u771f
p3410
I13
sV\u522e
p3411
I2
sV\u9109\u6751
p3412
I1
sV\u5bb3
p3413
I3
sV<E file E>.\u005c
p3414
I1
sV\u842c\u82b3
p3415
I1
sV\u65b7
p3416
I3
sV..<Q hon 
p3417
I1
sV\u5dee\u7570
p3418
I1
sV..<T 
p3419
I43
sV\u6559\u7df4
p3420
I1
sV\u6293\u53bb
p3421
I1
sV@@@@@[1@@@@@1]
p3422
I1
sV...(3.2)<Q 
p3423
I1
sV\u718a
p3424
I1
sV\u7a3f\u8cbb
p3425
I2
sV...Nonon
p3426
I1
sV\u584a
p3427
I12
sV\u5730\u9ede
p3428
I1
sV\u7121\u689d\u4ef6
p3429
I1
sV\u6ed1
p3430
I4
sV\u83dc\u55ae
p3431
I1
sV.[
p3432
I2
sV(0) oh ,_
p3433
I1
sV\u6574\u500b
p3434
I8
sV.^
p3435
I3
sV._
p3436
I55
sV\u99d5\u99db
p3437
I1
sV\u4e3b\u7fa9
p3438
I2
sV\u505a
p3439
I67
sV\u5831\u540d
p3440
I1
sV Jocky 
p3441
I1
sV\u5662
p3442
I12
sV\u55e8
p3443
I1
sV... 
p3444
I78
sV...'
p3445
I2
sV\u4efb\u4f55
p3446
I2
sV\u773c\u79d1
p3447
I3
sV\u5c07\u4f86
p3448
I1
sV<X ey
p3449
I1
sV....
p3450
I1
sV\u5c08\u9577
p3451
I1
sV\u4e4b\u524d
p3452
I7
sV\u6578\u5b57
p3453
I3
sV F>.\u005c
p3454
I6
sV\u7f70
p3455
I5
sV\u570b\u7814
p3456
I2
sV\u71d9\u5230
p3457
I1
sVug
p3458
I1
sV...@@@(H)<@
p3459
I1
sV\u6d74\u7f38
p3460
I10
sV\u80fd\u5920
p3461
I10
sV(Hx)
p3462
I1
sV[@@@@..@@]
p3463
I1
sV\u7acb\u523b
p3464
I1
sV\u4e0d\u898b
p3465
I1
sV\u54e1\u5de5
p3466
I1
sV\u6cd5\u4eba
p3467
I3
sV\u5b88
p3468
I2
sV\u588a
p3469
I1
sV\u98db\u6a5f
p3470
I3
sV...(7.1)
p3471
I1
sV\u6392\u65a5
p3472
I1
sV\u9019\u4e9b
p3473
I14
sV\u6c92
p3474
I95
sV\u6234\u4e0a
p3475
I1
sV\u4e00\u767c\u4e0d\u53ef\u6536\u62fe
p3476
I1
sV\u8166\u5b50
p3477
I1
sV[2<@ 
p3478
I1
sV\u611b\u4e0a
p3479
I1
sV\u5c08\u9580
p3480
I6
sV\u7761\u597d
p3481
I1
sV..  50
p3482
I1
sV\u689d\u7d0b
p3483
I1
sV\u8eab\u5206
p3484
I2
sV\u6efe\u5230
p3485
I3
sV\u8a71
p3486
I66
sV\u9023\u6230
p3487
I3
sV\u592b\u5a66
p3488
I1
sV\u7d93\u9a57
p3489
I7
sV\u8001\u516c
p3490
I2
sV\u6b7b\u6703
p3491
I2
sV\u672a\u514d
p3492
I1
sV<E call E>
p3493
I1
sV]Oh.\u005c
p3494
I1
sV\u527d\u608d
p3495
I2
sV\u53c3\u8003\u5ba4
p3496
I4
sV\u624d\u5b78
p3497
I1
sV\u7a2e\u597d
p3498
I1
sV\u7403\u8ff7
p3499
I1
sV\u6dbc
p3500
I1
sV\u5b78\u751f
p3501
I16
sV\u5641
p3502
I1
sV\u770b\u91ab\u751f
p3503
I1
sV\u611f\u8b1d
p3504
I1
sV\u9ad8\u554f
p3505
I1
sV\u610f\u7fa9
p3506
I1
sV\u5a49
p3507
I1
sV\u885b\u661f
p3508
I2
sV\u767b\u9678
p3509
I1
sVtsa,_
p3510
I1
sV\u652f\u6301
p3511
I5
sV\u4f4f\u9662
p3512
I1
sV\u8216
p3513
I1
sV<E tough E>
p3514
I1
sV...(3.1)
p3515
I7
sV\u6b7b
p3516
I8
sV\u8b8a\u52d5\u7387
p3517
I1
sV._ T>\u005c
p3518
I1
sV=@>.\u005c
p3519
I1
sV\u54b3\u55fd
p3520
I1
sV\u6eff\u58d8
p3521
I2
sV\u5c0d\u5c0d
p3522
I4
sV<E OK E>
p3523
I1
sV\u55dc\u597d
p3524
I1
sV.. <Q 
p3525
I1
sV...(0.4)
p3526
I3
sV\u7a7a\u6d1e
p3527
I1
sV\u7fa9\u5927\u5229
p3528
I3
sV\u5fc3\u81df
p3529
I1
sV\u7d50\u5408
p3530
I1
sV\u5e73\u5e73\u9806\u9806
p3531
I1
sV\u897f
p3532
I8
sV\u505a\u751f\u610f
p3533
I6
sV[@@]
p3534
I7
sV\u5f85
p3535
I5
sV[mh].\u005c
p3536
I1
sV\u9ea5\u514b\u98a8
p3537
I3
sV\u5408
p3538
I1
sV\u4e00\u65b9\u9762
p3539
I2
sV\u99ac\u4e0a
p3540
I4
sV..[Oh].\u005c
p3541
I1
sV\u4e7e\u6de8
p3542
I1
sV\u771f\u662f\u7684
p3543
I2
sV(0) hoN.\u005c
p3544
I4
sV\u5916
p3545
I4
sV\u6b50
p3546
I1
sV\u5341\u4e00\u9ede\u4e8c\u5341
p3547
I2
sV\u53f3\u5916\u91ce
p3548
I1
sV\u5212\u7b97
p3549
I1
sV. ..mh.\u005c
p3550
I1
sV...(1.1)
p3551
I23
sVnah.\u005c
p3552
I2
sV\u6240\u4ee5
p3553
I102
sV..  eh,_
p3554
I1
sV\u5f04\u51fa\u4f86
p3555
I1
sV\u672a
p3556
I3
sV\u66b4\u9732
p3557
I1
sV\u71b1
p3558
I1
sV\u54b3
p3559
I1
sV\u7570\u8c61
p3560
I3
sV\u5634
p3561
I1
sV\u96d6\u7136
p3562
I7
sV\u4e00\u4e0b
p3563
I26
sVL>.\u005c
p3564
I1
sV] .\u005c
p3565
I1
sV\u7e3d
p3566
I2
sV\u5e0c\u671b
p3567
I18
sV\u653e
p3568
I21
sV @>,-
p3569
I1
sVho?/
p3570
I5
sV <Q
p3571
I2
sV\u770b\u8d77\u4f86
p3572
I7
sV\u6bcd
p3573
I1
sV\u5bb3\u6015
p3574
I1
sV <F
p3575
I1
sV\u5b9a
p3576
I2
sV..ey\uff0e
p3577
I1
sV\u7b2c\u56db
p3578
I1
sV2] .\u005c
p3579
I2
sV@@,_
p3580
I1
sV T>?/
p3581
I5
sV\u8ce3
p3582
I4
sV\u60c5\u4fb6
p3583
I1
sV\u8166
p3584
I3
sV\u65e9
p3585
I3
sV\u897f\u5357\u6b50
p3586
I2
sV <x
p3587
I2
sV...(2.4)
p3588
I4
sV\u7acb\u5fd7
p3589
I1
sV?
p3590
I2
sV\u97ff\u4eae
p3591
I1
sVha?/
p3592
I1
sV\u2514 @@
p3593
I1
sV\u66f8\u5e97
p3594
I2
sV\u66ff
p3595
I1
sV\u857e
p3596
I3
sV\u9053\u7406
p3597
I1
sV\u6b3a\u4fae
p3598
I1
sV\u9769\u547d
p3599
I1
sV\u82f1\u7814
p3600
I1
sV3]
p3601
I1
sV\u4ec0
p3602
I1
sV\u5509
p3603
I3
sV Nonon .\u005c
p3604
I1
sV\u59d4\u54e1\u6703
p3605
I1
sV\u5beb\u5b8c
p3606
I3
sV\u786c\u9ad4
p3607
I4
sV\u4e00\u5343\u516d\u767e
p3608
I3
sV\u4eab\u53d7
p3609
I2
sV\u4e03\u9ede
p3610
I1
sV(0) <E Jordan E> ah= ?/
p3611
I1
sV\u7d19
p3612
I3
sV\u901b\u8857
p3613
I1
sV\u8cc7\u8a0a
p3614
I2
sV<Hi
p3615
I2
sV\u85dd\u4eba
p3616
I1
sV=Yah ,_
p3617
I1
sV\u6c23
p3618
I1
sV\u771f\u7684
p3619
I99
sV\u5b89\u4efd
p3620
I2
sV\u5716
p3621
I2
sV\u9032\u6b65
p3622
I2
sV...(0.8) 
p3623
I10
sV\u5be6\u969b
p3624
I8
sV\u53f0\u5317\u4eba
p3625
I2
sV\u8aaa\u660e
p3626
I1
sV\u6559\u7267
p3627
I1
sV..hum.\u005c
p3628
I4
sV...(2) mm.\u005c
p3629
I1
sV\u6253\u51fa\u53bb
p3630
I1
sV...<X
p3631
I1
sV\u56b4
p3632
I1
sVs.\u005c
p3633
I1
sV\u8655\u7406
p3634
I5
sV\u5e74\u4ee3
p3635
I1
sV\u59cb\u7d42
p3636
I1
sV\u8ffd\u4e0a
p3637
I1
sV\u6490\u8170
p3638
I2
sV @>,_
p3639
I4
sV\u5077\u8dd1
p3640
I3
sV\u5403
p3641
I49
sV@@@@@@@
p3642
I1
sV[AHh Hh] Hh.\u005c
p3643
I1
sV\u54c8
p3644
I2
sV\u5047\u88dd
p3645
I1
sV\u65b9\u9762
p3646
I9
sV\u7576\u4e2d
p3647
I4
sVXX,_
p3648
I1
sV...(0.8)[
p3649
I1
sV\u516c\u958b
p3650
I1
sVQ>Hi>.\u005c
p3651
I1
sV..Hun=
p3652
I1
sV\u98b1\u98a8
p3653
I1
sV\u5224\u65b7
p3654
I1
sV\u5ee3\u6536
p3655
I1
sV\u8a8d\u70ba
p3656
I1
sV <T 
p3657
I1
sV\u91cd\u8003
p3658
I1
sV.\u005c,_
p3659
I1
sV[<Hi 
p3660
I1
sV\u8001\u5e2b
p3661
I27
sV\u7279\u5730
p3662
I2
sV%-
p3663
I1
sV\u771f\u8a71
p3664
I1
sV\u5dee
p3665
I19
sV\u5171
p3666
I1
sVX>,_
p3667
I1
sV140,_
p3668
I1
sV(0)NhNh[1Nh1].\u005c
p3669
I1
sV\u76f4
p3670
I1
sV--@>,_
p3671
I1
sV\u96c6\u9ad4
p3672
I1
sV..<E body message E>
p3673
I1
sV\u5206\u6790
p3674
I2
sV\u5f97\u5206
p3675
I7
sV\u8d85\u904e
p3676
I1
sV\u5f04
p3677
I16
sV(0)<@
p3678
I5
sV\u898b
p3679
I1
sV\u6d17\u5b8c
p3680
I1
sV\u8a8d
p3681
I1
sV\u56db\u9ede
p3682
I1
sV\u5c6c\u9748
p3683
I1
sV(0)<X
p3684
I1
sV(0)<Y
p3685
I1
sV\u6578\u5b78
p3686
I1
sV\u8212
p3687
I1
sV\u52f5\u5bb3
p3688
I1
sV\u7b97
p3689
I24
sV...(1.3)ey
p3690
I1
sV\u5be6\u5728
p3691
I8
sV\u9867\u5fcc
p3692
I1
sV\u639b\u6709
p3693
I1
sV\u798f\u97f3
p3694
I1
sV\u514d\u8cbb
p3695
I1
sV\u9078\u624b
p3696
I1
sV\u5690\u5690
p3697
I1
sV\u722a\u5b50
p3698
I2
sV\u54c8\u557e
p3699
I1
sV\u72af\u7f6a
p3700
I1
sV\u7b97\u662f
p3701
I5
sV\u653f\u6cbb\u5b78
p3702
I1
sV\u5317\u91ab
p3703
I2
sV\u6aaf\u9762
p3704
I2
sV,_ T>
p3705
I2
sV\u6163
p3706
I1
sV\u8ca0\u64d4
p3707
I6
sV\u5f97\u5230
p3708
I6
sV.\u005cT>
p3709
I1
sV x>.\u005c
p3710
I18
sV\u5927\u5b89
p3711
I1
sV\u523b\u677f\u5316
p3712
I1
sV\u4e00\u5343
p3713
I2
sV\u98db\u4e0b\u4f86
p3714
I1
sV\u6273\u56de
p3715
I1
sV(0)Nh=,-
p3716
I1
sV\u4e00\u534a
p3717
I5
sV\u731c\u731c
p3718
I1
sV\u5e74\u8f15
p3719
I8
sV1] ,_
p3720
I1
sV\u6b4c
p3721
I1
sV[@]@
p3722
I1
sV\u8df3\u8d77\u4f86
p3723
I3
sV\u76ee\u6a19
p3724
I3
sV\u62bd\u5230
p3725
I1
sV..(1.6) <MRC 
p3726
I1
sV\u66c9\u5f97
p3727
I17
sV\u7121\u6fdf\u65bc\u4e8b
p3728
I1
sV(TSK) [2
p3729
I1
sV\u52dd
p3730
I3
sV\u8cbb
p3731
I1
sV\u8e0f\u5230
p3732
I1
sV\u88e1
p3733
I9
sV\u5011
p3734
I5
sV\u633a
p3735
I2
sV\u4ee5
p3736
I5
sV\u96e2\u958b
p3737
I1
sV\u865c\u8d70
p3738
I1
sV\u5ac1\u7d66
p3739
I2
sV(0)<T 
p3740
I1
sV.     
p3741
I1
sV\u674e\u767b\u8f1d
p3742
I1
sVF>
p3743
I1
sV...<F ^
p3744
I1
sV\u79d8\u66f8
p3745
I1
sV\u958b\u5e97
p3746
I1
sV\u7cbe
p3747
I2
sV\u53f0\u5317\u5e02\u9577
p3748
I1
sV\u6876
p3749
I1
sV\u4e09\u4e94\u5e74
p3750
I1
sV..XX,_
p3751
I1
sV\u793e
p3752
I1
sV\u9577\u9ad8
p3753
I3
sV\u9801
p3754
I1
sV e T>,_
p3755
I1
sV\u7169\u6b7b
p3756
I1
sV<T 
p3757
I10
sV..<xx 
p3758
I1
sV\u54e5\u54e5
p3759
I1
sV\u5716\u66f8\u5ba4
p3760
I2
sV\u968a
p3761
I25
sV2]--
p3762
I3
sV\u6f0f
p3763
I1
sV(0) umh.\u005c
p3764
I1
sV\u8b1b\u7d66
p3765
I1
sV..<E Mortals E>.\u005c
p3766
I1
sV.. <@ wase @> ,_
p3767
I1
sV\u8cfa
p3768
I1
sV\u805a\u9910
p3769
I1
sV(0)ey
p3770
I4
sV\u6821
p3771
I1
sV...(1)XXX,_
p3772
I1
sV\u8a18\u9304\u7d44
p3773
I1
sV\u5927\u7b11
p3774
I1
sV\u56db\u5e74
p3775
I1
sV\u7d50\u5a5a
p3776
I10
sV.. <Hi 
p3777
I1
sV\u6df1\u523b
p3778
I1
sV\u600e\u6703
p3779
I2
sV\uff2f
p3780
I1
sV\u9031
p3781
I1
sV\u4e3b\u6cbb
p3782
I1
sV...(1.7)ey=?/
p3783
I1
sV\u4e94\u6708
p3784
I1
sV\u8056\u5c39
p3785
I1
sV\u89aa\u5bc6
p3786
I2
sV\u8eba
p3787
I2
sV\u7576\u4f5c
p3788
I1
sV\u64cb
p3789
I2
sV\u5e73\u7a69
p3790
I1
sV L>].\u005c
p3791
I1
sV\u79c0
p3792
I2
sV\u5de6\u5916\u91ce
p3793
I1
sVKTV
p3794
I2
sVma?/
p3795
I1
sV\u6a21\u64ec
p3796
I1
sV\u4f4f
p3797
I8
sV\u5927\u5b78
p3798
I1
sV\u85dd\u6587
p3799
I2
sV\u6bd4\u5982\u8aaa
p3800
I16
sV\u8655
p3801
I1
sV\u67d4
p3802
I2
sV..Nonon
p3803
I4
sV2]@>
p3804
I1
sV(0)hey.\u005c
p3805
I3
sV\u597d\u5beb
p3806
I1
sV\u7fa4
p3807
I4
sV\u8001\u9f20
p3808
I1
sV\u6539\u8b8a
p3809
I4
sV\u9ad4\u529b
p3810
I3
sV\u62ff\u51fa\u4f86
p3811
I3
sV\u665a\u7761
p3812
I3
sV\u81c9\u90e8
p3813
I3
sV\u6696
p3814
I4
sV\u5357\u4eac\u6771\u8def
p3815
I2
sV\u904b\u52d5
p3816
I5
sV\u8a08\u7a0b\u8eca
p3817
I5
sV\u5bb6\u805a
p3818
I1
sV F>?/
p3819
I1
sV\u9023\u6557
p3820
I3
sV\u7121\u95dc
p3821
I1
sV\u4e2d\u74b0
p3822
I2
sV\u250c@@@
p3823
I1
sV\u5fd8\u6389
p3824
I1
sV\u5c04
p3825
I1
sV\u5c0f\u5b69
p3826
I1
sV\u597d\u7b11
p3827
I10
sV\u9ec3\u570b\u660c
p3828
I1
sV\u81ea\u7136
p3829
I1
sV\u807d\u773e
p3830
I5
sV\u7279\u5225
p3831
I16
sV\u53e3\u4ee4
p3832
I1
sV\u5fc3\u529b
p3833
I1
sV\u6210
p3834
I7
sV@..[1@@1]
p3835
I1
sV...(4.3) <E Grant E> ,_
p3836
I1
sV\u7897
p3837
I2
sV\u5c0f\u5b78
p3838
I1
sV...[3
p3839
I1
sV\u529b
p3840
I1
sV\u767d\u5929
p3841
I7
sV\u5f62\u5bb9
p3842
I4
sV\u8a0e\u53ad
p3843
I6
sV\u9b91\u79c9\u598d
p3844
I2
sV\u6d88\u8cbb
p3845
I1
sV\u756b\u756b
p3846
I1
sV\u535a
p3847
I1
sV\u4e3b\u52d5
p3848
I1
sV\u5343\u842c
p3849
I1
sV\u6628
p3850
I1
sVa     ..[XXX].\u005c
p3851
I1
sV\u60f3\u5230
p3852
I15
sV.\u005c T>
p3853
I12
sV\u6642\u5019
p3854
I141
sV\u5230
p3855
I85
sV(0) unh.\u005c
p3856
I2
sV\u539f\u672c
p3857
I6
sV...<Hi 
p3858
I1
sV\u5047\u8a2d
p3859
I3
sV\u5341\u9ede
p3860
I3
sV\u5718\u9577
p3861
I1
sV[2 To To 2],_
p3862
I1
sV\u5c0f\u5b50
p3863
I1
sV\u7b49\u4e00\u4e0b
p3864
I3
sV\u8003\u4e0a
p3865
I2
sV(0) <X 
p3866
I1
sV..ah
p3867
I1
sV\u5206\u64d4
p3868
I1
sV\u4f11\u5047
p3869
I3
sV\u660e\u6587\u898f\u5b9a
p3870
I1
sV\u5f37\u8feb
p3871
I1
sVah= ,_
p3872
I1
sV\u8acb
p3873
I8
sV\u554a
p3874
I728
sV\u684c
p3875
I3
sV]ne ,_
p3876
I1
sV\u689d\u4ef6
p3877
I2
sV\u516c\u5712
p3878
I2
sV...(0.7)haN?/
p3879
I1
sV[oh].\u005c
p3880
I1
sV\u5fd9
p3881
I1
sV..  heN.
p3882
I3
sV\u77ed\u88d9
p3883
I1
sV\u505c
p3884
I3
sV\u5b97\u6559
p3885
I1
sV\u9ec3\u7fd4
p3886
I2
sV\u571f\u88fd
p3887
I1
sV\u4eba
p3888
I193
sV\u5f15\u8a98
p3889
I1
sV...(1.0)
p3890
I2
sV\u8b80\u7d93
p3891
I1
sV\u4e0b\u4e0b
p3892
I3
sV\u63a5\u4e0b\u4f86
p3893
I4
sV\u67ef\u8463
p3894
I1
sV\u786c
p3895
I1
sV\u66f4\u65b0
p3896
I1
sV\u5831\u793e
p3897
I3
sV\u6700\u4f73
p3898
I2
sV\u8dcc\u5012
p3899
I1
sV\u5728\u610f
p3900
I4
sVTo To
p3901
I1
sV\u96f6\u98df
p3902
I1
sV\u96e3\u5f97
p3903
I2
sV,_x>
p3904
I1
sV\u5982
p3905
I5
sV\u7d05
p3906
I1
sV\u7b51
p3907
I2
sVxxx,_
p3908
I1
sV\u9910\u5ef3
p3909
I2
sV\u77ed
p3910
I8
sVky.\u005c
p3911
I1
sV\u558a
p3912
I6
sV\u7b97\u4e0d\u5f97
p3913
I1
sV...(0.7) 
p3914
I2
sV\u53ef\u898b
p3915
I2
sV\u6311
p3916
I2
sV\u74b0\u5883
p3917
I7
sV\u7f3a\u61be
p3918
I1
sV\u8d95\u5feb
p3919
I6
sV\u97f3\u6a02
p3920
I2
sV\u721b
p3921
I1
sV(0)oh=
p3922
I1
sV\u6f0f\u63a5
p3923
I5
sV\u6b21
p3924
I78
sV...mh.\u005c
p3925
I1
sV\u6027
p3926
I3
sV\u5ba4
p3927
I2
sV\u7b49\u5230
p3928
I4
sV...(1.2) ha?/
p3929
I1
sVha,_
p3930
I1
sV\u4e4b\u5f8c
p3931
I7
sV...(H)
p3932
I3
sV...(2.1) 
p3933
I1
sV\u4eba\u751f
p3934
I1
sV\u4e8c\u6a13
p3935
I1
sV\u73fe\u72c0
p3936
I3
sV\u5167\u91ce
p3937
I1
sV]  .\u005c
p3938
I1
sV\u5408\u80a1
p3939
I1
sV\u626f\u5230
p3940
I1
sV\u793e\u5718
p3941
I1
sVXXXX].\u005c
p3942
I1
sV\u5929\u90fd
p3943
I8
sVheN.\u005c
p3944
I1
sV\u5047
p3945
I3
sV\u4e2d\u548c
p3946
I1
sV\u570b\u6587\u7cfb
p3947
I1
sV\u904e\u7a0b
p3948
I1
sV\u5283\u5206
p3949
I1
sV\u795e\u7955
p3950
I1
sV\u53d7\u6d17
p3951
I1
sV\u5730\u5340
p3952
I1
sV\u6700\u8fd1
p3953
I12
sVa  ..
p3954
I1
sV\u6cf0\u5c71
p3955
I1
sV\u525b
p3956
I13
sV\u7dda
p3957
I13
sV\u529b\u91cf
p3958
I1
sV\u8b80\u66f8
p3959
I3
sV\u5e2b\u5927\u8def
p3960
I1
sV\u525b\u525b\u597d
p3961
I1
sV..un
p3962
I2
sV\u529f\u80fd
p3963
I1
sV\u77ed\u5ba3\u968a
p3964
I1
sVX>.\u005c
p3965
I1
sV\u9593\u8adc
p3966
I2
sV(0) heN 
p3967
I1
sV= Hi>.\u005c
p3968
I1
sV(0) heN,_
p3969
I2
sV..  oh=.\u005c
p3970
I1
sV\u5168\u58d8\u6253
p3971
I1
sV\u9673
p3972
I8
sV...(0.7)^
p3973
I1
sV\u6df1\u5165
p3974
I2
sV\u6c34\u816b
p3975
I3
sV...(0.7)[
p3976
I1
sV\u7e7c\u7e8c
p3977
I4
sV\u5bae\u5973
p3978
I3
sV..[Oh=].\u005c
p3979
I1
sV\u79c9\u598d
p3980
I1
sV\u9818\u5148
p3981
I1
sV\u5802
p3982
I9
sV\u7d04
p3983
I4
sV\u5206
p3984
I11
sV\u775b\u775b
p3985
I3
sV\u5708
p3986
I1
sV..mmm.\u005c
p3987
I1
sV\u5f8c\u52c1
p3988
I1
sV\u5fae\u7a4d\u5206
p3989
I2
sV\u8981\u4e0d\u7136
p3990
I4
sV\u5c0e\u5e2b
p3991
I9
sV\u53ef\u611b
p3992
I6
sV\u2514
p3993
I44
sV\u82f1\u7814\u6240
p3994
I1
sV<T hey la T>.\u005c
p3995
I1
sV\u5efa\u8b70
p3996
I5
sV,\u005c
p3997
I7
sV\u6284
p3998
I2
sV\u628a\u624b
p3999
I1
sV\u8822
p4000
I1
sV\u65c5\u9928
p4001
I1
sV\u5e7e\u9ede
p4002
I3
sV\u59ca\u59ca
p4003
I1
sV..oh\uff0e
p4004
I1
sV<E catch E>
p4005
I1
sV\u5fd8\u5f62
p4006
I1
sV...(2.8) 
p4007
I2
sV\u6d77\u908a
p4008
I1
sV\u5c31\u662f\u8aaa
p4009
I46
sV[@@
p4010
I1
sV\u90c1\u6155
p4011
I1
sV\u9032
p4012
I7
sV..<xxx
p4013
I1
sV\u7279\u6559\u73ed
p4014
I1
sV\u8f38
p4015
I12
sV...^[
p4016
I1
sV\u5947\u602a
p4017
I20
sV..  <X 
p4018
I1
sV\u5ac1
p4019
I5
sV\u8ed4\u5ea6
p4020
I1
sV\u5fc3
p4021
I7
sV\u5d07\u62dc
p4022
I4
sV\u7d44
p4023
I7
sV\u60f3\u51fa
p4024
I2
sV\u597d\u597d
p4025
I7
sV\u7af9\u85e4
p4026
I1
sV\u7389\u9ad4
p4027
I1
sV...(17.5)
p4028
I1
sV\u53eb\u505a
p4029
I5
sV(H)(H)(H),_
p4030
I1
sV\u77ad\u89e3\u5230
p4031
I1
sV\u8a95\u751f
p4032
I1
sV\u793e\u6703
p4033
I1
sV...<x 
p4034
I3
sV\u7cbe\u795e
p4035
I2
sV@@@[1@1]
p4036
I1
sV @>2],_
p4037
I1
sV\u5beb
p4038
I37
sV(0)oh=.\u005c
p4039
I3
sV\u5538\u5538
p4040
I1
sV1] --
p4041
I1
sV\u97f3
p4042
I1
sV\u65e9\u4e0a
p4043
I6
sV(0)XXX
p4044
I1
sV\u5a5a\u59fb
p4045
I4
sV\u56de\u7c60
p4046
I1
sV\u505a\u5f97\u5230
p4047
I1
sV\u723e
p4048
I1
sV\u80fd
p4049
I8
sV\u7267\u990a
p4050
I1
sV...(1.4) hoN,_
p4051
I1
sV\u7834\u58de
p4052
I1
sV\u555f\u52dd
p4053
I1
sVxx,--
p4054
I1
sV\u8b1b\u51fa\u4f86
p4055
I1
sV(to W) ...
p4056
I1
sV\u5609
p4057
I2
sV\u91ab\u5b78\u9662
p4058
I1
sV\u8b8a\u5f97
p4059
I2
sV\u5e7e\u5e74
p4060
I1
sV\u8d95\u7a3f
p4061
I1
sV\u8d0f
p4062
I7
sV\u5bec
p4063
I1
sV\u4e00\u5343\u591a
p4064
I1
sV\u4fe1\u4ef0
p4065
I1
sV\u500b\u6876
p4066
I1
sVa-?/
p4067
I1
sV\u4fe1\u4ef6
p4068
I4
sV\u731b
p4069
I1
sV\u5169\u4e09\u9ede
p4070
I1
sV\u919c
p4071
I2
sV\u751f
p4072
I1
sV\u53ef\u6190
p4073
I6
sV..(H)
p4074
I14
sV\u4eba\u540d
p4075
I1
sV\u5e36\u53bb
p4076
I1
sV\u4e0d\u81f4
p4077
I1
sV..<E OK E>,_
p4078
I1
sV\u5b69\u5b50
p4079
I3
sV\u63a8\u8350
p4080
I1
sV\u982d
p4081
I2
sV\u99ac
p4082
I1
sV\u7d2f
p4083
I19
sV\u9078\u60c5
p4084
I1
sV\u7d55\u5c0d
p4085
I2
sV\u96a8\u624b
p4086
I1
sV...(5.5)<XX>.\u005c
p4087
I1
sV\u53bb\u5e74
p4088
I18
sV\u9e97\u73b2
p4089
I4
sV[2 XXXX 2].\u005c
p4090
I1
sV\u843d\u78ef\u5c71
p4091
I2
sV2],_
p4092
I17
sV...(1.5)<T 
p4093
I1
sV\u5403\u6389
p4094
I3
sVa A: .. [2
p4095
I1
sV\u5340\u5206
p4096
I1
sV\u5147
p4097
I8
sV\u6642\u5f8c
p4098
I1
sV\u5927\u597d
p4099
I1
sV\u88cf\u9762
p4100
I16
sVF  ..
p4101
I1
sV\u63d0
p4102
I1
sV..  haN,_
p4103
I1
sV\u6c7a\u5b9a
p4104
I3
sV\u602a\u602a
p4105
I1
sV= .\u005c
p4106
I1
sV\u76f4\u7403
p4107
I2
sV\u56de
p4108
I7
sV...(0.7) <T 
p4109
I1
sV\u4e92\u52d5
p4110
I1
sV\u77f3\u982d
p4111
I1
sV\u7d05\u8336
p4112
I1
sV\u5947\u60f3
p4113
I1
sV\u4e0b\u4f86
p4114
I4
sV\u6167
p4115
I2
sV\u5750
p4116
I23
sVmm.\u005c
p4117
I2
sV\u4e09\u767e\u516d\u5341\u842c
p4118
I2
sV\u5403\u5bb5\u591c
p4119
I3
sV\u6454\u5012
p4120
I1
sV..mh mh.\u005c
p4121
I1
sV\u6253\u6cd5
p4122
I5
sV\u6982\u5ff5
p4123
I1
sV\u570b\u4e2d\u751f
p4124
I2
sV\u8a3a\u6578
p4125
I1
sV\u90e8\u9580
p4126
I1
sV\u807d
p4127
I21
sV\u66fe
p4128
I3
sV\u7d81
p4129
I2
sV..  hum.\u005c
p4130
I1
sV\u80f8\u90e8
p4131
I1
sV\u66f4\u63db
p4132
I1
sV\u638c\u6b0a
p4133
I1
sV\u5e97\u540d
p4134
I1
sV\u4e56
p4135
I2
sV...(TSK)
p4136
I3
sV<E D E>.\u005c
p4137
I1
sV..<E counseling E>
p4138
I1
sV(0)XX.\u005c
p4139
I1
sV\u5e97
p4140
I25
sV\u6700\u65e9
p4141
I3
sV\u56e0\u70ba
p4142
I198
sV\u9ad8\u96c4
p4143
I3
sV\u7559\u8a00
p4144
I2
sV(0) huN.\u005c
p4145
I5
sV\u9858\u610f
p4146
I4
sV\u53ef\u662f
p4147
I136
sV\u6c23\u6c1b
p4148
I5
sV\u7d93\u71df
p4149
I1
sV\u88c1\u5224
p4150
I19
sV=]
p4151
I2
sV=^
p4152
I7
sV\u56f0\u64fe
p4153
I1
sV\u672c\u8eab
p4154
I5
sV=[
p4155
I4
sV\u8f14\u5c0e
p4156
I2
sV\u50b3
p4157
I9
sV<E T O T O E>.\u005c
p4158
I1
sV\u4e4b\u5916
p4159
I2
sV\u6492\u5b0c
p4160
I1
sV..hm\u005c
p4161
I1
sV... he=
p4162
I1
sV\u65b9\u6cd5
p4163
I1
sV\u90a3\u6642
p4164
I10
sV\u6253\u6b7b
p4165
I1
sV\u5c40
p4166
I5
sV..[um].\u005c
p4167
I1
sV X> ,_
p4168
I1
sV..hm.
p4169
I1
sV\u597d\u5e7e
p4170
I3
sV\u74b0\u7e5e
p4171
I1
sV\u756b\u8d77\u4f86
p4172
I1
sV\u7cbe\u8cea
p4173
I1
sV\u7814\u7a76\u793e
p4174
I1
sV\u767c\u8868\u6703
p4175
I1
sV\u767e\u8001\u532f
p4176
I1
sV=,
p4177
I1
sV\u7e3d\u662f
p4178
I1
sV=.
p4179
I3
sV\u7267\u5e2b
p4180
I4
sV\u7537\u4eba
p4181
I8
sV..(H)@@<F
p4182
I1
sV\u4e03\u5341\u5e7e
p4183
I1
sV\u5927\u59d1\u4f4f
p4184
I1
sV\u6df7
p4185
I4
sV\u4e0d\u8981
p4186
I53
sV\u7d66\u4ed6
p4187
I6
sV((clear throat))...(1.4)
p4188
I1
sV\u8a8d\u540c
p4189
I3
sV\u5c0f\u7d05
p4190
I1
sV\u6a5f\u5834
p4191
I4
sV\u5967\u65af\u5361
p4192
I1
sVoh F>?/
p4193
I1
sV\u6fdf\u65af
p4194
I1
sV\u5f9e\u672a
p4195
I1
sV\u898b\u5f97
p4196
I1
sV\u6392\u968a
p4197
I1
sV...(2.8) hum=,_
p4198
I1
sV\u6de1\u5316
p4199
I1
sV\u778e\u5b50
p4200
I1
sV <E GY E>,_
p4201
I1
sV\u63a5\u53d7
p4202
I11
sVoh@>.\u005c
p4203
I1
sV\u4e00\u767e
p4204
I1
sV\u5e7d\u9748
p4205
I3
sV\u71c8\u7ba1
p4206
I1
sV...(5.2)
p4207
I2
sV\u72d7\u5c41
p4208
I2
sV\u7ad9\u7acb
p4209
I2
sV\u516c\u91cc
p4210
I3
sV\u5922\u60f3
p4211
I1
sV\u5fc3\u7406
p4212
I1
sV...(4.8)
p4213
I1
sV(0) hoN,_
p4214
I1
sV\u6490
p4215
I2
sV\u4e09\u624d
p4216
I1
sV\u5dee\u9ede
p4217
I2
sV\u5f8c\u9762
p4218
I2
sV\u541b
p4219
I8
sV\u958b\u5b78
p4220
I2
sV\u53ef\u6015
p4221
I17
sV[1X1].\u005c
p4222
I1
sV\u975e\u5e38
p4223
I9
sV.. <Q XXXX Q>.\u005c
p4224
I1
sV\u985e\u4f3c
p4225
I1
sV\u5347\u4e0a\u53bb
p4226
I1
sV\u672a\u5a5a
p4227
I1
sV\u7ba1\u7406
p4228
I2
sV\u606d\u7dad
p4229
I1
sV\u60a8
p4230
I3
sV\u5be6\u529b
p4231
I1
sV\u5bbf\u820d
p4232
I2
sV\u56de\u5bb6
p4233
I7
sV=,-_
p4234
I1
sV\u7531
p4235
I7
sV\u751f\u610f
p4236
I3
sV\u767c\u60c5
p4237
I3
sV\u653e\u4e0b\u4f86
p4238
I1
sV\u7a7a\u865b
p4239
I1
sVne,_
p4240
I1
sV\u53f0\u7368
p4241
I1
sV\u6f29\u6e26
p4242
I2
sV\u82b1\u5e03
p4243
I1
sV\u7576\u6a5f
p4244
I1
sV\u908f\u8f2f
p4245
I3
sV\u7ba1
p4246
I4
sV\u7dad\u6301
p4247
I2
sV\u53f0\u5317
p4248
I2
sV\u798f\u5229
p4249
I1
sV\u963f\u5b38
p4250
I1
sV\u5149
p4251
I5
sV\u70c8
p4252
I2
sV\u4f4d\u7f6e
p4253
I2
sV\u4f4d
p4254
I14
sV\u6ecc
p4255
I1
sV\u56e0\u7d20
p4256
I1
sV\u5496\u5561\u58fa
p4257
I2
sV\u7761\u5230
p4258
I1
sV\u8b41\u773e\u53d6\u5bf5
p4259
I1
sV(0)Oh
p4260
I1
sV\u8001\u5a18
p4261
I1
sV[xxxx]
p4262
I1
sV\u6642\u5831\u9df9
p4263
I6
sV\u53e5
p4264
I6
sV\u63db\u5230
p4265
I1
sV\u6050\u6016
p4266
I4
sV... <E CLEOPTRA E>.\u005c
p4267
I1
sV\u54c8\u54c8
p4268
I3
sV\u6027\u5b50
p4269
I1
sV\u6f14\u85dd\u5708
p4270
I1
sV... (1.1)<T 
p4271
I1
sV\u80cc\u5f8c
p4272
I1
sV...(1.5)<@ ^
p4273
I1
sV<XX>
p4274
I1
sV\u6216\u662f
p4275
I19
sV\u5169\u4e09
p4276
I3
sV\u4f9d\u7167
p4277
I1
sV\u7fd2
p4278
I1
sV\u9375
p4279
I1
sV\u4e00\u76f4
p4280
I27
sV\u627e
p4281
I27
sV\u653e\u68c4
p4282
I1
sV\u5594\u5594
p4283
I5
sV\u570b\u5bb6
p4284
I1
sV\u672c\u4f86
p4285
I29
sV(to the tape recorder)..
p4286
I1
sV\u597d\u5f37
p4287
I2
sV\u611f\u89ba\u5230
p4288
I2
sV\u7406
p4289
I3
sV\u69cb\u60f3
p4290
I2
sV\u51fa\u53bb
p4291
I17
sV\u901a\u904e
p4292
I3
sV...(1)^
p4293
I2
sV\u5169\u5343\u5e74
p4294
I1
sV\u7a81\u767c
p4295
I1
sV\u6295
p4296
I7
sV\u5f97
p4297
I52
sV\u9ee8\u6d3e
p4298
I1
sV\u770b\u6e05\u695a
p4299
I1
sV\u8ca1
p4300
I2
sV\u5e78\u904b
p4301
I3
sV\u6a6b\u8ca1
p4302
I2
sV\u611f\u89ba
p4303
I29
sV..  [2
p4304
I1
sV\u5927\u98a8\u5439
p4305
I1
sV\u5df4\u5df4
p4306
I1
sVhm.\u005c
p4307
I1
sVxxx?\u005c
p4308
I1
sV\u52c9\u5f37
p4309
I1
sV\u8209
p4310
I4
sV\u9632
p4311
I1
sV\u5305\u62ec
p4312
I7
sV\u8d70\u5165
p4313
I1
sV\u8a3a
p4314
I1
sV>
p4315
I1
sV\u65e5\u672c
p4316
I7
sVXX.\u005c
p4317
I2
sV\u65c1\u908a
p4318
I8
sV\u8cb7\u56de\u5bb6
p4319
I1
sV\u7f75\u4f86\u7f75\u53bb
p4320
I1
sV\u516d\u5343
p4321
I4
sV...(2.1)
p4322
I7
sV..<E keyboard E>,_
p4323
I1
sV\u73a9\u610f\u5152
p4324
I1
sV\u6bcf
p4325
I44
sV\u59b9\u59b9
p4326
I2
sV\u770b\u5230
p4327
I27
sV\u4fdd\u6301
p4328
I1
sV\u570b\u7236
p4329
I1
sV\u8aa3\u8cf4
p4330
I1
sV....(0.8) 
p4331
I1
sV..ha= .\u005c
p4332
I1
sV\u75db
p4333
I3
sV[@@@@],
p4334
I1
sV\u9996\u6620
p4335
I1
sV---
p4336
I1
sV[(H)@@@]
p4337
I1
sV\u516c\u725b
p4338
I1
sV\u4e0d\u53ef\u80fd
p4339
I6
sV=..
p4340
I1
sV\u65c5\u904a
p4341
I1
sV\u738b\u5149\u7199
p4342
I1
sV\u4e8c\u5e74\u7d1a
p4343
I2
sV\u6cd5\u7dda
p4344
I1
sV[XX].\u005c
p4345
I1
sV\u6309\u600e
p4346
I1
sV<
p4347
I1
sVY&Z:        (0)
p4348
I1
sV\u51f3
p4349
I1
sV\u52f5
p4350
I1
sV\u4f5c\u7528
p4351
I1
sV\u6703\u8981
p4352
I1
sV\u7136
p4353
I1
sV\u63a1\u7dda
p4354
I1
sV\u4e4b\u985e
p4355
I2
sV...(1.2) 
p4356
I9
sV\u5834\u8a18
p4357
I1
sV..<F 
p4358
I8
sV\u6574\u9ad4
p4359
I7
sV\u5dee\u4e0d\u591a
p4360
I13
sV\u7167\u76f8
p4361
I1
sV\u8001\u5b50
p4362
I3
sV\u59d0
p4363
I1
sV..  oh?/
p4364
I1
sV\u58eb\u6797
p4365
I1
sV\u5f71\u97ff
p4366
I6
sV\u628a\u628a
p4367
I1
sV...(1.7)[
p4368
I1
sV\u5929\u707d
p4369
I1
sV].\u005c.
p4370
I1
sV\u63a5\u5230
p4371
I7
sVyeh.\u005c
p4372
I1
sV\u79c0\u60e0
p4373
I1
sVQ>?/
p4374
I2
sV\u91cd\u8981
p4375
I2
sV\u6548\u679c
p4376
I1
sV\u73a9\u7b11
p4377
I1
sV\u4e0d\u884c
p4378
I4
sV(0) huN?/
p4379
I1
sV\u6dd2\u6158
p4380
I1
sV\u6307\u51fa
p4381
I1
sV...heN 
p4382
I1
sV x>,_
p4383
I5
sV\u7406\u6240\u7576\u7136
p4384
I1
sV\u91cd\u8996
p4385
I1
sV\u6ce8\u610f
p4386
I4
sV\u6839
p4387
I2
sV\u9ad8\u98db\u7403
p4388
I1
sV..[oh=] ,_
p4389
I1
sV .\u005c
p4390
I33
sV\u70c8\u65e5
p4391
I2
sV\u5c41
p4392
I4
sV\u96f2\u6797
p4393
I1
sV\u5bc4
p4394
I1
sV\u62c9\u8fd1
p4395
I1
sV\u250c-- T>,_
p4396
I1
sV\u9ed1\u51fd
p4397
I2
sV\u984c
p4398
I1
sV\u500b\u6027
p4399
I1
sV\u6c42\u5f97
p4400
I1
sV..ho,_
p4401
I2
sV\u4f4e
p4402
I1
sV..<X 
p4403
I9
sVT>.\u005c
p4404
I1
sV\u5e36\u8d70
p4405
I1
sV\u95dc\u9375
p4406
I2
sV\u64e6
p4407
I1
sV\u67d0\u4e9b
p4408
I1
sV...(1.7) 
p4409
I3
sVgu--
p4410
I1
sV\u7968\u6839
p4411
I1
sV\u5c31\u662f\u4e86
p4412
I2
sV\u5206\u6210
p4413
I1
sV\uff0e[
p4414
I1
sV..oh oh.\u005c
p4415
I1
sV\u5206\u6790\u51fa\u4f86
p4416
I1
sV\u5378\u599d
p4417
I1
sV[2<@
p4418
I1
sV\u7d05\u6731
p4419
I1
sV<x> 
p4420
I1
sV...(1.2)[
p4421
I2
sVey].\u005c
p4422
I1
sV<E ^menu E>
p4423
I1
sV\u7701\u5f97
p4424
I1
sV\u4ecb\u7d39
p4425
I6
sV\u7834\u529f
p4426
I2
sV\u7389
p4427
I1
sV\u6b7b\u4eba
p4428
I1
sV\u4ee5\u5167
p4429
I1
sVey,_
p4430
I1
sV\u5c40\u9650\u65bc
p4431
I1
sV\u6293
p4432
I4
sV\u4e9e\u904b
p4433
I2
sV\u2014
p4434
I1
sV\u963f\u59e8
p4435
I4
sV..  mm.\u005c
p4436
I1
sV..<E BBS E>
p4437
I1
sV\u591a
p4438
I40
sV\u559d
p4439
I2
sV[<T 
p4440
I1
sV\u6fa1
p4441
I1
sV\u967d\u5149
p4442
I1
sV\u5916\u570b\u4eba
p4443
I1
sV\u6d5a
p4444
I1
sV\u6642\u4faf
p4445
I4
sV\u53f0\u7063
p4446
I5
sV\u958b\u59cb
p4447
I31
sVh:...
p4448
I1
sV\u7dad
p4449
I2
sV\u58d3\u4e0b\u53bb
p4450
I2
sV\u7f85\u4e16\u5e78
p4451
I2
sV..001.127.6[33].\u005c
p4452
I1
sV...0.8 
p4453
I1
sV(to A)\u2514
p4454
I1
sV\u505a\u4eba
p4455
I2
sV\u52e4\u5109
p4456
I2
sV,_Q>
p4457
I1
sV\u597d\u5947
p4458
I2
sV\u8cf4\u53e1
p4459
I1
sV\u5f62\u5bb9\u8a5e
p4460
I1
sV\u592a
p4461
I59
sV\u6839\u672c
p4462
I10
sV\u54c7
p4463
I24
sV\u90e8\u4efd
p4464
I10
sV\u53c9
p4465
I1
sV\u7248
p4466
I4
sV\u88e1\u982d
p4467
I1
sV(TSK)-
p4468
I1
sV\u88cf
p4469
I4
sV\u7f8e\u6167
p4470
I1
sV=1].\u005c
p4471
I2
sV..[3
p4472
I1
sV..[2
p4473
I5
sV\u6572\u9580
p4474
I2
sV\u4fe1\u606f
p4475
I1
sV\u7701\u9322
p4476
I2
sV\u56db
p4477
I25
sV\u5316\u599d
p4478
I2
sV..he.\u005c
p4479
I1
sV\u4fe1
p4480
I2
sV\u8d70\u5230
p4481
I2
sV= F>.\u005c
p4482
I2
sV\u5de5\u5c08
p4483
I1
sV<E 'keyboord E>,_
p4484
I1
sV\u9418\u982d
p4485
I6
sV\u9e97\u6708\u540c
p4486
I1
sV...(17.7)
p4487
I1
sVoh F>,_
p4488
I1
sV\u4eae\u54e5
p4489
I1
sV\u98ef
p4490
I2
sV=X>
p4491
I1
sV\u91ab\u5e2b
p4492
I1
sV x>
p4493
I5
sV\u6709\u8da3
p4494
I3
sV[2@@@=2]
p4495
I1
sV\u5206\u6790\u51fa
p4496
I1
sV\u72af\u898f
p4497
I7
sV\u547d\u5e95
p4498
I1
sV\u9905
p4499
I1
sV\u6797
p4500
I5
sV\u623f\u5730\u7522
p4501
I1
sV\u4e0b
p4502
I19
sV\u6a02\u610f
p4503
I1
sV\u53c3\u8207
p4504
I1
sV]@>,_
p4505
I1
sV\u72ac
p4506
I1
sV[e] ,_
p4507
I1
sV@@@]
p4508
I1
sV\u770b\u51fa
p4509
I1
sV\u561b
p4510
I69
sV\u98fc\u6599
p4511
I1
sV\u501f
p4512
I7
sV\u6a23
p4513
I8
sV\u4ee5\u524d
p4514
I35
sV\u80cc\u8ca0
p4515
I1
sV\u62ff\u4e0b\u4f86
p4516
I3
sV\u7e2b
p4517
I1
sV\u5c0f\u5fc3
p4518
I5
sVXXXX.\u005c
p4519
I1
sV.. <T 
p4520
I1
sVW.A.B:\u250c@@
p4521
I1
sV\u6ce2\u7f85\u871c
p4522
I1
sV\u660e\u661f
p4523
I4
sV\u5fb7\u5dde
p4524
I1
sV\u89ba
p4525
I2
sV\u516c\u53f8
p4526
I3
sV\u5927\u5c08
p4527
I1
sV\u65b0\u9032
p4528
I1
sV\u6d6e\u4e0a
p4529
I1
sV\u8b8a\u9ad8
p4530
I1
sV...(5.5)
p4531
I1
sV\u5728\u65bc
p4532
I1
sV\u900f\u904e
p4533
I5
sV.\u005c @>
p4534
I3
sV\u6ce1\u6cab
p4535
I1
sV\u694a\u6797
p4536
I1
sV\u4e0b\u8ab2
p4537
I1
sV\u7897\u7cd5
p4538
I1
sV\u5929\u54ea
p4539
I1
sV\u5f9e\u5c0f\u5230\u5927
p4540
I1
sV\u70ba\u4ec0\u9ebc
p4541
I53
sV\u9ad8
p4542
I30
sV..[2 
p4543
I1
sV\u7f75\u6b7b
p4544
I1
sV\u6559\u80b2
p4545
I3
sV\u2514<@ 
p4546
I2
sV\u5e6b
p4547
I11
sV\u54c1\u8cea
p4548
I2
sV...(1.2)
p4549
I20
sV\u4e82\u53eb
p4550
I3
sVeh,_
p4551
I4
sV ?/
p4552
I5
sV\u63a2\u8a2a
p4553
I5
sV\u5175
p4554
I1
sV\u8d99\u5c11\u5eb7
p4555
I3
sV..(2.5)[<L 
p4556
I1
sV...(1.1)<F
p4557
I1
sV\u5e0c\u81d8
p4558
I1
sV\u7121\u63f4
p4559
I1
sV\u6307\u5357
p4560
I1
sV\u5b9a\u4f4d
p4561
I1
sV\u5b83
p4562
I84
sV\u660e\u5e74
p4563
I1
sV\u807d\u5230
p4564
I8
sVX1]
p4565
I1
sV\u4ee5\u70ba
p4566
I14
sV\u4e03
p4567
I8
sV\u5df2\u5a5a
p4568
I1
sV\u9000\u4f0d
p4569
I1
sV\u60b6\u71b1
p4570
I1
sV\u6982
p4571
I1
sV\u500b\u4f4d
p4572
I1
sV\u6703\u4e0d\u6703
p4573
I21
sV\u5de5\u8b80
p4574
I2
sV\u4e00\u751f
p4575
I1
sV\u525b\u624d
p4576
I5
sV\u7570\u8b70
p4577
I1
sV..<E Bye-Bye E>.\u005c
p4578
I1
sV..\u250c<T 
p4579
I1
sV\u570b\u7814\u6240
p4580
I1
sV\u5e6b\u52a9
p4581
I7
sV\u770b\u904e
p4582
I10
sV\u7a2e
p4583
I97
sV\u5730
p4584
I8
sV\u800c\u4e14
p4585
I31
sV\u53f8\u6a5f
p4586
I4
sV\u807d\u8d77\u4f86
p4587
I1
sV\u591a\u4e45
p4588
I4
sV\u5e36\u9818
p4589
I1
sVxxx.\u005c
p4590
I2
sV\u8cab\u7a7f
p4591
I3
sV T> ,_
p4592
I1
sV[Mn].\u005c
p4593
I1
sV\u516c\u5206
p4594
I1
sV...(1)un,_
p4595
I1
sV\u96fb\u5f71
p4596
I8
sV\u63a1\u8a2a
p4597
I6
sV\u4e00\u5e74\u7d1a
p4598
I1
sV\u4e2d\u570b\u6642\u5831
p4599
I2
sV\u5348
p4600
I1
sV\u9019\u6642
p4601
I1
sV\u5e36\u56de\u53bb
p4602
I1
sV\u6b63
p4603
I7
sV\u73fe\u5728
p4604
I116
sV\u79ae\u62dc
p4605
I35
sV\u5c0f
p4606
I30
sV\u65b9\u4fbf
p4607
I1
sV\u7ad9
p4608
I9
sV\u6279\u8a55
p4609
I1
sV[1Oh=1].\u005c
p4610
I1
sVoh=Hi>.\u005c
p4611
I1
sV\u5982\u6b64
p4612
I1
sV\u4f60
p4613
I387
sV\u4eba\u50cf
p4614
I1
sV... (2.0) <Hi 
p4615
I1
sV\u8cc7\u6df1
p4616
I4
sV\u535a\u58eb
p4617
I1
sV\u770b\u500b
p4618
I1
sV\u5f35\u5634
p4619
I1
sV\u5feb
p4620
I15
sV(0) heN.\u005c
p4621
I4
sV 1]
p4622
I1
sV\u516c\u8a13\u7cfb
p4623
I3
sV\u9673\u7fa9\u4fe1
p4624
I8
sV\u5929\u554a
p4625
I4
sV..[1ey
p4626
I1
sV\u5bbf
p4627
I1
sV\u2514hey
p4628
I1
sV\u88e1\u5916
p4629
I1
sV\u5341\u4e00\u9ede
p4630
I2
sV\u516c\u5143
p4631
I2
sV\u6b61\u559c
p4632
I1
sV\u885d\u51fa\u53bb
p4633
I2
sV\u5f80
p4634
I6
sV(0)<@[1
p4635
I1
sV...(4.4)XX
p4636
I1
sV\u9805
p4637
I1
sV[1XXXX1]
p4638
I1
sV@@.\u005c
p4639
I1
sV\u908a
p4640
I7
sV\u9999\u5305
p4641
I3
sV.. @@[@]
p4642
I1
sV[Nh= On=].\u005c
p4643
I1
sV[1@@1][2@@@@2]
p4644
I1
sV\u53cd\u61c9\u51fa\u4f86
p4645
I2
sV--.
p4646
I1
sV\u6015
p4647
I17
sV\u820a\u820a
p4648
I1
sV\u9694\u5929
p4649
I1
sV\u56db\u584a
p4650
I4
sV\u9d28\u5634\u7378
p4651
I2
sV=--
p4652
I3
sV\u7671
p4653
I3
sV(0) mm.\u005c
p4654
I3
sV[AHh=].\u005c
p4655
I1
sV\u5929\u4f7f
p4656
I1
sV\u7e5e\u5230
p4657
I1
sV\u63a8
p4658
I1
sV=@>,_
p4659
I3
sV.. (H)
p4660
I1
sV\u9078\u64c7
p4661
I5
sV\u7e3d\u90e8
p4662
I1
sV\u7814\u7a76
p4663
I2
sV\u60c5\u4eba
p4664
I2
sV\u96a8\u6642
p4665
I4
sV\u7d44\u9577
p4666
I1
sV\u901a\u77e5\u66f8
p4667
I1
sV\u5c45\u7136
p4668
I4
sVhn=
p4669
I1
sV...(7.2)
p4670
I1
sV(0)[1 mh 1].\u005c
p4671
I1
sV\u52dd\u6295
p4672
I1
sV\u53f0\u8a9e
p4673
I2
sV\u4ef6
p4674
I9
sV\u4e92\u76f8
p4675
I1
sV\u5a01\u8105\u611f
p4676
I1
sV\u67d0
p4677
I6
sV\u633a\u80f8
p4678
I1
sV..<X [
p4679
I1
sV\u4fca\u570b
p4680
I6
sV\u912d\u829d
p4681
I2
sV(0) mh mh,_
p4682
I1
sV=1]?/
p4683
I1
sV\u8a18\u5f97
p4684
I14
sV\u5076\u723e
p4685
I3
sV--]
p4686
I2
sV..ho\uff0e
p4687
I1
sV xx.\u005c
p4688
I1
sV'
p4689
I63
sV<E old E>
p4690
I1
sV\u5982\u679c\u8aaa
p4691
I13
sV\u96b1\u5f62\u773c\u93e1
p4692
I6
sV\u9020\u578b
p4693
I1
sV\u6642\u4ee3
p4694
I3
sV\u6d88\u6975
p4695
I1
sV..no\uff0e
p4696
I1
sV\u54f2
p4697
I3
sV<E free E>
p4698
I1
sV\u520a\u7269
p4699
I1
sV\u8d77
p4700
I3
sV..Jackie.\u005c
p4701
I1
sV\u8a79
p4702
I4
sV(0) <@ <L2 drive L2>
p4703
I1
sV\u62d0\u5b50
p4704
I2
sV\u9304\u97f3
p4705
I1
sV\u5e36\u58de
p4706
I1
sVe=,_
p4707
I3
stp4708
Rp4709
(dp4710
S'_item_cache'
p4711
NsS'_max_cache'
p4712
NsS'_Nr_cache'
p4713
NsS'_N'
p4714
I48348
sb.