ccopy_reg
_reconstructor
p1
(cnltk.probability
FreqDist
p2
c__builtin__
dict
p3
(dp4
V1890
p5
I1
sV\u647a\u7d19
p6
I1
sV\u5b57\u5143
p7
I1
sV\u8001\u5be6\u8aaa
p8
I1
sVFrontier
p9
I1
sV\u554a
p10
I22
sV\u7b2c\u4e8c
p11
I7
sVassembler
p12
I1
sV\u6c92\u8457\u58a8\u5728
p13
I1
sV\u885b\u9053
p14
I1
sV\u8b0a\u5831
p15
I1
sV\u95dc\u4e86
p16
I2
sV\u4e00\u6a13
p17
I1
sV\u7b2c\u4e94
p18
I2
sV\u600e\u9ebc
p19
I20
sV\u6158
p20
I1
sV\u65bc\u662f
p21
I1
sVCEH
p22
I1
sV\u9084\u6c92
p23
I5
sVWing
p24
I1
sV\u81ea\u4f86\u6c34
p25
I1
sV\u5be6\u8e10
p26
I1
sV\u4e00\u6a23
p27
I11
sV\u767c\u5c55
p28
I1
sV\u5b78\u7c4d
p29
I1
sV\u6a02\u9ad8
p30
I1
sV\u50cf\u984f\u7f75\u5f97
p31
I1
sV\u9b54\u6cd5
p32
I2
sVendings
p33
I1
sV\u4e00\u5411
p34
I1
sVSPI
p35
I1
sV\u65e9\u554a
p36
I1
sV\u5bc4\u4fe1
p37
I1
sV\u89aa\u624b
p38
I1
sV\u9577\u76f8
p39
I1
sV\u7684\u4e8b
p40
I4
sV\u508d\u665a
p41
I3
sVThisIsAnEmoticonC
p42
I1
sV@
p43
I3
sV\u7d14\u767d
p44
I1
sV\u8b1b\u9053
p45
I1
sVPro
p46
I4
sV\u66f8\u53c8
p47
I1
sV\u6383\u5b8c
p48
I1
sV\u6254\u5230
p49
I1
sV\u96e2\u5b50
p50
I1
sVlinking/loading/library
p51
I1
sVBlade
p52
I2
sV\u53cd
p53
I3
sV\u6539\u770b
p54
I1
sV\u7206\u9ede
p55
I2
sV\u8a18\u8005
p56
I3
sV\u624b\u8173
p57
I1
sV\u5f8c\u63f4
p58
I1
sV\u6b63\u5e38
p59
I6
sV\u64cb
p60
I1
sV\u8a2d\u6210
p61
I1
sV\u53ea\u5f85
p62
I1
sVDOOM-like
p63
I1
sV\u89aa\u5718
p64
I2
sV\u4fee\u6539
p65
I4
sV\u7ffb\u8b6f
p66
I3
sV\u523b
p67
I2
sV\u6211\u5b78\u751f
p68
I2
sV\u51e1
p69
I1
sV\u9060
p70
I1
sV\u6709\u53bb
p71
I2
sV\u4e0d\u540c
p72
I6
sV\u77e5
p73
I1
sV\u89aa\u621a
p74
I3
sV\u7761\u4e86
p75
I7
sV\u798f\u4e86
p76
I1
sV\u5fc3\u88e1
p77
I1
sV\u7f6a
p78
I1
sVncb
p79
I1
sV\u5275\u610f
p80
I1
sV\u78bc\u7684\u597d
p81
I1
sV\u6a13\u4e0b
p82
I3
sV\u9650\u5b9a
p83
I2
sV\u6b72
p84
I1
sV\u6230\u968a
p85
I1
sV\u5176
p86
I5
sV\u65b0\u756a
p87
I1
sV\u53ef\u89e3\u6578\u7368
p88
I1
sV\u53ef\u662f
p89
I10
sV\u5fb9\u5e95
p90
I1
sV\u5e6b\u9673\u51a0\u5e0c
p91
I1
sV\u4e14
p92
I1
sV\u8f38\u51fa
p93
I1
sV\u627e\u5979
p94
I1
sV\u9ad8\u8208
p95
I1
sV\u627e\u597d
p96
I1
sV\u7b2c\u4e00
p97
I22
sV\u505a\u500b
p98
I1
sV\u7d1b\u7d1b
p99
I1
sV\u5546\u52d9
p100
I1
sV\u8dd1\u53bb
p101
I1
sV\u65b0\u751f
p102
I2
sV\u7a7a\u4e4b
p103
I2
sV\u89e3\u9664
p104
I1
sV\u5f88\u7d05\u7684
p105
I1
sV\u4e5d\u5e74
p106
I1
sVsecond
p107
I1
sV\u4e0d\u7576
p108
I1
sV\u53e3\u5473
p109
I2
sV\u7fa4\u8d77
p110
I1
sV\u8ecd\u65b9
p111
I1
sVquot;!important&amp;quot
p112
I1
sV\u597d\u4e0d\u5bb9\u6613
p113
I2
sV\u7121
p114
I5
sVneo
p115
I1
sVptt
p116
I1
sV\u5403\u98ef
p117
I5
sV\u7761\u5427
p118
I2
sV\u4f60\u7684
p119
I4
sV\u7528\u5566
p120
I1
sV+
p121
I35
sV\u6210\u529f
p122
I6
sV\u662f
p123
I137
sV\u98fd\u9152
p124
I1
sV\u60f3\u88ab
p125
I1
sV\u5fa9\u8208
p126
I1
sVAmazon
p127
I1
sV\u4e0a\u5929
p128
I1
sV\u4fee\u98fe
p129
I1
sV\u7684\u5047
p130
I1
sVnew
p131
I2
sV\u4e0a\u8eca
p132
I1
sV\u96f2\u7aef
p133
I8
sV0610
p134
I1
sV\u5247\u662f
p135
I1
sV\u63d2\u62d4
p136
I1
sV\u4eba\u4eba\u90fd
p137
I3
sV\u591a\u5a92\u9ad4
p138
I1
sV\u8eab
p139
I1
sV\u6642\u9593
p140
I21
sV\u9b3c\u8a71
p141
I1
sV\u4e2d\u4e8c
p142
I2
sV\u795e
p143
I2
sV\u5728\u5bb6
p144
I2
sV\u4e0d\u7528
p145
I6
sVhere
p146
I1
sV\u7684\u738b\u65ed\u6b63
p147
I1
sV\u5f88\u9806
p148
I2
sV\u9069\u7528
p149
I1
sV\u9322
p150
I4
sV\u4f86\u4e0d\u53ca
p151
I1
sV\u5f9e\u982d
p152
I2
sV\u6559
p153
I3
sV\u7684\u8aaa
p154
I4
sV101
p155
I4
sV104
p156
I1
sV\u5bb6\u4e86
p157
I2
sV\u958b\u6703
p158
I13
sV\u8cb7\u7684
p159
I2
sV\u65b0\u624b
p160
I1
sV\u770b\u4f86
p161
I6
sV\u738b\u96ea\u7d05
p162
I1
sV\u90fd\u8b8a
p163
I1
sVk
p164
I1
sV\u4ee5\u4f86
p165
I1
sV\u7761\u4e0d
p166
I3
sV\u90e8\u843d\u683c
p167
I3
sVAssistant
p168
I1
sV\u6700\u8fd1
p169
I18
sV\u7121\u6cd5
p170
I13
sV\u5f88\u6015\u6211
p171
I1
sVWonderland
p172
I1
sVTest-Driven
p173
I1
sV\u4f86\u81ea
p174
I1
sV\u5c07\u5168\u7dda
p175
I1
sVNOP
p176
I1
sV\u6d88\u9664
p177
I1
sV\u793e\u662f\u73a9
p178
I1
sV\u7247
p179
I2
sV\u5f80\u5f80
p180
I2
sV\u7684\u5a01\u80fd\u55ce
p181
I1
sV\u76ee\u524d
p182
I9
sVclassification
p183
I1
sV\u633a\u5e2b
p184
I1
sV?\u5b57?\u540d
p185
I1
sV\u8cb7\u4e0d\u5230
p186
I1
sV\u7d30\u8a9e
p187
I1
sV\u63a5\u8d77\u4f86
p188
I1
sV\u6d17\u6389
p189
I1
sV\u540e
p190
I2
sV\u4ed6\u5011
p191
I11
sV\u7d93
p192
I1
sVTsunamimk
p193
I2
sV\u4f86\u8005
p194
I1
sV\u5446\u5446
p195
I1
sV\u97f3\u540c
p196
I1
sV\u4e00\u4f86
p197
I1
sV\u8a98\u60d1
p198
I1
sV\u904e\u5e74
p199
I2
sV\u525b
p200
I19
sVunit
p201
I1
sV\u80fd\u8aaa
p202
I3
sV\u4e3b\u89d2
p203
I4
sV\u4e5f\u597d
p204
I2
sV\u7981\u6b62
p205
I1
sV\u8cc7\u8a0a\u4eba
p206
I1
sV\u53b2\u5bb3
p207
I2
sV\u807d\u83ab\u6587\u851a\u7684
p208
I1
sV\u6731\u5b78
p209
I1
sV\u8d95\u8457
p210
I1
sV\u5beb\u7684
p211
I3
sV\u61c2\u7684\u5269
p212
I1
sV\u8a71\u8aaa\u56de\u4f86
p213
I1
sVlidiot-restaurant.com/assets/images/news/news_091112.jpg
p214
I1
sVsubkey
p215
I1
sVptrace
p216
I1
sV\u6311\u9078
p217
I1
sVGOGOGO
p218
I1
sV\u89ba\u5f97
p219
I19
sV\u6d17\u8863\u670d
p220
I1
sV\u65e5\u5b50
p221
I2
sV\u725b\u8089\u9eb5
p222
I1
sV\u62ff\u5200
p223
I1
sVGHOST
p224
I2
sV\u8b93\u4eba
p225
I4
sV\u4fee\u990a
p226
I3
sV\u7d93\u5178
p227
I2
sV\u8f38\u51fa\u5230
p228
I1
sV\u7533\u8acb\u5230
p229
I1
sV\u4efb\u5929\u5802
p230
I1
sV\u624d\u83ef
p231
I1
sV\u4e86\u5427
p232
I12
sV\u672b\u73ed\u8eca
p233
I1
sV\u62d2\u6230
p234
I1
sV\u641e\u5f97
p235
I1
sV99
p236
I1
sV\u55ae\u65b9\u9762
p237
I1
sV\u5167\u7684
p238
I1
sV\u8d70\u53bb
p239
I1
sV\u95dc\u4fc2
p240
I1
sV\u96fb\u8166
p241
I16
sV\u63a5\u4efb
p242
I1
sV2\u5343
p243
I1
sV91
p244
I1
sV90
p245
I1
sV92
p246
I1
sVShirou
p247
I1
sV\u63a5\u8457
p248
I4
sV\u660e
p249
I1
sVLibraries
p250
I1
sVAvalon.....finally
p251
I1
sV\u6b63\u5f0f
p252
I1
sV\u662f\u8aaa
p253
I4
sV3200
p254
I1
sV\u653e\u5bb6\u88cf
p255
I1
sVpresentation
p256
I1
sVwork
p257
I1
sV\u5be6\u4f5c
p258
I3
sV\u9913
p259
I5
sV\u78ba\u8a8d
p260
I2
sV\u9023\u7dda
p261
I1
sV\u8df3
p262
I2
sV\u8a72
p263
I29
sV\u4e5f\u592a
p264
I2
sVdunno
p265
I1
sV\u984f\u5982\u61b6
p266
I1
sV6850603
p267
I1
sV\u6d3e
p268
I1
sVmy
p269
I5
sV\u80fd\u8acb
p270
I1
sV\u662f\u8ab0
p271
I1
sVResponsib
p272
I1
sV\u660e\u5929
p273
I13
sV\u81ea\u52d5
p274
I6
sV\u56db\u8655
p275
I1
sVChrome
p276
I7
sV\u6d88
p277
I1
sVLin
p278
I1
sVJavaScript
p279
I3
sVsmtp
p280
I1
sV\u9084\u4e0d\u5982
p281
I1
sV\u6c92\u4eba
p282
I1
sV\u559d\u4e0d
p283
I1
sV\u4ea4\u6613
p284
I1
sV\u63b0\u4e86
p285
I1
sV\u9ed1\u540d\u55ae
p286
I1
sV\u72c2\u885d
p287
I1
sV\u60f3\u8981
p288
I6
sV\u4fee
p289
I3
sV\u52a0\u5bc6\u906d
p290
I1
sV\u7af6\u8cfd
p291
I1
sV\u9ede\u4e86
p292
I6
sViconCode
p293
I1
sV\u7247\u6bb5
p294
I1
sVU.S
p295
I1
sVend
p296
I1
sV\u6e05\u6668
p297
I1
sVquot
p298
I8
sV\u91cd\u5beb
p299
I1
sV\u8072\u7dda
p300
I1
sV\u570b\u8ecd
p301
I1
sV\u9f9c
p302
I1
sV\u6293\u56de\u4f86
p303
I1
sVhow
p304
I1
sV\u8ab2
p305
I5
sV\u63ed\u9732
p306
I1
sVinterview
p307
I1
sV\u6df1\u5165
p308
I1
sV\u5f88\u7d30\u4f46
p309
I1
sV\u6c92\u4e8b
p310
I1
sVA
p311
I3
sV\u5927\u8eca\u62fc
p312
I1
sV\u5230\u7ad9
p313
I1
sV\u525b\u88ab
p314
I1
sV\u66f8\u672c
p315
I1
sV\u76ee\u9304
p316
I3
sV\u4eca
p317
I1
sV\u6253\u96f7
p318
I1
sV\u8de8\u5e74
p319
I1
sV\u5f79
p320
I1
sVECFA
p321
I2
sV\u7e3d\u7ba1
p322
I2
sV\u7fd4
p323
I1
sV\u549a\u549a
p324
I2
sV\u4e94\u5f69
p325
I2
sV1456609
p326
I1
sV\u4e2d\u4e0a
p327
I1
sV\u5446\u548c
p328
I1
sV\u53d7\u4e0d\u4e86
p329
I2
sV\u96e3\u904e
p330
I1
sV\u597d\u5403\u61f6\u505a
p331
I1
sV\u7d44\u8a9e
p332
I1
sV\u7e3d\u7b97
p333
I8
sV\u4e0d\u61c9\u8a72
p334
I1
sV\u610f\u898b
p335
I1
sV\u770b\u4e86
p336
I12
sV\u52a0\u4e0a
p337
I4
sV\u7dca\u5f35
p338
I1
sV......
p339
I1
sV\u5f8c\u624d
p340
I1
sVstand-alone
p341
I1
sV\u6642\u85aa
p342
I1
sV\u9069\u5408
p343
I4
sV\u653e
p344
I4
sVGD
p345
I3
sV\u901a\u5e38
p346
I2
sV\u770b\u6e96
p347
I1
sVAnother
p348
I1
sV\u6c60\u888b
p349
I1
sV\u77e5\u540d\u5ea6
p350
I1
sV\u9023\u7d50
p351
I3
sV\u8a18\u61b6
p352
I1
sV\u53f0\u4e2d
p353
I2
sV\u4e0d\u77e5
p354
I3
sV\u8102
p355
I1
sV\u5f80\u4f86
p356
I1
sV\u624d\u6709
p357
I1
sV\u518d
p358
I29
sV\u300c
p359
I105
sV\u4e0a\u5b8c
p360
I1
sV\u9055\u53cd
p361
I1
sV6.5
p362
I5
sV\u53ea\u5728
p363
I1
sV6.2
p364
I1
sVTinyXml
p365
I1
sV\u6253\u9ebb\u5c07
p366
I1
sVUnderstanding
p367
I1
sV\u4e8b\u90fd
p368
I1
sV\u5c31\u8d70
p369
I1
sV\u5c31\u592a
p370
I1
sV\u624b\u6307
p371
I1
sV\u5168\u901f
p372
I1
sVGSM
p373
I1
sV\u9023\u7e8c
p374
I3
sVUART
p375
I1
sV\u90fd\u51fa\u4e0d
p376
I1
sVProx
p377
I1
sV,
p378
I71
sV\u6a21\u5f0f
p379
I2
sV\u5b57\u6a23
p380
I1
sV\u8cc7\u8a0a
p381
I3
sV\u849f
p382
I1
sV\u8c46\u6c99
p383
I1
sV\u7684\u78ba
p384
I4
sV\u6c34
p385
I1
sV\u696d\u7684\u8a72
p386
I1
sV\u5c0f\u73ed\u5236
p387
I1
sV\u534a\u591c
p388
I4
sV\u6240
p389
I4
sV\u5b8c\u6210
p390
I6
sVMRT
p391
I1
sV\u590f\u5b63
p392
I1
sV\u9ed8\u54c0
p393
I1
sVsafe
p394
I1
sV\u91cd
p395
I1
sV\u704c
p396
I1
sV\u662f\u8981
p397
I1
sV\u6216\u591a\u6216\u5c11
p398
I1
sVrefactoring
p399
I1
sV\u8b19\u865b
p400
I1
sV\u914d\u97f3
p401
I1
sV\u6c88\u91cd
p402
I1
sV\u8a08\u6642
p403
I1
sV\u6539\u9032
p404
I1
sV\u9910\u98f2
p405
I1
sV\u5ef6\u9072
p406
I1
sV\u6280\u85dd
p407
I1
sV\u7684\u98ef
p408
I1
sV\u8f49\u4efb
p409
I1
sV\u8ce3\u4e0d\u6389
p410
I1
sVIn
p411
I1
sV\u7e3d
p412
I4
sV\u8aaa\u4e0d\u5b9a
p413
I2
sV\u5165\u9580
p414
I2
sV\u6771\u897f
p415
I20
sV\u5f88\u5927
p416
I1
sV\u8981\u5831
p417
I3
sV\u56e7\u4e86
p418
I1
sVAPI
p419
I10
sV\u5a01\u56b4
p420
I1
sV\u8eca\u89aa
p421
I1
sV\u8d70\u4e0b\u53bb
p422
I2
sVdebug
p423
I2
sVcURL
p424
I1
sVzero-day
p425
I1
sVASS&amp;quot
p426
I1
sV\u6c23\u9ad4
p427
I1
sV\u50cf\u662f
p428
I3
sV\u932f\u8aa4
p429
I4
sV\u63ee\u8ecd
p430
I1
sV\u8b80\u8005
p431
I1
sV\u8f09
p432
I1
sVbillypan
p433
I1
sV\u8d8a
p434
I2
sVSoC
p435
I1
sV\u73a9\u6436
p436
I1
sV\u5e38\u5e38
p437
I3
sVInvestigation
p438
I1
sV\u5c11\u5973
p439
I4
sV\u6253
p440
I4
sV\u60f9\u5230
p441
I1
sV\u6642\u7a0b
p442
I1
sV\u63d0\u65e9
p443
I1
sVshellcode
p444
I3
sV\u6c34\u9903
p445
I2
sV\u72c2\u5a4a\u6211
p446
I1
sV\u52a0
p447
I2
sV\u7cfb\u9928
p448
I1
sV\u865b\u5bf6
p449
I1
sV\u5230\u5834
p450
I1
sV\u5efa\u8b70
p451
I2
sV\u7b46\u96fb
p452
I6
sV\u4e3b\u6a5f
p453
I2
sVrz
p454
I1
sV\u6b63\u7576
p455
I1
sV\u6253\u958b
p456
I3
sV\u8ab0
p457
I8
sV\u6307\u4ee4
p458
I7
sV\u4e14\u5f88
p459
I1
sVrc
p460
I1
sV\u683c\u5f0f
p461
I1
sV\u6975\u5ea6
p462
I2
sV\u505a\u5230
p463
I1
sVgod..it's
p464
I1
sV\u9670\u9593
p465
I2
sV\u61c2
p466
I2
sVWord
p467
I1
sV\u5927\u8072
p468
I2
sV\u5168\u90fd
p469
I3
sV\u8f49
p470
I2
sVKomicaWiki
p471
I1
sVWork
p472
I1
sVWorm
p473
I1
sV\u5168\u90e8
p474
I4
sV\u79d2
p475
I4
sV\u8d70\u4e86
p476
I1
sV\u6539\u6210
p477
I2
sV\u9644\u8fd1
p478
I1
sV\u55ac\u88dd
p479
I1
sV\u626e\u6f14
p480
I1
sV\u88dc
p481
I1
sV\u5f88\u4e45
p482
I6
sV\u5361
p483
I4
sV\u5269\u9918
p484
I2
sV2.0
p485
I1
sVvolatile
p486
I1
sV\u4e0a\u5b78
p487
I4
sV\u5bb9\u91cf
p488
I1
sV\u5be6
p489
I1
sV\u8b8a\u66f4
p490
I1
sV\u9ee8
p491
I1
sV\u7406\u667a
p492
I5
sV15
p493
I2
sV\u8acb\u554f
p494
I1
sV\u7387\u5f88\u9ad8\u7684
p495
I1
sV\u65b7\u6389
p496
I1
sVPre-installed
p497
I1
sV\u751c\u5ea6
p498
I1
sV\u626e\u5f97\u8d85\u50cf
p499
I1
sV\u88dd\u4e86
p500
I2
sV\u64ad\u5831
p501
I1
sV\u6a94\u6848
p502
I15
sV\u5728
p503
I92
sV\u597d
p504
I19
sV\u9ad8\u8077
p505
I1
sV\u4ec0\u9ebc
p506
I18
sV\u93c8\u63a5
p507
I1
sV\u60f3\u8b1b
p508
I1
sVn.jpg
p509
I1
sV\u4f54\u7528
p510
I1
sV\u6cb3\u9053
p511
I4
sV\u624d\u6068\u5927
p512
I1
sV\u819c\u62dc
p513
I1
sVcoding
p514
I2
sV\u9078\u64c7\u984c
p515
I1
sV\u65c1\u5c0f
p516
I1
sV\u5716\u50cf
p517
I1
sV\u653e\u5728
p518
I3
sVhook
p519
I1
sV\u65b0\u4eba\u7269
p520
I1
sV\u7d14
p521
I1
sVanother
p522
I1
sV\u6216
p523
I3
sVPorting
p524
I1
sV\u6211\u5beb
p525
I2
sVwell-formed
p526
I1
sV\u5728\u4e00\u8d77
p527
I1
sV\u8d9f
p528
I2
sV\u82b1
p529
I2
sV\u60b2\u50b7
p530
I1
sVSymbianOS
p531
I1
sVm-flo
p532
I1
sVservice
p533
I1
sVbackdoor
p534
I1
sV\u6c23\u6d3e
p535
I1
sV\u6ce8\u610f
p536
I2
sV\u5167\u885d
p537
I1
sV\u8ad6\u6587
p538
I20
sV\u8a8d\u8b49
p539
I1
sV\u9810\u671f
p540
I2
sV\u65af
p541
I1
sV\u9031\u4e8c
p542
I2
sV\u5f8c\u6094
p543
I1
sV\u884c\u52d5
p544
I4
sV\u906d\u5230
p545
I3
sV\u51b7
p546
I2
sV\u610f\u8b58
p547
I1
sV\u58d3\u5236
p548
I1
sV\u84ee\u771f\u7d05
p549
I1
sV\u516b\u65b9
p550
I2
sV\u4e0d\u56de
p551
I1
sV\u8b1b\u5f97\u5c0f\u7d2f
p552
I1
sV\u8a8d\u8b58
p553
I4
sVECX
p554
I1
sV\u5f9e\u7246\u5916
p555
I1
sVSearch
p556
I2
sVB
p557
I3
sV\u63a2\u7d22
p558
I1
sV\u6211\u5bb6
p559
I1
sV\u53cb
p560
I1
sV\u5728\u5831
p561
I3
sV\u597d\u597d\u7b11
p562
I1
sV\u6c34\u96fb\u8cbb
p563
I1
sVD
p564
I4
sV\u672b\u548c
p565
I1
sV\u5df4\u638c
p566
I1
sV\u61c2\u5f97
p567
I1
sV\u4f9d\u4ec1
p568
I1
sV\u809a\u721b
p569
I2
sV\u62c6\u6389
p570
I1
sV\u9644\u6a94
p571
I1
sV\u7b2c\u4e09
p572
I2
sV\u88dd
p573
I3
sV\u8ddf
p574
I37
sV\u540d\u70ba
p575
I1
sV1046316632
p576
I1
sV\u7ae0\u7bc0
p577
I1
sVCode
p578
I5
sV\u662f\u88ab
p579
I1
sV\u672a\u6599
p580
I1
sV\u6a5f\u5668\u4eba
p581
I3
sV\u89aa\u611b
p582
I1
sVUseful
p583
I1
sV\u4e9e\u6d32
p584
I2
sV\u4eba\u8cc7
p585
I1
sV\u773c\u6dda
p586
I1
sV\u901f\u5ea6\u611f
p587
I1
sV\u9078\u9805
p588
I1
sVproject
p589
I3
sV\u8981\u4e0d\u8981
p590
I2
sV\u7d04\u597d
p591
I1
sVWSN
p592
I1
sV\u5b78\u5f1f
p593
I23
sV\u7b11\u4e86
p594
I2
sV\u7248\u9762
p595
I1
sV\u98fd
p596
I2
sVThisIsAHyperLink
p597
I390
sV\u586b\u98fd
p598
I1
sV\u8b49\u5be6
p599
I1
sV\u725b\u8089
p600
I2
sV\u8ddf\u5c08\u652f\u8655\u8aaa
p601
I1
sV\u6703
p602
I86
sV\u9707\u6bd4
p603
I1
sV\u8acb\u5ba2
p604
I1
sV\u5916\u5a46
p605
I1
sV\u4e09
p606
I23
sV\u6211\u5b78
p607
I1
sV\u5feb\u6490\u6b7b
p608
I1
sV\u516c\u8eca
p609
I3
sV\u6df7\u5165
p610
I1
sV\u6797\u67cf\u9752
p611
I1
sV\u6230\u54e6
p612
I1
sVshell
p613
I1
sVrar
p614
I1
sV\u9f90\u5927
p615
I1
sV\u65b0\u7684
p616
I2
sVThisIsAnEmoticon
p617
I1
sV\u908a\u7684
p618
I1
sV\u8b1b
p619
I15
sV\u76f8\u7576
p620
I4
sVCrBoy
p621
I1
sVuC/OS-III
p622
I1
sV\u5ee2\u6587
p623
I1
sV\u65b7\u7dda
p624
I2
sV\u5927
p625
I17
sV\u7684\u5927
p626
I1
sV\u96d6\u8aaa
p627
I2
sV\u5c31\u8cfa
p628
I1
sV\u7684\u5922
p629
I1
sV\u5269\u4e0b
p630
I1
sV\u5e02\u5834
p631
I1
sV\u56c9
p632
I7
sV\u6b65\u9a5f
p633
I1
sV\u9084\u597d
p634
I7
sV\u958b\u8457
p635
I1
sV\u5718\u8cfc
p636
I1
sV\u4e26\u4e14
p637
I2
sV\u5b78\u7fd2
p638
I5
sV\u52a0\u5bc6\u7248
p639
I1
sV\u6162\u901f
p640
I1
sV\u4e00\u7528\u5c31
p641
I1
sV\u9762\u8a66
p642
I7
sV\u5c31\u6c92
p643
I1
sV\u9632\u6bd2
p644
I2
sV\u751f\u5b58
p645
I1
sV\u4e5f\u7b97
p646
I1
sV\u4ea4\u5927
p647
I1
sVobject
p648
I2
sV115889816
p649
I1
sV\u9060\u7aef
p650
I1
sV\u554f
p651
I7
sV\u4eba\u54e1
p652
I1
sV\u660f\u6697
p653
I1
sV\u6709\u500b
p654
I2
sV\u62d6
p655
I1
sV\u591a\u5716
p656
I1
sV\u885d
p657
I2
sVu'u
p658
I1
sVLD_PRELOAD
p659
I1
sV\u95dc\u8d77
p660
I1
sV\u807d\u4ed6
p661
I2
sVWhats
p662
I1
sVWang
p663
I1
sV\u4e8c\u5341
p664
I1
sV\u652f\u6301
p665
I1
sVdoc
p666
I1
sV\u57f7\u884c\u6a94
p667
I1
sV\u90a3\u9ebc\u5c11
p668
I1
sV\u9913\u4e86
p669
I1
sV\u8a71
p670
I4
sV\u7684\u597d
p671
I1
sV\u4f69\u670d
p672
I2
sV\u78b0\u5de7
p673
I3
sV\u9177
p674
I2
sV\u61f6\u5f97
p675
I1
sV\u5169\u5100
p676
I1
sV\u8cd1\u707d
p677
I2
sVIts
p678
I1
sV\u6f0f\u6c23
p679
I1
sV\u6700\u5f8c
p680
I16
sVSabre
p681
I1
sVquot;English
p682
I1
sV\u5230\u5e95
p683
I8
sV\u4e00\u4e0b
p684
I35
sV\u6311\u51fa
p685
I1
sV\u548c\u8aaa
p686
I1
sV\u5b57\u554a
p687
I1
sV\u660f\u7761
p688
I1
sV\u6536\u5230
p689
I3
sV\u76f8\u4fe1
p690
I2
sV\u8981\u6c42
p691
I2
sV\u6253\u932f
p692
I1
sVTTU
p693
I4
sV\u601d\u8003
p694
I4
sV\u96c6\u9ad4
p695
I1
sV\u7761\u7684
p696
I1
sV\u771f\u7684
p697
I47
sV\u4f9d
p698
I1
sV\u53bb\u6253
p699
I1
sV\u8d77\u4f86
p700
I10
sV\u90a3
p701
I53
sV\u4e0d\u51c6
p702
I1
sV\u9081\u5165
p703
I1
sV\u6b63\u5e38\u5316
p704
I1
sVimplementation
p705
I1
sV\u767e\u79d1
p706
I1
sV\u9451\u5b9a
p707
I1
sV\u61f7\u820a
p708
I1
sV\u525b\u597d
p709
I4
sV\u653e\u5230
p710
I1
sV\u7528\u5149
p711
I1
sV\u6bb5
p712
I2
sV\u5176\u4ed6
p713
I17
sVxml.etree.ElementTree
p714
I1
sV\u653e\u9001
p715
I1
sV\u88dd\u7f6e
p716
I1
sV\u9732\u9ede\u7167
p717
I1
sV\u90fd\u5f88
p718
I4
sV\u593e
p719
I1
sVdo
p720
I1
sV\u5e74\u521d
p721
I1
sVH1N
p722
I1
sV\u4e0a\u7dda
p723
I4
sV\u932f\u4e86
p724
I1
sVde
p725
I2
sV\u5132\u5b58
p726
I1
sV13
p727
I3
sV\u8a71\u4e5f
p728
I1
sV\u8a18\u61b6\u7336\u65b0
p729
I1
sV\u88ab\u6233\u7684
p730
I1
sV\u4e0b\u9031
p731
I8
sV\u4e0d\u4e86
p732
I1
sVCCS
p733
I1
sVGEASS
p734
I1
sV\u8cb7\u5230
p735
I1
sVX
p736
I4
sV\u5065\u5eb7
p737
I1
sVlester
p738
I1
sV\u96c6\u788c
p739
I1
sV\u5f80\u5e38
p740
I1
sV\u597d\u8655
p741
I1
sV\u8ce3\u6389
p742
I1
sV\u9762
p743
I4
sV\u53e5
p744
I9
sV\u5f85\u5728
p745
I1
sV\u58de\u4e86
p746
I1
sV\u4e8b\u7684
p747
I1
sV\u4e0d\u518d
p748
I2
sV\u91cd\u704c
p749
I1
sV\u904b\u8f49
p750
I1
sV9
p751
I6
sV\u7d50\u679c
p752
I24
sVjserv
p753
I2
sV\u6df1
p754
I1
sV415
p755
I1
sV\u800c\u6230\u624d
p756
I1
sVKuon
p757
I1
sV\u982d\u5c31
p758
I1
sV\u68cd\u5b50
p759
I1
sV18
p760
I2
sV\u63a8\u85a6\u4fe1
p761
I1
sV\u9078
p762
I1
sV\u4e0d\u719f
p763
I2
sV\u4e3b\u984c
p764
I1
sV174345
p765
I1
sV\u7e7c
p766
I1
sV\u904b\u4f5c
p767
I2
sV\u6253\u53bb
p768
I1
sV\u773e\u4eba
p769
I1
sV\u72c0\u6cc1
p770
I3
sV\u56c92
p771
I1
sV\u9ad8\u624b
p772
I2
sV465\u842c
p773
I1
sV\u624d\u662f
p774
I1
sV\u8b8a
p775
I7
sV\u9060?\u51dc
p776
I1
sV\u623f\u6771
p777
I1
sV\u7d44\u968a\u56de
p778
I1
sV2\u7684
p779
I1
sV\u4e0d
p780
I97
sV\u9813
p781
I2
sV\u641c\u5c0b
p782
I8
sV\u5929\u4eae
p783
I1
sV\u6176\u5e78
p784
I1
sVJiang
p785
I1
sVAndroid
p786
I9
sV\u84bb\u6930\u679c
p787
I1
sV\u5357\u7dda
p788
I1
sV\u628a\u5b83
p789
I2
sV03
p790
I1
sV\u9023
p791
I8
sV01
p792
I1
sV07
p793
I2
sV\u66f8\u624d
p794
I2
sV\u5929
p795
I26
sV\u7761\u98fd
p796
I1
sV08
p797
I2
sV09
p798
I3
sV\u6b72\u6578
p799
I1
sV\u7d50\u675f
p800
I4
sV\u63a8\u6389
p801
I1
sVc2g
p802
I1
sV\u7b54\u6848
p803
I3
sV\u7406\u6027
p804
I4
sV\u6709\u7761
p805
I1
sV\u73fe\u6cc1
p806
I2
sVirc
p807
I1
sV\u5831\u916c
p808
I1
sV\u807d\u898b
p809
I1
sV\u7a81\u7834
p810
I1
sV\u5634\u995e
p811
I1
sV\u9577\u6587
p812
I1
sVC
p813
I13
sV\u60f3\u4e86\u5f88\u4e45
p814
I1
sV\u8996\u7a97
p815
I2
sV\u5f88\u597d
p816
I3
sV\u95dc\u6a5f
p817
I1
sV\u4e5d\u4e00\u4e8c
p818
I1
sV\u5c08\u696d
p819
I1
sV\u958b\u5929\u7a97
p820
I2
sV\u969c\u7919\u7269
p821
I1
sV2010.04
p822
I1
sV\u6574\u5408\u5230
p823
I1
sV\u5c31\u8b80
p824
I1
sVCloud
p825
I1
sV\u4e0d\u7136
p826
I4
sV\u539f\u59cb
p827
I2
sV\u7de8\u8b6f
p828
I1
sVwtf
p829
I1
sV\u5373\u6642
p830
I3
sV\u8f15\u9b06
p831
I1
sV\u55ce
p832
I25
sV\u81ea\u4fe1
p833
I1
sV\u6e9c\u53bb
p834
I1
sV\u5728\u98c4\u96e8
p835
I1
sV\u57fa\u65bc
p836
I1
sV\u6069\u611b
p837
I1
sV\u904e\u5b8c
p838
I1
sV\u8a721
p839
I1
sV\u4e0d\u53ef\u80fd
p840
I5
sVMOS
p841
I12
sV\u624b\u6a5f
p842
I22
sV\u4f4d\u5143\u7d44
p843
I1
sV\u5efa\u696d
p844
I1
sV\u9801\u9762\u53cd
p845
I1
sVMOU
p846
I1
sV\u517c
p847
I1
sV\u6709\u5728
p848
I2
sV\u677e\u4e0b
p849
I1
sV\u63a8\u5c0e
p850
I1
sV\u505c\u6b62
p851
I2
sV\u624d
p852
I35
sV\u60f3\u8ce3
p853
I1
sV\u4f55
p854
I1
sV\u7576\u521d
p855
I2
sV\u7a7f
p856
I1
sVsk_buff
p857
I1
sV\u5f88\u5c0f
p858
I1
sV\u5feb\u6a02
p859
I1
sV\u592a
p860
I8
sV\u99d5\u7167
p861
I2
sV\u5931\u6557
p862
I3
sV\u4e09\u660e\u6cbb
p863
I1
sV\u80cc\u666f
p864
I4
sV\u8a55\u65b7
p865
I1
sV\u6253\u5230
p866
I1
sV\u4fdd\u5b58
p867
I1
sVwenpei
p868
I1
sVloader
p869
I1
sV\u523a\u773c
p870
I1
sV\u6709\u6c92\u6709
p871
I5
sV1.7
p872
I1
sV\u4ee4\u4eba
p873
I5
sV\u82f1\u6587
p874
I3
sVStarbucks
p875
I2
sV\u6559\u4e86\u600e\u8fa6
p876
I1
sV\u65e9\u77e5\u5c31
p877
I1
sV\u7db2\u5740\u7684
p878
I1
sVplurkapi
p879
I1
sV\u6d88\u53bb
p880
I1
sV\u56db\u6708
p881
I4
sV\u4e45\u6c92\u78b0
p882
I1
sV\u4e2d\u6b63
p883
I1
sV\u76f8\u53cd
p884
I1
sV\u534a\u5e74
p885
I1
sV\u9810\u611f
p886
I2
sV\u6b61\u8fce
p887
I3
sV\u5e36\u6211
p888
I1
sVJSON
p889
I1
sV\u4e32
p890
I1
sV\u7528\u904e
p891
I1
sV\u78a9\u4e8c
p892
I1
sV\u591a\u51fa
p893
I1
sV\u5713\u684c
p894
I1
sV\u9867\u554f
p895
I1
sV\u633e\u6301
p896
I1
sVSDK+Carbide
p897
I1
sV\u914d\u5099
p898
I1
sV\u555f\u52d5
p899
I3
sV\u7532\u9aa8\u6587
p900
I1
sV\u75db\u82e6
p901
I1
sVcanbe
p902
I1
sV\u641e\u5b9a
p903
I5
sV\u6642
p904
I17
sV\u6210\u5404
p905
I1
sV\u53cd\u6b63
p906
I1
sV\u7814\u7a76
p907
I11
sV\u4e16\u754c
p908
I4
sVCA
p909
I1
sV\u7f3a\u4e4f
p910
I1
sVFlow
p911
I1
sV\u7591\u4f3c
p912
I1
sV\u5371\u6a5f
p913
I1
sV\u904e
p914
I18
sV\u817f\u98ef
p915
I1
sV\u64ad\u5f97
p916
I1
sV\u6b61\u6a02
p917
I1
sVOdds
p918
I1
sV\u7b54
p919
I1
sV\u5168\u7403
p920
I2
sVCR
p921
I1
sVHoneypot
p922
I1
sVPhD
p923
I1
sV7\u96bb
p924
I1
sV\u4f5c
p925
I1
sV\u53f2\u4e0a
p926
I1
sV\u88e1\u7684
p927
I1
sVDebugging
p928
I2
sVexception
p929
I1
sV\u5c0d\u4e86
p930
I2
sV\u51ac\u5b63
p931
I1
sV\u65b7\u65b7\u7e8c\u7e8c
p932
I1
sV\u53ef\u4f36\u53ef\u4fd0\u6e05\u75d8\u51dd\u9732
p933
I1
sV\u5fb7\u660e
p934
I1
sVInto
p935
I1
sV\u51b7\u9580
p936
I1
sV\u60f3\u8d77
p937
I2
sVn
p938
I8
sV\u8d70
p939
I2
sV\u4fb5\u72af
p940
I2
sV\u7092
p941
I1
sV\u52d5\u624b
p942
I1
sV\u50f9
p943
I1
sV\u5de6\u4e0a\u89d2
p944
I1
sVcracked
p945
I1
sVmaydaymo
p946
I1
sV\u6012\u795e
p947
I1
sV\u5de5\u4f5c\u91cf
p948
I1
sV\u7d05\u8272
p949
I1
sV\u4ee3\u8868
p950
I4
sV\u8003\u91cf
p951
I2
sV\u8907\u7fd2
p952
I3
sVOpenmoko
p953
I1
sV\u982d\u660f\u8166\u8139
p954
I1
sV\u98a8\u8272
p955
I2
sV\u6709\u9650
p956
I1
sVis
p957
I4
sV\u5148\u524d
p958
I4
sV\u53f0\u8a5e
p959
I3
sVit
p960
I1
sV\u4e1f\u6211
p961
I1
sVThisIsAHyper
p962
I1
sV\u5c11
p963
I1
sVRAPI
p964
I2
sV\u540c\u6b65
p965
I2
sV\u5403\u98fd
p966
I2
sVin
p967
I9
sV\u660e\u7d30
p968
I1
sV\u5929\u8fa6
p969
I1
sV\u5e73\u5e38
p970
I6
sV\u5225
p971
I3
sV\u932f\u5566
p972
I1
sV\u8afe
p973
I1
sVPython
p974
I19
sVFoxconns
p975
I1
sVXuite
p976
I1
sV\u4e0d\u904e
p977
I21
sV\u5634\u7832
p978
I1
sV\u6d77\u4e0a
p979
I1
sV\u7fa8\u6155
p980
I2
sV\u64ca\u4e2d
p981
I1
sVWish
p982
I2
sV\u7684\u7ffb\u6cd5
p983
I1
sV\u671f\u672b
p984
I2
sV\u7ffb\u4e86
p985
I2
sV\u7684\u8cc7
p986
I2
sV\u9b54
p987
I3
sV\u78a9\u4e00
p988
I3
sV\u5fb5\u6c42
p989
I1
sV\u7a7a\u7f50
p990
I1
sV\u6771\u4eac
p991
I1
sV\u8eab\u4efd
p992
I1
sV\u58be
p993
I2
sV\u7528\u70ba
p994
I1
sVmeets
p995
I1
sV\u653e\u51fa
p996
I1
sVVC
p997
I3
sVMFC
p998
I2
sV\u524d\u9762
p999
I2
sV\u9109\u6c11
p1000
I2
sV\u641e\u7b11
p1001
I1
sVVM
p1002
I1
sVVN
p1003
I1
sV\u5750\u843d
p1004
I1
sV\u53cd\u99c1
p1005
I1
sVbriian
p1006
I1
sVVS
p1007
I3
sV\u6839\u672c\u4e0d
p1008
I4
sV\u7c21\u76f4
p1009
I1
sV\u5931\u843d\u611f
p1010
I1
sV1\u4e86
p1011
I2
sVY
p1012
I1
sV\u773e\u4fe1
p1013
I1
sV\u6563\u71b1
p1014
I2
sVon
p1015
I2
sV\u4e5d
p1016
I2
sV\u4e5d\u6708
p1017
I2
sVto/190/1906717109.jpg
p1018
I1
sV\u65e5\u5f8c
p1019
I2
sV\u5169\u5343\u591a
p1020
I2
sV\u96e2
p1021
I1
sV\u5e2b\u5927
p1022
I4
sV\u7b56\u7565
p1023
I1
sVYou
p1024
I1
sV\u8a66\u9a57
p1025
I1
sV\u96e3\u8003
p1026
I1
sV1976
p1027
I1
sVdriv
p1028
I1
sV\u9054\u6210
p1029
I1
sV\u5011\u6703
p1030
I1
sV\u627e\u5c0b
p1031
I1
sV\u627e\u5c0d
p1032
I1
sV\u74f6
p1033
I2
sV\u807d\u5929\u7531\u547d
p1034
I1
sV\u751f\u7d66
p1035
I1
sVthe
p1036
I6
sV\u6469\u65af
p1037
I2
sVNative
p1038
I2
sVGPRS
p1039
I1
sV\u4e86\u6211
p1040
I1
sV\u6e96\u6642
p1041
I2
sVConsole
p1042
I1
sV\u8aaa\u5979
p1043
I1
sV\u901a
p1044
I1
sV\u505a\u7684
p1045
I4
sV\u63db\u68da
p1046
I1
sV\u4e0d\u53ef
p1047
I2
sV\u597d\u611f
p1048
I2
sV\u8b8a\u6210
p1049
I10
sV\u540c
p1050
I2
sV\u593e\u5e36
p1051
I1
sV\u4e0d\u53ea
p1052
I1
sV\u9a45\u52d5
p1053
I1
sVvia
p1054
I27
sV\u767c\u5657\u7684
p1055
I1
sV\u5fd9\u4e86
p1056
I2
sV\u6709\u55ce
p1057
I1
sV\u6574\u665a
p1058
I2
sVyes
p1059
I1
sV0810
p1060
I1
sV\u5b89\u975c
p1061
I2
sV\u7b97\u5927
p1062
I1
sV\u7121\u8a00
p1063
I1
sV\u7b49\u4eba
p1064
I1
sV\u6070\u5230\u597d\u8655
p1065
I1
sVSaber
p1066
I2
sV\u9322\u6ac3
p1067
I1
sV\u4ed6\u5728
p1068
I1
sV\u9806
p1069
I3
sV\u6fc3\u5ea6
p1070
I1
sV\u80af
p1071
I1
sV\u6e96\u5099\u597d
p1072
I2
sV\u8ddf\u4e0d
p1073
I1
sV\u7d42\u6975
p1074
I1
sV\u4f60\u5011
p1075
I2
sVyllan
p1076
I1
sVeasy
p1077
I1
sV\u6587\u7ae0
p1078
I2
sV\u90fd\u6253\u4e0d\u958b
p1079
I1
sVPlurk's
p1080
I1
sV\u9ebb
p1081
I1
sVhas
p1082
I1
sV\u5728\u60f3
p1083
I2
sVSupport
p1084
I1
sV\u5f04\u5230
p1085
I1
sV\u504f\u504f
p1086
I2
sV\u4e0a
p1087
I28
sV\u7c21\u7565
p1088
I1
sV\u4fdd\u8b77\u6cd5
p1089
I1
sV\u4f46
p1090
I48
sVopensource.plurk.com
p1091
I1
sV\u611f\u52d5
p1092
I3
sV\u7a0d\u5fae
p1093
I4
sV\u76e3\u63a7
p1094
I2
sVAlice
p1095
I1
sV\u50cf
p1096
I3
sVcompiler
p1097
I2
sV\u7684\u7cdf
p1098
I1
sV\u591c\u5e02
p1099
I4
sV\u6642\u6211
p1100
I1
sV\u5148\u5f8c
p1101
I1
sV\u7576\u4e0b
p1102
I1
sV\u4e5d\u9ede\u4e00
p1103
I1
sVReactOS
p1104
I1
sV\u770b\u8457\u8fa6
p1105
I1
sV\u62ff\u5230
p1106
I2
sV\u975c\u614b
p1107
I1
sV\u8a8d\u6e05
p1108
I2
sV\u5b89\u9038
p1109
I2
sV\u865b\u5f31
p1110
I1
sV\u6703\u5728
p1111
I1
sVorzorzorz
p1112
I1
sV\u8003
p1113
I6
sV\u96de\u817f
p1114
I1
sV55
p1115
I1
sV\u578b\u865f
p1116
I1
sV\u8a08\u5283\u66f8
p1117
I2
sV51
p1118
I1
sV\u5f37\u8005
p1119
I1
sV\u904a\u6232
p1120
I6
sV52
p1121
I1
sVThinker
p1122
I1
sV\u624d\u641e\u721b
p1123
I1
sV\u6230\u570b\u7b56
p1124
I1
sVAre
p1125
I1
sV\u9999\u683c\u91cc\u62c9
p1126
I3
sVnight
p1127
I4
sVRootkits
p1128
I1
sV\u8003\u5230
p1129
I1
sV\u5f8c\u597d
p1130
I1
sV\u5f15\u767c
p1131
I1
sVThisIsAnEmotico
p1132
I1
sV\u6416\u6643
p1133
I1
sV\u4e82\u8b80
p1134
I1
sV\u4f86
p1135
I59
sVHR
p1136
I1
sV\u72d0\u72f8
p1137
I1
sVprintf
p1138
I1
sV\u7d93\u6b77
p1139
I1
sV\u548c
p1140
I20
sV\u300f
p1141
I4
sV50
p1142
I1
sVApplication
p1143
I2
sV\u5b78\u671f
p1144
I3
sV\u8eca\u901f
p1145
I1
sV\u4f7f\u7528
p1146
I15
sV\u7121\u77e5
p1147
I1
sV\u6211\u5e6b
p1148
I1
sV\u60f3\u4e86
p1149
I1
sV\u78c1\u789f
p1150
I1
sV\u6709\u6548
p1151
I1
sV\u885b\u751f\u7f72
p1152
I1
sV\u9bae\u852c
p1153
I2
sVfor
p1154
I4
sV\u79ae\u62dc\u5929
p1155
I1
sV\u7576\u904e
p1156
I1
sV\u611f\u5230
p1157
I6
sV\u9322\u5305
p1158
I1
sV\u90fd\u7d04
p1159
I1
sV\u4e00\u5c71
p1160
I2
sVFacebook
p1161
I4
sVThisIsAnEmoticonCo
p1162
I2
sV\u6cd5\u5f8b
p1163
I2
sV\u8b93\u5b83
p1164
I2
sV\u7684\u8acb\u627e\u6211
p1165
I1
sVPTT
p1166
I1
sV\u6211\u5728\u624b
p1167
I1
sV\u68d2\u554a
p1168
I1
sV\u7684\u5c31
p1169
I1
sV\u4e0d\u898b\u4e86
p1170
I2
sV\u633a\u72e0\u5e2b
p1171
I1
sV\u52e4\u696d
p1172
I1
sV\u66f4\u591a
p1173
I1
sV\u7a0b\u5ea6
p1174
I2
sV\u8f49\u6a5f
p1175
I1
sV\u677f\u8d77
p1176
I1
sV\u7562\u696d
p1177
I5
sV\u5348\u9910
p1178
I3
sV\u5b8c\u7684
p1179
I1
sV\u5b8c\u5168
p1180
I9
sV\u56de\u61c9
p1181
I2
sV\u9913\u9192
p1182
I1
sV\u6210\u54e1
p1183
I1
sV\u6ce8\u610f\u5230
p1184
I1
sV850
p1185
I1
sV\u660e\u5e74
p1186
I1
sVFirst
p1187
I1
sV\u7761
p1188
I15
sV\u56e0
p1189
I2
sV\u96e3\u6309
p1190
I1
sVDIAMOND
p1191
I1
sV\u9165
p1192
I1
sV\u90a3\u9ebc\u591a
p1193
I3
sVzxcv
p1194
I1
sV\u770b\u898b
p1195
I2
sVcounterbot
p1196
I1
sV\u6c42\u795e
p1197
I1
sV\u7a0b\u5e8f
p1198
I1
sV\u8f15\u6613
p1199
I1
sVEvidence
p1200
I1
sV\u901a\u4ee4
p1201
I1
sV\u8a73
p1202
I1
sV\u627e\u4f86
p1203
I2
sV\u7121\u8ad6
p1204
I2
sVStill
p1205
I1
sVrom&amp;quot
p1206
I1
sV\u5403\u9eb5
p1207
I1
sV\u50f9\u503c
p1208
I1
sV\u6700
p1209
I4
sV\u540c\u6a23
p1210
I3
sV\u91cd\u958b\u4e86
p1211
I1
sV\u8d85\u4e45
p1212
I1
sV\u7537\u53cb
p1213
I2
sV\u978b
p1214
I1
sV\u9130\u5c45
p1215
I5
sVcyg_profile_func_enter
p1216
I1
sV\u6d6a\u82b1
p1217
I1
sV\u518f
p1218
I4
sV\u81fa\u7063
p1219
I1
sV\u6c92\u904e
p1220
I1
sV\u5370\u8c61
p1221
I1
sV\u5b78\u5b78
p1222
I1
sV\u8f49\u8b8a
p1223
I1
sVC_AND_CPP
p1224
I3
sVppt
p1225
I3
sV\u6200\u611b
p1226
I1
sV\u71ac\u591c
p1227
I1
sV\u6253\u9020
p1228
I2
sV\u64da\u6089
p1229
I1
sV\u89e3\u91cb
p1230
I3
sV\u7b28
p1231
I1
sVsupport
p1232
I1
sV\u4e0b\u5348
p1233
I8
sV\u5c0f\u6642
p1234
I16
sVXuxian
p1235
I1
sV\u901b\u901b
p1236
I1
sV\u5348\u98ef
p1237
I1
sVDevice
p1238
I1
sV\u56de
p1239
I12
sV\u7684\u7db2
p1240
I1
sVHP
p1241
I1
sV\u7a7f\u8d8a
p1242
I1
sV\u6539\u7528
p1243
I3
sV\u66b4\u885d
p1244
I1
sVdriver
p1245
I1
sV\u6210\u9577
p1246
I1
sVoffer
p1247
I1
sV\u611f\u53d7
p1248
I2
sV\u7528\u5230
p1249
I3
sV6
p1250
I4
sV\u6298\u4e86
p1251
I1
sV\u6897\u554a
p1252
I1
sV\u91cf
p1253
I1
sV\u8a9e\u6cd5
p1254
I2
sV\u9ed1
p1255
I2
sV\u5bc4\u751f
p1256
I1
sV\u6c34\u707d
p1257
I2
sV\u53bb\u8cb7
p1258
I1
sV\u53cd\u88ab
p1259
I1
sVDNS
p1260
I1
sV\u51b7\u6230
p1261
I1
sVEee
p1262
I1
sV\u885d\u5b8c
p1263
I1
sV\u65b0\u7248
p1264
I4
sV\u7761\u89ba
p1265
I5
sV\u7db2\u53cb
p1266
I3
sV\u76e1
p1267
I2
sV\u9760
p1268
I3
sV\u53e3
p1269
I1
sV\u5462
p1270
I9
sVcoser
p1271
I1
sV\u7368\u4eab
p1272
I1
sV\u82f1\u6587\u5b57
p1273
I1
sV\u5927\u738b
p1274
I1
sV\u8ffd\u6bba
p1275
I1
sV\u64cb\u7bad\u724c
p1276
I1
sV\u7a0b\u5f0f
p1277
I34
sV\u8b66\u5bdf
p1278
I1
sVSQLite
p1279
I1
sV3.5
p1280
I1
sV\u6c92\u4e0a
p1281
I1
sV\u81ea\u4f5c
p1282
I1
sV\u6211\u5f88
p1283
I2
sV\u7ffb
p1284
I3
sV\u751a\u81f3
p1285
I2
sV\u72c2\u4eba
p1286
I1
sV\u6280\u80fd
p1287
I2
sV\u6587\u5b57
p1288
I1
sV\u4e0a\u5e1d
p1289
I1
sV\u5347\u7d1a
p1290
I4
sV\u5496\u5c0d\u8457\u5ae9
p1291
I1
sV\u4ed6\u7684
p1292
I5
sV\u7684\u8981\u9760
p1293
I1
sV\u4e86
p1294
I177
sVIntroduction
p1295
I1
sVKun_Yi
p1296
I1
sV\u770b
p1297
I55
sV\u65b9\u9762
p1298
I2
sVAPI/Favorites/set
p1299
I1
sV\u699b\u679c
p1300
I1
sV\u62ff\u51fa\u4f86
p1301
I1
sV\u96e3\u627e
p1302
I1
sV\u7fd2\u6163
p1303
I3
sV\u5730\u4e0a
p1304
I1
sV\u5316\u7684
p1305
I1
sVOffline
p1306
I1
sV\u5fc3\u81df
p1307
I1
sVcheck
p1308
I1
sV\u4e0a\u5e02
p1309
I1
sV\u807d\u8aaa
p1310
I5
sV\u5323
p1311
I1
sV\u5167\u6838
p1312
I1
sV\u5ea6
p1313
I3
sV\u672b
p1314
I1
sV\u624d\u5c0d
p1315
I2
sV\u642d
p1316
I7
sV\u6587\u5b78
p1317
I1
sV\u6703\u8003
p1318
I1
sV\u9192\u4f86
p1319
I1
sV\u547d\u4e86
p1320
I1
sV\u9019\u9ebc
p1321
I3
sV\u7537
p1322
I5
sVpapers
p1323
I2
sV\u5475
p1324
I1
sV\u70ba
p1325
I9
sVEeeBox
p1326
I1
sVW^X
p1327
I1
sVrLink
p1328
I1
sV\u8ffd\u5175
p1329
I1
sV\u5de6\u53f3
p1330
I1
sVE
p1331
I2
sV\u7248\u672c
p1332
I2
sV\u56e0\u6b64
p1333
I2
sV\u64e0\u5165
p1334
I1
sVWindows
p1335
I26
sV\u7159\u706b
p1336
I1
sV\u512a\u4e5f
p1337
I1
sV\u80af\u5b9a
p1338
I4
sV\u75c5\u75db
p1339
I4
sV\u4e0b\u53bb
p1340
I3
sV\u5a01\u731b
p1341
I1
sV\u91cd\u73fe
p1342
I1
sV\u537b
p1343
I12
sV\u65b9\u5411
p1344
I2
sV10\u6708
p1345
I1
sV\u7522\u751f
p1346
I2
sV\u6389\u51fa\u4f86
p1347
I1
sV\u518d\u767b\u5165\u5c31
p1348
I1
sV\u6559\u5b98
p1349
I1
sVWin
p1350
I7
sV\u524d\u554f
p1351
I1
sV\u5c0d\u7167\u8868
p1352
I1
sV\u5ef6\u7e8c
p1353
I1
sV\u4e00\u8def
p1354
I2
sV\u5149\u5c31
p1355
I1
sV\u7db2\u5361
p1356
I1
sV\u9577
p1357
I2
sVtime
p1358
I1
sV\u4e2d\u9593
p1359
I4
sV\u7167\u6a23
p1360
I1
sV\u98f2\u6c34\u6a5f
p1361
I1
sV\u539f\u56e0
p1362
I1
sV\u8a66\u984c
p1363
I1
sVFreeFileSync
p1364
I1
sV\u65b7\u7a2e
p1365
I1
sV\u8981
p1366
I96
sV\u5728\u5fd9\u5e6b
p1367
I1
sVplurkm
p1368
I2
sV\u4e9b
p1369
I9
sV\u638c\u63a7
p1370
I1
sV\u8b1d\u8b1d
p1371
I1
sV\u8def\u7dda
p1372
I1
sVV
p1373
I2
sV\u7279\u6027
p1374
I1
sV\u71b1\u9ede
p1375
I1
sVEOS
p1376
I1
sV\u6c7a\u8cfd
p1377
I1
sVmanager
p1378
I1
sV\u5927\u8aa4
p1379
I1
sV/
p1380
I46
sVthebz
p1381
I1
sV\u97ad\u70ae
p1382
I2
sV\u66dd\u5149
p1383
I1
sV\u9020\u5047
p1384
I1
sV\u4e09\u96c6
p1385
I1
sV\u89c0\u5bdf
p1386
I1
sV\u8aa0\u5fc3
p1387
I1
sV\u665a
p1388
I2
sV\u65e5\u7248
p1389
I1
sV3\u90fd
p1390
I1
sVrecruit
p1391
I1
sV\u5b8c\u7f8e
p1392
I2
sV\u901a\u77e5
p1393
I2
sV\u88ab
p1394
I21
sVJavascript
p1395
I3
sV\u64b0\u7a3f
p1396
I1
sV\u8868\u6f14
p1397
I1
sV\u5c08\u8a2a
p1398
I1
sV0
p1399
I5
sV\u6d41\u50b3
p1400
I1
sV\u534a\u8def
p1401
I1
sVImitation
p1402
I1
sV\u7f3a
p1403
I1
sV\u670d\u52d9
p1404
I2
sV\u6c92\u6709
p1405
I16
sV\u73a9\u4e86
p1406
I1
sV\u6700\u7d42
p1407
I1
sV\u5492\u7f75
p1408
I1
sV\u5929\u6c23
p1409
I3
sVpirrer
p1410
I1
sVstring
p1411
I1
sV\u5831\u5230
p1412
I2
sV\u6210\u7e3e
p1413
I1
sV\u8fd1\u4f86
p1414
I2
sV\u9762\u81e8
p1415
I1
sV\u8a2d\u8a08
p1416
I6
sV\u5fc3\u60c5
p1417
I7
sV\u91d1
p1418
I5
sV\u8b66\u54e1
p1419
I2
sV\u7d0d\u60b6
p1420
I1
sV\u9214\u7968
p1421
I1
sV\u5c31\u6709
p1422
I2
sV\u778e\u9b27
p1423
I1
sV\u8089\u5305
p1424
I1
sV\u8ddf\u4eba
p1425
I1
sV\u52d5\u4f5c
p1426
I1
sV\u4f86\u8972
p1427
I1
sV\u5927\u540c
p1428
I2
sVJust
p1429
I1
sV\u9858\u671b
p1430
I1
sV\u5e73\u53f0
p1431
I3
sV\u66f8\u4e86
p1432
I1
sVTouch
p1433
I6
sV\u6709\u5bb6
p1434
I1
sVsolved
p1435
I1
sV\u610f\u601d
p1436
I5
sV\u8cb7\u539f
p1437
I1
sV\u7684\u52f8
p1438
I1
sVSA@Taipei
p1439
I1
sVPTRACE_SINGLESTEP
p1440
I1
sV\u4efd\u91cf
p1441
I1
sVsorrysorry
p1442
I1
sV\u5b89\u5168\u6027
p1443
I2
sV\u4e00\u5343\u4e94\u767e\u842c
p1444
I1
sV\u9583\u5149
p1445
I1
sV\u6230\u6211
p1446
I1
sV\u529f\u529b
p1447
I1
sV\u91cd\u704c\u7684
p1448
I1
sV\u7684\u7206
p1449
I1
sV\u6488
p1450
I1
sV\u5728\u53f0
p1451
I1
sV\u5b78\u54e1
p1452
I3
sV\u6158\u70c8
p1453
I1
sV\u8da8\u52e2
p1454
I4
sV\u4e9b\u591a\u505a\u9ede\u4e8b
p1455
I1
sV\u7576\u5e74
p1456
I2
sV\u9694
p1457
I1
sV\u6572\u6211\u9580
p1458
I1
sV\u8a66\u73a9
p1459
I1
sV\u919e\u91c0
p1460
I1
sVntdll.dll
p1461
I1
sV\u5bb6\u88cf
p1462
I4
sV\u96fb\u68af
p1463
I2
sV\u56de\u4f86
p1464
I8
sV\u597d\u8aaa
p1465
I1
sV\u5ba2
p1466
I2
sV\u5927\u6a13
p1467
I1
sV\u51b0\u51b7
p1468
I1
sVForm
p1469
I1
sV\u8a08\u756b
p1470
I2
sVReP
p1471
I22
sV\u96e8\u6211
p1472
I1
sV\u5916\u516c
p1473
I5
sV\u4e3b\u8981
p1474
I4
sVshares
p1475
I2
sV\u9b27\u9418
p1476
I2
sVArchitect
p1477
I1
sV\u7b49
p1478
I12
sV\u540d\u5b57
p1479
I2
sV\u8a2a\u554f
p1480
I1
sV\u6735
p1481
I1
sV\u66b4
p1482
I1
sVFILE_ATTRIBUTE_INROM
p1483
I1
sV\u662f\u8ab0\u6389\u4e86
p1484
I1
sV\u62ff\u624b
p1485
I1
sV\u4e00\u9663\u5b50
p1486
I2
sV\u4e0b\u4f86
p1487
I1
sV\u80fd\u6309
p1488
I1
sV\u4e0d\u932f
p1489
I19
sV\u665a\u4e0a
p1490
I11
sVMe
p1491
I1
sV\u516c\u6587
p1492
I1
sV\u95dc\u65bc
p1493
I2
sV\u662f\u5f88\u50cf
p1494
I1
sV\u5c0d\u6bd4
p1495
I1
sV\u6247
p1496
I1
sV\u5175\u6cd5
p1497
I2
sV\u540d\u4eba
p1498
I1
sV\u5e74\u5e95
p1499
I3
sV\u66f2\u6298
p1500
I1
sV\u78b0\u5230
p1501
I3
sV\u5766\u767d
p1502
I1
sV\u6559\u5b78\u76f8\u9577
p1503
I1
sV\u5c0f\u5c48\u627e
p1504
I1
sV\u4e2d\u6691
p1505
I1
sVO
p1506
I1
sV\u610f\u5916
p1507
I2
sV\u5b78\u904e
p1508
I1
sV[
p1509
I27
sVDOOM
p1510
I1
sV\u591a\u5c11
p1511
I2
sV\u5ba2\u4eba
p1512
I1
sVCOOL
p1513
I1
sV\u6211\u5011
p1514
I18
sV\u8ddf\u773e
p1515
I1
sV\u865f\u78bc
p1516
I3
sV\u639b\u96f6
p1517
I1
sV\u5929\u74cf
p1518
I4
sV\u6b63\u78ba
p1519
I1
sV\u60f3\u60f3
p1520
I2
sV6502
p1521
I1
sV\u51fa\u4f86
p1522
I10
sV\u5f0f\u7684
p1523
I1
sV\u7206\u767c
p1524
I1
sV\u9801\u662f
p1525
I1
sV\u6bd4\u8f03
p1526
I11
sVMV
p1527
I1
sV\u66f4
p1528
I5
sV\u4e3b\u6a5f\u677f
p1529
I2
sV\u7d00\u5ff5
p1530
I2
sV\u4f3c\u4e4e
p1531
I8
sV\u9375\u76e4
p1532
I1
sV\u8b66\u544a
p1533
I3
sV\u966a\u59bb\u8cb7
p1534
I1
sV\u8d70\u51fa
p1535
I1
sVGB
p1536
I2
sV\u89e3\u6389
p1537
I1
sV\u63a8\u51fa
p1538
I3
sV\u8655\u65bc
p1539
I1
sV\u8a02
p1540
I1
sV\u8457
p1541
I5
sV\u6d6a\u8cbb
p1542
I1
sV\u72c0\u614b
p1543
I7
sV\u6a5f\u6b3e\u903e\u534a
p1544
I1
sV\u7814\u7a76\u6240
p1545
I1
sV\u6062\u5fa9
p1546
I4
sV\u5c0e
p1547
I1
sV\u8df3\u4e0b
p1548
I1
sV\u6709\u6642\u5019
p1549
I2
sV\u7c73\u7c89
p1550
I1
sV\u9ea5\u7576\u52de
p1551
I4
sVEVA
p1552
I1
sVDOS
p1553
I1
sVtion.&amp;quot
p1554
I1
sV\u63db\u56de
p1555
I1
sV\u5b78\u9577
p1556
I6
sV\u8cc7\u5b89
p1557
I11
sV\u641e
p1558
I1
sV\u5b78\u554a
p1559
I1
sV\u5920
p1560
I2
sV\u7d50\u8ad6
p1561
I3
sVPycTW
p1562
I1
sV\u5916\u90e8
p1563
I1
sV\u7528
p1564
I16
sV\u81f3\u4e0a
p1565
I1
sV\u81ea\u6211
p1566
I3
sV\u4faf
p1567
I1
sVHello
p1568
I2
sV\u6bad\u5c4d
p1569
I3
sV\u9ad8\u4e2d\u751f
p1570
I2
sV\u88ab\u5077
p1571
I1
sV\u9130\u5ea7
p1572
I1
sV\u8cc7\u7ba1
p1573
I2
sVmemory
p1574
I1
sV\u767c\u554f
p1575
I2
sV\u53e3\u4e7e\u820c\u71e5
p1576
I1
sV\u55e8\u4e86
p1577
I1
sV\u6539\u53e3
p1578
I1
sV\u662f\u751c\u7684
p1579
I1
sV\u9700\u6c42
p1580
I1
sV\u6559\u6388
p1581
I5
sV\u7814\u767c
p1582
I1
sV\u6b63\u5728
p1583
I4
sV\u51b7\u6c23
p1584
I1
sV\u6a21\u64ec\u5668
p1585
I3
sV\u6046
p1586
I1
sVOpera
p1587
I1
sV\u79d1\u5e7b
p1588
I1
sVayer
p1589
I1
sV\u53ef\u9032\u7ad9
p1590
I1
sV\u8a71\u548c
p1591
I1
sVTrueCrypt
p1592
I1
sV\u904e\u7a0b
p1593
I1
sV\u4e0b\u529f\u592b
p1594
I1
sV\u65e2
p1595
I1
sV\u505c\u8eca\u4f4d
p1596
I1
sV\u5c6c\u6027
p1597
I1
sV\u592a\u967d
p1598
I1
sV\u56fa\u7136
p1599
I1
sV\u8a9e\u9304
p1600
I1
sV\u8005\u5728
p1601
I1
sV\u91cd\u7d44
p1602
I1
sV\u4e00\u5b9a
p1603
I9
sV\u6c92\u8fa6\u6cd5
p1604
I3
sV\u767c\u751f
p1605
I3
sV\u966a
p1606
I2
sV\u539f\u5473
p1607
I1
sV\u624b\u8aaa\u4f60\u5728
p1608
I1
sV\u9032\u6b65
p1609
I1
sV\u958b\u6e90
p1610
I1
sV\u53ef\u4e0d\u53ef\u80fd
p1611
I1
sV\u5b78\u751f
p1612
I13
sV\u641e\u57ae
p1613
I1
sV\u8afe\u8a00
p1614
I1
sV\u5c0d\u8a71
p1615
I3
sV\u672a\u4f86
p1616
I1
sV\u6d41\u51fa
p1617
I1
sV\u65c1\u767d
p1618
I1
sV124
p1619
I1
sV\u5b50\u548c
p1620
I1
sV\u77ac\u9593
p1621
I1
sV\u592a\u597d
p1622
I2
sV\u6539\u5beb
p1623
I1
sV\u9019\u908a
p1624
I1
sV\u5fc3\u610f
p1625
I1
sV\u5b8c\u6574
p1626
I2
sVDrivers
p1627
I1
sVDigital
p1628
I1
sV\u5b8c
p1629
I10
sV\u60c5\u5883
p1630
I1
sV\u9060\u50b3
p1631
I1
sV.......
p1632
I7
sV\u4e00\u77ac\u9593
p1633
I1
sV\u806f
p1634
I1
sV\u5bc2\u975c
p1635
I1
sV24000
p1636
I1
sV\u611b
p1637
I3
sV\u4f11\u606f
p1638
I1
sV\u6a19\u6e96
p1639
I1
sV\u5821
p1640
I2
sV\u5ee3\u544a
p1641
I2
sV\u5565
p1642
I5
sV\u60f3\u53bb
p1643
I1
sV\u6210\u5e74
p1644
I1
sV\u6709\u7528
p1645
I1
sV\u60a0\u904a
p1646
I1
sV\u5341\u96c6
p1647
I1
sVping
p1648
I1
sVdinner
p1649
I1
sV\u63a5\u8fd1
p1650
I1
sV\u968e\u6bb5
p1651
I2
sV\u7d55\u4e0d
p1652
I1
sV\u5148\u8f29
p1653
I1
sV\u4e0d\u5c51
p1654
I1
sV\u5c0d\u6253
p1655
I1
sV\u71d2\u914d
p1656
I1
sV\u51fa\u984c
p1657
I1
sV\u958b\u767c
p1658
I4
sVWhy
p1659
I1
sVUDP
p1660
I1
sV\u5fc3\u614b
p1661
I1
sV\u4e86\u65b0
p1662
I1
sV\u597d\u5e7e
p1663
I4
sV\u4e45
p1664
I2
sV\u8981\u8cb7
p1665
I1
sV4\u76841
p1666
I1
sVSTL
p1667
I1
sV\u6578\u4e26
p1668
I1
sViPhones
p1669
I1
sV\u6559\u7684
p1670
I1
sVKudo
p1671
I1
sV\u540d\u7a31
p1672
I1
sV\u5c0d\u6230
p1673
I1
sVdate
p1674
I1
sV\u6d3b\u8457
p1675
I1
sVModel
p1676
I2
sV\u592a\u5927
p1677
I1
sV\u66ff\u4ee3
p1678
I1
sV\u611b\u904e
p1679
I1
sV\u662f\u6211
p1680
I5
sV\u51fa
p1681
I6
sV\u592a\u591a
p1682
I5
sV\u51fa\u4e8b
p1683
I1
sV\u91d1\u76fe\u734e
p1684
I4
sV\u7206\u5f37
p1685
I1
sVCreateFile
p1686
I1
sV\u82b1\u4e86\u9ede
p1687
I1
sV\u6279\u51c6
p1688
I1
sVso
p1689
I1
sV\u7db2\u7d61
p1690
I1
sV\u5802\u642d
p1691
I1
sV\u64b0\u5beb
p1692
I1
sV\u8aaa\u4ed6
p1693
I2
sV\u540d\u55ae
p1694
I3
sV\u8d85
p1695
I6
sV\u5c0f\u6b6a
p1696
I1
sV\u5bb6\u73a9
p1697
I1
sV\u6a5f\u6703
p1698
I6
sVCNNIC
p1699
I1
sV\u5403\u725b
p1700
I1
sV\u5947\u5922\u4e4b\u661f
p1701
I3
sV\u96fb\u5f71\u9662
p1702
I1
sV\u76e1\u91cf
p1703
I1
sV\u7684\u5098
p1704
I2
sV\u53f0\u6e05\u4ea4
p1705
I1
sV\u600e\u9ebc\u6a23
p1706
I1
sVstill
p1707
I1
sV\u809a\u5b50
p1708
I3
sV\u201c
p1709
I2
sV\u6536\u5c3e
p1710
I1
sV\u6708\u9905
p1711
I1
sVmachine
p1712
I1
sV\u5ee0\u4e86
p1713
I1
sV\u7522\u54c1
p1714
I1
sV\u4e0d\u5fcd
p1715
I1
sVinteresting
p1716
I1
sV\u8868\u73fe\u51fa
p1717
I1
sVUnlimited
p1718
I2
sV\u672c\u8eab
p1719
I2
sV\u8a08\u7a0b\u8eca
p1720
I2
sV\u4e09\u79d1
p1721
I1
sV\u96fb\u6a5f\u7cfb
p1722
I1
sV\u5fd9\u518d
p1723
I1
sV\u4e007
p1724
I1
sV\u78ba\u5b9a
p1725
I5
sV\u8a08\u4e2d
p1726
I1
sV\u63a5\u6536\u5230
p1727
I1
sV\u5e38
p1728
I9
sV\u4fc3\u92b7
p1729
I1
sV\u503c
p1730
I1
sV\u4f5c\u7528
p1731
I1
sV\u65c5\u884c
p1732
I1
sV\uff20\uff20
p1733
I3
sV\u5b78\u4e86
p1734
I1
sV\u65e9\u7761\u65e9\u8d77
p1735
I8
sV3
p1736
I19
sV\u6d3b\u4e0b\u53bb
p1737
I1
sV\u5831\u55ce
p1738
I1
sV\u78ba\u5be6
p1739
I4
sV\u4e00\u6bb5
p1740
I2
sV\u6975\u9650
p1741
I1
sV\u5e36\u8d70
p1742
I1
sV\u6230
p1743
I1
sV\u8d77\u81f3
p1744
I1
sV\u6a5f\u4e0a
p1745
I1
sVGoogleMaps
p1746
I1
sV\u67d0\u7ad9\u536f
p1747
I1
sV\u9032\u884c
p1748
I5
sV\u4eba\u53c8
p1749
I1
sV\u6a58\u5b50
p1750
I1
sVnow
p1751
I2
sV\u5927\u99ac
p1752
I1
sV\u7248\u7684
p1753
I3
sVpermissions
p1754
I1
sV\u53f0\u65b0
p1755
I1
sV\u73a9\u4e0d
p1756
I1
sV\u5c64
p1757
I1
sV\u756a
p1758
I2
sV\u4e0d\u4e45
p1759
I1
sV\u8d70\u8def
p1760
I1
sV\u7c3d\u7ae0
p1761
I1
sV\u9020\u6210
p1762
I4
sV\u878d\u5316
p1763
I1
sVallenown
p1764
I1
sV\u4e00\u8077
p1765
I1
sV\u7ffb\u770b
p1766
I1
sV\u6b63\u5411
p1767
I1
sV\u525b\u5728
p1768
I1
sV\u50c5\u5b58
p1769
I1
sV\u4f5c\u756b
p1770
I1
sV\u8ca0\u9762
p1771
I1
sV\u4e03
p1772
I6
sV\u6597
p1773
I1
sV\u5206\u9418
p1774
I7
sV\u7a0b
p1775
I1
sV\u6211\u50cf\u53bb\u4e82\u7684
p1776
I1
sV\u6b63\u7fa9
p1777
I1
sV\u5c0f
p1778
I9
sVPerl
p1779
I1
sV\u8116\u5b50
p1780
I1
sV\u9192
p1781
I1
sV\u5341\u4e00\u9ede
p1782
I1
sV\u4e0d\u898b
p1783
I1
sV\u5927\u5927
p1784
I5
sV\u5225\u4eba
p1785
I11
sV\u96fb\u5b50\u66f8
p1786
I2
sVCOLD
p1787
I1
sV\u6bd4\u6211
p1788
I2
sV\u90a3\u5c31
p1789
I2
sV\u8aaa
p1790
I56
sV\u9084\u662f
p1791
I46
sVgmapcatcher
p1792
I1
sV\u96fb\u5728
p1793
I1
sV\u6293\u4e5f
p1794
I1
sVSchematics
p1795
I1
sV\u90a3\u518d
p1796
I1
sV\u5efa\u7acb
p1797
I2
sV\u838a\u56b4
p1798
I1
sV\u96f2\u90fd
p1799
I1
sV\u8a31\u529f\u84cb
p1800
I1
sV\u5927\u4e0d\u4e86
p1801
I1
sV\u6551\u661f
p1802
I1
sV\u597d\u7528
p1803
I1
sVPocket
p1804
I2
sV\u8981\u6253\u4eba
p1805
I1
sV\u904e\u95dc
p1806
I1
sV\u5973\u4e2d
p1807
I1
sV\u5bb6
p1808
I4
sV\u500b\u8cc7\u53c8
p1809
I1
sV\u6295\u8cc7
p1810
I1
sV\u8f09\u5165
p1811
I2
sV\u966a\u8003
p1812
I3
sV\u5f88\u665a
p1813
I2
sV\u5bb5\u591c
p1814
I4
sV\u90a3\u7ae0
p1815
I1
sVorz
p1816
I15
sV\u7684\u66f8
p1817
I9
sVG
p1818
I8
sV\u524d
p1819
I27
sVTraceback
p1820
I1
sV\u5805\u6301
p1821
I1
sV\u60f3\u5f88\u4e45\u7684
p1822
I1
sV\u8907\u96dc\u5316
p1823
I1
sV\u9801
p1824
I3
sVstatistics
p1825
I1
sV\u4eba\u6578
p1826
I1
sV\u774f
p1827
I1
sV\u5c31\u8b8a
p1828
I1
sVCrimes
p1829
I1
sVorg
p1830
I1
sV\u53c8\u8b80
p1831
I1
sV\u9694\u58c1
p1832
I9
sV\u63a5\u53d7
p1833
I2
sV\u7576\u6210
p1834
I1
sV\u55ae\u7368
p1835
I1
sV\u4e2d\u6bd2
p1836
I2
sV\u6d3b\u52d5
p1837
I3
sVlanguage
p1838
I1
sV\u53e6
p1839
I4
sVBeing
p1840
I1
sV\u96e8
p1841
I3
sV\u5b57\u6c92
p1842
I1
sVspam
p1843
I1
sVprogramming
p1844
I3
sV\u512a\u6211
p1845
I1
sV\u5b78\u7684
p1846
I1
sV\u6211\u548c
p1847
I1
sV\u5589\u56a8
p1848
I1
sV\u7684\u5c0f
p1849
I1
sVweblogs.asp.net/blogs/scottgu/image_thumb_1B5EB00B.png
p1850
I1
sV\u8cb7
p1851
I13
sVBlackBerry
p1852
I1
sV\u5b8c\u7d50
p1853
I1
sV\u7d42\u65bc
p1854
I23
sV\u6709\u5920
p1855
I1
sV\u5716\u793a
p1856
I1
sV\u91cd\u9ede
p1857
I2
sV\u8a98\u56e0
p1858
I1
sVfirst
p1859
I1
sV\u505a\u5b8c
p1860
I2
sV\u7684\u660e
p1861
I1
sV\u2019
p1862
I5
sVJservs
p1863
I1
sV\u4e00\u79d2
p1864
I1
sV\u7d05\u71c8
p1865
I1
sV\u8ad6\u58c7
p1866
I1
sVkernel
p1867
I4
sV\u6708
p1868
I3
sV\u5c07\u932f\u5c31\u932f
p1869
I1
sVATM
p1870
I2
sV\u4fdd\u7559
p1871
I2
sVLegend
p1872
I2
sV\u96e3\u4ee5
p1873
I2
sV\u767c\u73fe\u5230
p1874
I1
sV\u7c21\u5831
p1875
I1
sVxx
p1876
I1
sV\u5012
p1877
I2
sV\u6b64\u523b
p1878
I2
sV\u7b54\u51fa\u4f86
p1879
I1
sV\u639b
p1880
I2
sV\u6211\u53ea
p1881
I2
sV\u809d
p1882
I1
sV\u82b1\u4e0b
p1883
I1
sV\u5728\u505a
p1884
I3
sV\u5fd8\u5f88\u5927
p1885
I1
sV\u6f14\u8b1b
p1886
I3
sV\u5b89\u5168
p1887
I10
sV\u4e4b\u4e0b
p1888
I1
sV\u4e4b\u4e0a
p1889
I1
sVDive
p1890
I1
sV\u5c0d\u9762
p1891
I1
sVnanika
p1892
I1
sV\u8d95\u5047\u7684
p1893
I1
sV\u62b1
p1894
I1
sVJimlee
p1895
I1
sV2
p1896
I20
sV\u5750\u4e0b\u4f86
p1897
I1
sV\u5927\u6982
p1898
I8
sV\u671d\u6c23
p1899
I1
sV\u65b7\u8a5e
p1900
I3
sV\u53bb
p1901
I51
sV\u544a\u5225\u5f0f
p1902
I1
sVThoughts
p1903
I1
sVOOAD
p1904
I1
sV\u6539\u5929
p1905
I1
sV\u66b1\u7a31
p1906
I1
sV\u88ab\u5206
p1907
I1
sVthat
p1908
I1
sV\u6211\u53bb
p1909
I1
sV\u5be6\u7fd2
p1910
I1
sV\u79d2\u6bba
p1911
I2
sV\u5b63\u7bc0
p1912
I1
sV\u5ef6\u5230
p1913
I1
sV\u884c\u92b7
p1914
I1
sVClient
p1915
I3
sV\u7e41\u9ad4
p1916
I1
sV\u4e86\u4f46
p1917
I1
sV\u8591\u6c41
p1918
I1
sV\u9810\u9632\u91dd
p1919
I1
sV\u63db
p1920
I3
sV\u5206\u55ce
p1921
I1
sV\u548c\u85f9
p1922
I2
sV11
p1923
I6
sV10
p1924
I8
sV\u6b21\u5143
p1925
I2
sV12
p1926
I4
sV6406
p1927
I1
sV14
p1928
I1
sV17
p1929
I2
sV16
p1930
I3
sVrival
p1931
I1
sVeptember
p1932
I1
sV\u91d1\u5c6c
p1933
I1
sV\u96e3\u4e86
p1934
I1
sV\u96c6\u5408\u5230
p1935
I1
sV\u4e86\u4f60
p1936
I1
sV\u51fa\u7684
p1937
I1
sV\u901a\u77e5\u5230
p1938
I1
sV\u8072
p1939
I2
sV\u6574
p1940
I15
sV\u8d95\u4e0a
p1941
I1
sVebp
p1942
I1
sV\u90fd
p1943
I55
sV\u6293\u4f86
p1944
I1
sVDuRaRaRa
p1945
I1
sV\u767e
p1946
I2
sVc9s
p1947
I1
sV\u8b80
p1948
I8
sV\u8f03
p1949
I2
sV\u7528\u8655
p1950
I1
sVCourt
p1951
I1
sV\u8d8a\u4f86\u8d8a
p1952
I3
sV\u4e0d\u5217\u985b
p1953
I1
sV\u751f\u51fa\u4f86
p1954
I1
sVsvchost
p1955
I2
sV\u780d
p1956
I1
sVargument
p1957
I1
sV\u65e5\u672c
p1958
I1
sV\u958b\u660e
p1959
I1
sV\u6388\u6b0a
p1960
I1
sV\u4e0d\u597d
p1961
I4
sVsay
p1962
I1
sV\u5f88\u6709
p1963
I3
sV\u7537\u5973
p1964
I2
sV\u5594
p1965
I6
sV\u88ab\u52d5
p1966
I1
sV\u5b8c\u5c31
p1967
I1
sV\u807d
p1968
I11
sVquot;virus&amp;quot
p1969
I1
sVBootLoader
p1970
I1
sV\u201d
p1971
I4
sV\u5f80\u751f
p1972
I1
sV\u7387\u5148
p1973
I2
sV\u90a3\u908a
p1974
I1
sV\u534a\u50f9
p1975
I1
sV\u65e9\u9ede
p1976
I1
sV\u4eba\u58eb
p1977
I2
sV\u4eae
p1978
I1
sV\u4e0b\u8f09
p1979
I3
sV\u62cd\u6a94
p1980
I1
sV\u6f14\u8b8a
p1981
I1
sV\u5e7e\u4e4e
p1982
I3
sV\u771f\u5927
p1983
I1
sVperformance
p1984
I1
sV\u5de6\u5f8c
p1985
I1
sV\u8aaa\u6211
p1986
I1
sVamix
p1987
I1
sV200
p1988
I3
sV\u4e2d\u6587
p1989
I4
sV\u5403\u5230
p1990
I2
sV\u51fa\u8ca8
p1991
I1
sV\u8abf\u56de
p1992
I1
sV\u8b66\u7c72
p1993
I1
sV\u7528\u6236
p1994
I1
sV\u5973\u7684
p1995
I2
sVquot;Any
p1996
I1
sV\u4e0a\u524d
p1997
I1
sV\u8a31\u591a
p1998
I1
sV\u8aaa\u624d\u525b\u904e
p1999
I1
sV\u4f5c\u54c1
p2000
I2
sV\u4e2d\u7814\u9662
p2001
I1
sV\u98a8\u6c23
p2002
I3
sV\u5fc5\u8981
p2003
I3
sVcleared
p2004
I1
sV\u524d\u5979
p2005
I1
sV\u89aa\u548c
p2006
I1
sV\u8aa4
p2007
I1
sV\u51b7\u4e86
p2008
I2
sV\u771f\u597d
p2009
I1
sVTrust
p2010
I1
sV\u7167
p2011
I5
sV\u8f5f\u70b8
p2012
I1
sV\u54ea
p2013
I9
sVLeaks
p2014
I1
sV0\u4f7f
p2015
I1
sV\u524d\u6771\u68ee
p2016
I1
sV\u9664\u4e86
p2017
I3
sV\u4e2d\u65b7
p2018
I1
sVprepare
p2019
I1
sV\u7684\u81c9\u66f8
p2020
I1
sV\u62ff\u5546\u5468\u6587\u7576\u5bf6\u7684\u53cd\u7f8e\u725b
p2021
I1
sV\u60a8
p2022
I5
sV\u5e79
p2023
I1
sV\u5982\u4f55
p2024
I4
sV\u53d6\u51fa
p2025
I1
sV\u8d95\u4e86
p2026
I1
sV\u5a18\u5bb6
p2027
I1
sV\u76fe
p2028
I4
sV\u5be6\u6230
p2029
I1
sVWeb
p2030
I1
sV3.71
p2031
I1
sV\u4e86\u7b46\u96fb
p2032
I1
sV\u4e2d\u9913
p2033
I1
sV\u4e00\u5343\u4e8c
p2034
I1
sV\u62c9\u9eb5
p2035
I1
sVWM
p2036
I12
sV\u8edf\u9ad4
p2037
I9
sV\u88ab\u554f
p2038
I1
sV\u5e0c
p2039
I1
sVIL
p2040
I1
sVResearch
p2041
I1
sV\u5f7c\u6b64
p2042
I1
sVWP
p2043
I1
sV\u6700\u591a
p2044
I1
sV\u9032\u4e0d
p2045
I1
sV\u6709\u5fc3
p2046
I2
sV\u7de9\u6162
p2047
I1
sV\u56db\u4e94
p2048
I1
sV\u7a0b\u5f0f\u5eab
p2049
I1
sV\u5404
p2050
I6
sV\u5f8c\u4f86
p2051
I9
sV\u7ba1\u7406
p2052
I3
sVWe
p2053
I1
sV\u6982\u5ff5
p2054
I3
sVsIsAnEmoticonCode
p2055
I1
sV\u6700\u5927
p2056
I3
sV\u5730\u65b9
p2057
I3
sV\u6e2c
p2058
I1
sV8\u7684
p2059
I1
sV\u6070\u597d
p2060
I1
sV\u4f48\u544a\u6b04
p2061
I1
sV\u88ab\u6c92
p2062
I1
sVgoing
p2063
I4
sVStudio
p2064
I1
sV\u5927\u4e82
p2065
I2
sV\u76fe\u734e
p2066
I5
sV\u597d\u4e0d
p2067
I1
sV\u662f\u5f88\u5435
p2068
I1
sV\u4f60\u5a18
p2069
I1
sV\u5927\u4e8c
p2070
I1
sV\u770b\u4e0b\u4f86
p2071
I1
sV\u624d\u704c\u597d\u65b0
p2072
I1
sV\u53ea\u597d
p2073
I2
sV\u7897
p2074
I2
sV\u8457\u5403
p2075
I1
sV\u78c1\u7247
p2076
I1
sV\u61c9
p2077
I3
sV\u79d1\u5b78
p2078
I1
sV\u548c\u6211
p2079
I1
sV\u63d0\u6b3e
p2080
I1
sV\u4fee\u7406
p2081
I1
sV\u9707\u9a5a
p2082
I1
sVOPED
p2083
I1
sV\u5ee2\u8a71
p2084
I1
sVENTER
p2085
I1
sV\u63db\u4e0b
p2086
I1
sVWerror
p2087
I1
sV\u4e3b\u64ad
p2088
I1
sV\u5beb\u4f5c
p2089
I3
sV\u56de\u6b78
p2090
I2
sV\u4f8b\u5982
p2091
I4
sV\u57fa\u790e
p2092
I2
sVslides
p2093
I1
sVSOGO
p2094
I2
sV\u7a2e
p2095
I16
sV\u689d
p2096
I1
sV\u5566
p2097
I26
sVdon't
p2098
I1
sV\u65e9\u9910
p2099
I11
sV\u7121\u804a
p2100
I6
sV\u91d0\u982d\u4f46
p2101
I1
sVinterpreter/compiler
p2102
I1
sV\u53ea\u8981
p2103
I3
sV\u60a0\u9592
p2104
I1
sVLingoes
p2105
I1
sV\u60f3
p2106
I28
sV\u53d7\u5bb3
p2107
I1
sV\u4e92\u76f8
p2108
I2
sV\u7406\u7684
p2109
I1
sV\u76f4\u63a5
p2110
I14
sV\u767c
p2111
I5
sV\u6700\u597d
p2112
I2
sVwiki
p2113
I1
sV\u9006\u5411
p2114
I1
sV\u6e1b\u5c11
p2115
I1
sV\u9700\u8981
p2116
I4
sV\u5e33\u865f
p2117
I4
sV6.1
p2118
I3
sV?
p2119
I49
sV\u5317\u7f8e
p2120
I1
sV....
p2121
I3
sV\u8907\u96dc
p2122
I3
sV\uff0d
p2123
I1
sV\u7e8c
p2124
I1
sV\u9577\u8f29
p2125
I1
sV\u597d\u4eba
p2126
I2
sV\u7a7a\u767d
p2127
I2
sVLocation
p2128
I1
sV\u9677\u9631
p2129
I3
sV\u5c11\u5a66
p2130
I1
sV\u5ba3\u50b3
p2131
I2
sV\u7dad\u6301
p2132
I2
sV\u6211\u5f9e
p2133
I2
sV\u578b\u817f
p2134
I1
sV\u90fd\u5728
p2135
I4
sV\u7126\u616e
p2136
I1
sV\u5148\u751f
p2137
I1
sVchecko
p2138
I2
sVfails
p2139
I1
sV\u9b25
p2140
I2
sV\u5c31\u5be2
p2141
I1
sVUsage
p2142
I1
sV\u9ad8\u4e2d
p2143
I6
sV\u898f\u5247
p2144
I1
sV\u4fee\u6b63
p2145
I1
sV\u5e73\u975c
p2146
I2
sV\u6253\u7b97
p2147
I2
sV\u7528\u5728
p2148
I1
sV\u5efa\u4e2d
p2149
I1
sV\u69ae
p2150
I1
sVSymbian
p2151
I3
sV\u7684\u963f
p2152
I1
sVitsftt
p2153
I1
sV\u597d\u4e86
p2154
I14
sV\u884c
p2155
I3
sV\u5927\u4e00
p2156
I2
sV\u7981\u66f8
p2157
I3
sV\u6392\u5e8f
p2158
I2
sV\u597d\u6015\u7684\u5566
p2159
I1
sV\u8ced\u8f38
p2160
I1
sV\u597d\u4e8b
p2161
I1
sV\u7576\u4e8b\u4eba
p2162
I3
sV\u614b\u52e2
p2163
I1
sVhtc
p2164
I2
sV\u53ca
p2165
I1
sV\u4e0d\u81f3\u65bc
p2166
I1
sV\u8981\u7684
p2167
I1
sV\u5bb6\u5566
p2168
I2
sV\u4e00\u9ede\u9ede
p2169
I1
sVYoutube
p2170
I1
sV\u5c4b
p2171
I1
sVlibcurl
p2172
I1
sV\u5012\u6578
p2173
I1
sV\u6566\u967d
p2174
I1
sV\u6ab3\u6994
p2175
I1
sV\u82d7\u6817
p2176
I1
sV\u904e\u53bb
p2177
I7
sV\u800c\u5df2
p2178
I7
sVtoken)&amp;quot
p2179
I1
sV\u8ddf\u4e0d\u4e0a
p2180
I1
sViThome
p2181
I2
sV\u4e0d\u592a
p2182
I1
sV\u9670\u8b00\u8ad6
p2183
I1
sVminidom
p2184
I1
sV\u6551
p2185
I1
sVReversing
p2186
I1
sV\u53bb\u63db
p2187
I1
sV\u4e8b\u60c5
p2188
I12
sV\u6210\u719f
p2189
I1
sV\u7169
p2190
I2
sVPhones
p2191
I1
sVregion
p2192
I1
sV\u53ea
p2193
I10
sV\u8df3\u51fa\u4f86
p2194
I1
sV\u592a\u5c11
p2195
I3
sV\u6a5f\u68b0
p2196
I1
sV\u8857\u666f
p2197
I1
sVs
p2198
I4
sV\u5403\u6b23\u8449
p2199
I1
sV\u5373\u65e5
p2200
I1
sV\u6309\u932f
p2201
I1
sVWinCE
p2202
I1
sV\u958b\u8b1b
p2203
I1
sV\u5b57\u7d93
p2204
I1
sV\u5bb9\u6613
p2205
I2
sV\u570b\u9053
p2206
I1
sV\u4e00\u6703
p2207
I1
sVAPNIC
p2208
I1
sVMP
p2209
I1
sV\u5f35\u958b
p2210
I2
sV\u6545\u4e8b
p2211
I3
sV\u6709\u9ede
p2212
I10
sV\u642d\u914d
p2213
I3
sV\u4e00\u6708
p2214
I2
sV\u5bb6\u9577
p2215
I2
sVVista
p2216
I3
sV\u4ec7\u4eba
p2217
I1
sV60
p2218
I3
sV\u88ab\u51f9\u7684\u6211
p2219
I1
sV\u6b7b\u4ea1
p2220
I1
sV\u52ff\u6230
p2221
I1
sVGHz
p2222
I1
sVlearning
p2223
I1
sV\u7684\u5657
p2224
I3
sV\u8005
p2225
I4
sV\u7532\u660f
p2226
I1
sVCOM
p2227
I1
sV\u8fa6\u4e00\u8fa6\u554a
p2228
I1
sV\u95dc\u6389
p2229
I1
sV\u7b49\u65bc
p2230
I1
sV\u6708\u7e3d
p2231
I1
sVtimhsu
p2232
I1
sV\u524d\u5f8c
p2233
I1
sVImmDbg
p2234
I1
sV]
p2235
I27
sV\u5169
p2236
I40
sV\u7121\u610f
p2237
I2
sV\u4e2d\u69cd
p2238
I2
sVBeta
p2239
I1
sV\u80ba\u6d3b\u91cf
p2240
I1
sV\u554f\u5019
p2241
I1
sV\u4eba\u6295
p2242
I1
sV\u60c5\u7dd2
p2243
I1
sV502
p2244
I1
sV\u773c
p2245
I2
sV500
p2246
I3
sV\u53ea\u6709
p2247
I11
sV\u52a9\u6559
p2248
I2
sV\u5e02\u96c6
p2249
I1
sVshopping
p2250
I1
sVserv
p2251
I1
sV\u706b\u8eca
p2252
I5
sV\u5c0d\u4e0d\u8d77
p2253
I1
sV\u7121\u982d
p2254
I3
sV\u7530\u5f70
p2255
I1
sV\u624d\u525b
p2256
I3
sVRainDog
p2257
I2
sV\u52d5
p2258
I2
sV\u53ea\u5269
p2259
I3
sV\u9032\u4f4d
p2260
I1
sVanti-rootkit
p2261
I1
sV\u4f60\u6211
p2262
I1
sV\u53eb\u865f
p2263
I1
sV\u6210\u5c31\u611f
p2264
I1
sV\u6377\u904b\u7ad9
p2265
I2
sV\u8667
p2266
I1
sVTo
p2267
I3
sV\u88ab\u6454\u5728
p2268
I1
sV\u5168
p2269
I5
sV\u518d\u4e09
p2270
I1
sV\u7528\u4e86
p2271
I1
sV\u904e\u5206
p2272
I1
sV\u683c
p2273
I1
sVDetection
p2274
I1
sV\u8f3e\u8f49
p2275
I1
sV\u7406\u89e3
p2276
I2
sV\u771f\u5feb
p2277
I2
sV\u804a\u5929
p2278
I3
sV\u63a5\u62db
p2279
I1
sV\u90e8
p2280
I5
sV\u8a3b\u518a
p2281
I3
sV\u8017\u96fb
p2282
I1
sVPowerPoint
p2283
I1
sV\u7522\u751f\u5668
p2284
I2
sV\u4e26
p2285
I4
sV\u5beb\u4e86
p2286
I2
sV\u4eca\u665a
p2287
I6
sV\u628a
p2288
I20
sV\u65b0\u589e
p2289
I1
sV\u5f8c
p2290
I13
sV\u9eb5\u7dda
p2291
I1
sV\u6708\u5e95
p2292
I1
sV\u5411
p2293
I1
sVANIMAX
p2294
I1
sV\u9032\u4f86
p2295
I1
sVgood
p2296
I1
sV\u64c1\u64e0
p2297
I1
sV\u6211\u5566
p2298
I1
sV\u7684\u5716
p2299
I1
sV\u75c5
p2300
I1
sV\u6216\u662f
p2301
I2
sV\u60c5\u4eba\u7bc0
p2302
I1
sV\u6905\u5b50
p2303
I1
sV\u704c\u7c43
p2304
I1
sV\u597d\u5e7e\u5341\u842c
p2305
I1
sV\u812b\u8932
p2306
I1
sV\u5429\u5490
p2307
I1
sV\u4e86\u500b\u5922
p2308
I1
sV\u8a9e\u97f3
p2309
I1
sV\u4e2d
p2310
I29
sV6410
p2311
I1
sV\u5361\u4f4f
p2312
I1
sV\u5de7\u9047
p2313
I1
sVMobile
p2314
I4
sVXDD
p2315
I9
sV\u5831\u4ee5
p2316
I1
sV\u5f37
p2317
I2
sV\u521d\u63a2
p2318
I1
sV\u958b\u6a5f
p2319
I3
sV\u760b\u72c2
p2320
I2
sV\u6838\u5fc3
p2321
I2
sV\u6253\u6df7
p2322
I3
sV\u4e5f\u5f85\u904e
p2323
I1
sVEmbedded
p2324
I1
sV\u88dd\u597d
p2325
I2
sV\u7387\u771f
p2326
I1
sVIRQ
p2327
I1
sV\u524d\u7f6e
p2328
I1
sV\u6309\u9215
p2329
I2
sV\u4e0b\u79ae
p2330
I1
sVL
p2331
I3
sV\u5979
p2332
I6
sVrunning
p2333
I1
sV\u76d2
p2334
I4
sV\u74cf
p2335
I1
sV\u591a\u591a
p2336
I1
sVDiagnostics
p2337
I1
sV\u6211\u7528
p2338
I1
sV\u56f0\u64fe
p2339
I2
sV\u96fb\u8def
p2340
I1
sVS
p2341
I5
sV\u6e2c\u8a66
p2342
I4
sV\u4eba\u624d
p2343
I1
sV\u4fee\u8ab2
p2344
I3
sVNDIS.sys
p2345
I1
sVEverNote
p2346
I1
sV\u6559\u672c
p2347
I1
sV\u54e6
p2348
I3
sVcct
p2349
I2
sV\u8b93\u6211
p2350
I2
sV\u5435\u67b6
p2351
I2
sV\u8e6d
p2352
I1
sV\u9ede\u8f49\u5657
p2353
I1
sV\u8b6f
p2354
I1
sV\u628a\u63e1
p2355
I2
sV\u50b3\u8aaa
p2356
I2
sV\u4e86\u89e3
p2357
I1
sV\u641e\u932f
p2358
I1
sV\u5269\u6700
p2359
I1
sV\u9032\u4fee
p2360
I1
sV\u767d
p2361
I1
sV\u9580\u5728
p2362
I1
sVSDK
p2363
I1
sV\u885d\u52d5
p2364
I2
sV\u4e00
p2365
I173
sV\u662f\u8d85\u9ad8
p2366
I1
sV213
p2367
I6
sV\u5a01\u79c0
p2368
I1
sVnCode
p2369
I1
sV\u6253\u591a\u4e86
p2370
I1
sV\u4e82\u6309
p2371
I1
sVinterrupt
p2372
I1
sV\u6536\u5834
p2373
I1
sVEmbarcadero
p2374
I1
sV\u5ff5\u7684
p2375
I1
sV\u6642\u6a5f
p2376
I2
sV\u8003\u9a57
p2377
I1
sV\u5e6b\u5fd9
p2378
I3
sV\u96b1\u85cf
p2379
I3
sV\u6628\u665a
p2380
I5
sV\u8a72\u505a\u7684
p2381
I1
sVJobs
p2382
I1
sVstruct
p2383
I1
sVCH
p2384
I1
sV\u8272\u72fc
p2385
I1
sV\u79c1\u7528
p2386
I1
sV\u548c\u808c
p2387
I1
sV\u53c3\u52a0
p2388
I2
sV\u5783\u573e\u888b
p2389
I1
sV\u958b\u69cd
p2390
I1
sV\u642c\u5bb6
p2391
I2
sV\u8089
p2392
I1
sVtrue/false
p2393
I1
sVTM
p2394
I7
sV4
p2395
I10
sV\u7d10\u7d04
p2396
I2
sV\u4eca\u65e5
p2397
I9
sV\u9810\u8a08
p2398
I1
sV\u63a8\u4e86
p2399
I1
sV\u6b7b\u7e8f
p2400
I1
sV\u6253\u778c\u7761
p2401
I1
sV\u9054\u89c0
p2402
I1
sV\u5148\u77e5
p2403
I1
sV\u5354\u8abf
p2404
I1
sV\u4e0d\u7ba1
p2405
I1
sV\u5537
p2406
I2
sV\u7406\u8ad6
p2407
I2
sVIsland
p2408
I1
sV\u5728\u5531
p2409
I1
sV\u7db2\u7ad9
p2410
I8
sV\u63d0\u554f
p2411
I1
sV\uff0c
p2412
I714
sV\u5783\u573e
p2413
I2
sV\u96e2\u8077
p2414
I2
sVNaCl
p2415
I1
sV\u5075\u6e2c
p2416
I1
sV\u88ab\u641e\u6389
p2417
I1
sV\u5f37\u8abf
p2418
I1
sV\u83f8\u5bb3
p2419
I1
sV\u5b78\u5230
p2420
I1
sV\u6b7b\u9ee8
p2421
I3
sV\u9ad4\u6eab
p2422
I1
sV\u6548\u7387
p2423
I1
sV\u660e\u986f
p2424
I4
sVuC/OS-II
p2425
I2
sVx64bits
p2426
I1
sV\u597d\u7b11
p2427
I3
sV\u8863\u670d
p2428
I2
sV\u6a19\u8a18
p2429
I1
sV\u67f3\u4e01\u5927
p2430
I5
sV\u611f\u53d7\u5230
p2431
I3
sVserver
p2432
I1
sV\u751a\u9ebc
p2433
I1
sVserious
p2434
I1
sV\u5f8c\u982d
p2435
I1
sV\u6211\u7684
p2436
I6
sV\u4eba\u5bb6
p2437
I3
sVi466.photobucket.com/albums/rr23/billypan
p2438
I1
sV\u96fb
p2439
I1
sV\u639b\u99ac
p2440
I1
sV73
p2441
I1
sV\u4e86\u6bcf\u5929\u6700
p2442
I1
sV\u6ac3\u59d0\u5f37
p2443
I1
sV7\u5427
p2444
I1
sVSTONE
p2445
I1
sV\u684c\u9762
p2446
I2
sV\u5f97
p2447
I3
sV\u6309
p2448
I1
sV\u77f3
p2449
I1
sVCGS
p2450
I1
sVroom&amp;quot
p2451
I1
sV\u5b57\u7684
p2452
I1
sV\u5927\u6c23
p2453
I1
sV\u51b0\u706b\u83e0\u863f\u6cb9
p2454
I1
sV\u6e05\u695a
p2455
I2
sV\u975c\u4e0b\u4f86
p2456
I1
sV\u4ee5\u81f4
p2457
I1
sV\u671f\u5f85
p2458
I5
sV\u5b58\u6a94
p2459
I1
sV\u9084\u6211
p2460
I2
sV\u55ae\u5728
p2461
I1
sV\u5c65\u884c
p2462
I1
sV\u5916\u9762
p2463
I1
sV\u96fb\u6e90
p2464
I2
sVshakalaca
p2465
I2
sV\u63a5\u4e0a
p2466
I2
sV\u5427
p2467
I20
sVAn
p2468
I1
sV\u9047\u5230
p2469
I1
sVEFIX
p2470
I1
sVquot;her
p2471
I1
sV\u641e\u5f97\u5f88
p2472
I1
sV\u6700\u592f
p2473
I1
sV\u4e5f\u5c31\u662f\u8aaa
p2474
I2
sVDecryptor
p2475
I1
sV\u7db2
p2476
I3
sV\u5426\u5247
p2477
I1
sV\u5275\u8fa6\u4eba
p2478
I1
sV\u901b\u5b8c
p2479
I1
sVIP
p2480
I2
sV\u68d8\u624b
p2481
I1
sV\u6703\u5f88
p2482
I2
sVassembly
p2483
I1
sVpower
p2484
I1
sV\u6eff\u61f7
p2485
I1
sV\u81e8\u8d70
p2486
I1
sV\u5b98\u5a01
p2487
I1
sVupdate
p2488
I1
sV\u5728\u624b\u908a
p2489
I1
sV\u56b4\u91cd
p2490
I1
sV\u7576\u5834
p2491
I1
sV\u63a2\u89aa
p2492
I1
sV\u51fa\u9580
p2493
I16
sV\u6230\u58eb
p2494
I1
sV6820
p2495
I1
sVdon
p2496
I1
sV_
p2497
I11
sV\u5ee0
p2498
I2
sV\u795e\u5e7b
p2499
I2
sV\u83dc\u8272
p2500
I1
sV\u9304\u7528
p2501
I1
sV\u5098
p2502
I2
sV\u652f\u63f4
p2503
I2
sVof
p2504
I9
sV\u4e2d\u80af
p2505
I1
sV\u4f5c\u51fa
p2506
I1
sV\u8cb7\u85e5\u517c\u5403
p2507
I1
sVAnalyzing
p2508
I1
sV\u6c34\u5566
p2509
I1
sVMessage
p2510
I1
sV\u63a1\u82b1\u8cca
p2511
I1
sVor
p2512
I2
sV\u4e0a\u9762
p2513
I1
sVInformation
p2514
I1
sV\u53bb\u4e86
p2515
I2
sV\u8a18\u4f4f
p2516
I1
sV\u6587
p2517
I4
sV\u6587\u6e56
p2518
I1
sV\u525b\u525b
p2519
I2
sV\u8abf\u6574
p2520
I2
sV\u8aa4\u89e3
p2521
I1
sV\u7a31\u865f
p2522
I1
sVVHD+BitLocker
p2523
I1
sV\u714c\u5bf6
p2524
I1
sVDev-C
p2525
I2
sV\u689d\u6587
p2526
I1
sV\u500b
p2527
I126
sVwiselysong
p2528
I1
sV\u66f8\u5e97
p2529
I1
sV\u5531\u6b4c
p2530
I1
sV\u7522\u51fa
p2531
I1
sV\u627e\u5230
p2532
I6
sV\uff20
p2533
I18
sV\u8207\u4e8c
p2534
I1
sV\u5bb6\u7684
p2535
I2
sV\u627e\u56de
p2536
I2
sVNO
p2537
I1
sV\u5bc4\u7d66
p2538
I1
sVNB
p2539
I1
sV\u5657\u6d6a
p2540
I3
sV\u9806\u4fbf
p2541
I8
sVUNARY
p2542
I1
sV\u6210\u70ba
p2543
I3
sV\u62d6\u6232
p2544
I2
sV\u98fd\u4e86
p2545
I1
sV\u7db2\u7ba1
p2546
I1
sV\u5e36
p2547
I3
sVNP
p2548
I1
sV\u6050\u9f8d
p2549
I1
sV\u89ba\u9192
p2550
I1
sV\u7684\u55ce
p2551
I1
sV\u96e3\u8aaa
p2552
I1
sV\u6c42
p2553
I1
sV\u597d\u8d70
p2554
I1
sV\u5192\u51fa\u4f86
p2555
I1
sV\u4e86\u6c92
p2556
I1
sV\u8005\u4e86
p2557
I1
sVELF
p2558
I1
sV\u5408\u554a
p2559
I1
sV\u5750
p2560
I2
sV\u62d6\u771f\u4e45
p2561
I1
sV\u4e0d\u614e
p2562
I1
sV\u5c0f\u6642\u5019
p2563
I1
sV2100
p2564
I1
sV\u8ca8
p2565
I1
sVwith
p2566
I6
sVPlurk
p2567
I6
sV\u6cd5\u9662
p2568
I1
sV1024
p2569
I1
sV\u904e\u500b
p2570
I1
sVReturn-Oriented
p2571
I2
sV\u6c11\u8996
p2572
I1
sV\u4f60\u88ab\u9ed1\u4e86
p2573
I1
sV\u60e1\u610f
p2574
I3
sV\u5ce8\u7709
p2575
I1
sV\u5ae9
p2576
I1
sV\u8cc7\u5de5
p2577
I3
sV\u61c9\u8b8a
p2578
I1
sV\u5728\u5403
p2579
I1
sV\u4e82\u627e
p2580
I1
sV\u8db3\u5920
p2581
I1
sV\u9593\u6211
p2582
I1
sV\u5c0f\u76d2\u5168\u8102\u9bae\u4e73
p2583
I1
sV\u7a7a\u9593
p2584
I2
sV\u7121\u6240\u4e0d\u5728
p2585
I1
sV\u6211\u5abd\u8981\u5f04
p2586
I1
sV\u5fa9\u6d3b
p2587
I1
sV\u56de\u60f3
p2588
I1
sVUSB
p2589
I4
sV\u4eba\u9910?
p2590
I1
sV\u5883\u754c
p2591
I2
sV\u767c\u73fe
p2592
I26
sVyoutube
p2593
I1
sVWrong-Science
p2594
I1
sV\u5c0d
p2595
I19
sV\u51b0\u6dc7\u6dcb
p2596
I1
sVan
p2597
I2
sVHow
p2598
I1
sV\u5e6b\u6211
p2599
I1
sV\u8003\u5bdf
p2600
I1
sVat
p2601
I6
sV\u4f86\u4e86
p2602
I1
sV\u4e82\u6293
p2603
I1
sV\u6a19
p2604
I2
sV\u6b98
p2605
I3
sV\u671b
p2606
I2
sV\u6a19\u8272
p2607
I1
sV\u611f
p2608
I1
sV\u8ab2\u7a0b
p2609
I2
sV4.4
p2610
I1
sV\u6253\u70ca
p2611
I1
sV\u6d88\u5931
p2612
I2
sV\u4f5c\u70ba
p2613
I2
sV\u5728\u5fc3\u88e1
p2614
I1
sV\u50ad\u5175
p2615
I1
sV\u7e8c\u6f14
p2616
I1
sV\u6bd4\u91cd
p2617
I2
sV5
p2618
I7
sV\u986f\u793a
p2619
I10
sV\u8d95\u5834
p2620
I3
sV\u7a3f\u8cbb
p2621
I1
sV\u544a\u77e5
p2622
I1
sVyou
p2623
I1
sV\u5927\u5b78\u751f
p2624
I4
sV\u540d\u8a5e
p2625
I2
sV\u6c92\u5acc\u6211\u4e86
p2626
I1
sV\u6587\u5316
p2627
I1
sV\u592a\u65e9
p2628
I1
sV\u7684\u554a
p2629
I2
sV\u91cd\u8a2d
p2630
I2
sV\u80cc\u8ca0
p2631
I1
sV\u8003\u5b8c
p2632
I2
sV\u5e6b\u624b
p2633
I1
sV\u523a\u75db
p2634
I1
sV\u4e0a\u9650
p2635
I2
sV\u670d\u7528
p2636
I1
sVtenyi
p2637
I1
sVPractical
p2638
I1
sV\u6280\u8853
p2639
I10
sVimportant
p2640
I1
sV\u820a\u7248
p2641
I1
sV\u4ed6
p2642
I11
sV\u985e\u578b
p2643
I3
sV\u6211\u5728
p2644
I2
sV\u5206\u914d
p2645
I1
sV\u5168\u7dda
p2646
I1
sV\u79ae\u7269
p2647
I1
sV\u4eba\u8aaa
p2648
I2
sV\u98db\u5230
p2649
I1
sV\u78b0\u78b0\u904b\u6c23
p2650
I1
sV\u7684\u5566
p2651
I1
sV\u4e00\u65e9
p2652
I3
sV\u53cd\u61c9
p2653
I2
sV\u6709\u4e8b
p2654
I1
sV\u6b63\u8996
p2655
I1
sV\u6307\u63a7
p2656
I1
sV\u6642\u6bb5
p2657
I1
sV\u6a94
p2658
I1
sV\u4e2d\u83ef\u6c11\u570b
p2659
I2
sV\u5728\u64ad\u9b6f\u9b6f\u4fee
p2660
I1
sV\u5225\u7684
p2661
I4
sV\u7b26\u5408
p2662
I2
sV\u62b1\u6028
p2663
I3
sV\u6211\u770b
p2664
I5
sV\u4f55\u6642
p2665
I1
sVElementTree.tostring
p2666
I1
sV\u6c7d\u8eca
p2667
I1
sVall
p2668
I1
sV\u6539\u826f
p2669
I1
sV\u984c\u5916\u8a71
p2670
I1
sV\u6eff\u5f37
p2671
I1
sV\u7cdf\u7cd5
p2672
I1
sV\u5f88\u91cd
p2673
I2
sV\u4f60\u662f
p2674
I1
sV\u51cc\u6668
p2675
I1
sV\u53ef\u8a00
p2676
I1
sV\u65e2\u7136
p2677
I3
sV.....
p2678
I63
sV\u662f\u4f4f\u6211
p2679
I1
sV\u5f88\u6e34
p2680
I1
sV\u7206\u4e86
p2681
I1
sV\u4e00\u7537\u4e00\u5973
p2682
I1
sVfollow
p2683
I1
sV\u7684\u6a94
p2684
I1
sV\u5c31\u8f38\u4e86\u554a
p2685
I1
sV\u722c\u8d77\u4f86
p2686
I3
sV\u53cd\u5e38
p2687
I1
sVlibplu
p2688
I1
sV\u8b0e\u4e4b
p2689
I1
sV\u662f\u5beb
p2690
I1
sV\u4e86\u5435
p2691
I1
sVArtoria
p2692
I1
sV/b
p2693
I3
sV\u53ec\u559a
p2694
I1
sV\u9322\u888b
p2695
I1
sVwmv
p2696
I1
sVEssential
p2697
I1
sVto
p2698
I13
sV\u4f3c\u7684
p2699
I1
sV\u5c08\u5229
p2700
I2
sV\u51b0\u7bb1
p2701
I1
sVth
p2702
I1
sVIntellisens
p2703
I1
sV\u65b9
p2704
I1
sV\u7761\u7720
p2705
I1
sV\u5091\u514b
p2706
I1
sV\u5206\u4eab
p2707
I6
sV\u7684\u8ab2
p2708
I2
sV\u79fb\u690d
p2709
I1
sV\u897f\u9580
p2710
I1
sV\u8cb7\u6625
p2711
I1
sV\u5929\u7a7a
p2712
I1
sV\u8a55\u50f9
p2713
I1
sVsong
p2714
I1
sV\u99ac\u864e
p2715
I1
sV\u767b\u51fa
p2716
I1
sV\u7b49\u6211
p2717
I1
sV\u6a5f\u5b50\u8dd1\u6211
p2718
I1
sV\u6212\u83f8
p2719
I1
sV\u8a8d\u771f
p2720
I8
sV\u73a9\u7d05\u767d\u6a5f
p2721
I1
sV\u5065\u6aa2
p2722
I1
sV\u5538\u51fa
p2723
I1
sV\u4e0d\u65b7
p2724
I3
sV\u6709\u4eba
p2725
I8
sV\u8a2d\u65bd
p2726
I1
sVTwitterbot-PlurkAPI
p2727
I1
sV\u8d85\u591a
p2728
I1
sV\u8a9e\u8a00
p2729
I6
sV\u795d\u798f
p2730
I1
sV\u7136\u5f8c
p2731
I23
sV\u6642\u9418
p2732
I1
sV\u8d85\u9913
p2733
I2
sV\u5728\u8b1b
p2734
I1
sVand
p2735
I6
sVHold
p2736
I1
sV\u67e5
p2737
I1
sV\u5fb7\u5dde
p2738
I1
sV\u51fa\u570b
p2739
I1
sV\u90e8\u5206
p2740
I1
sV\u8d85\u5927
p2741
I1
sV\u73ed
p2742
I3
sV\u5dee\u5225
p2743
I1
sV\u61f6\u6563
p2744
I1
sV\u653e\u8457
p2745
I1
sV\u667a\u969c
p2746
I1
sV\u96fb\u4f54\u4e86
p2747
I1
sV\u4e0d\u907a\u9918\u529b
p2748
I1
sV\u5ff5
p2749
I4
sV\u5e74
p2750
I16
sV\u65b7\u7d55
p2751
I1
sV\u548c\u9ed1
p2752
I1
sVstudy
p2753
I1
sV\u505a\u4e0d\u5230
p2754
I1
sV\u5fcd\u4f4f
p2755
I1
sV\u6eff
p2756
I14
sVurlencode
p2757
I1
sV\u92fc\u554f2
p2758
I1
sV\u5403
p2759
I25
sV\u7684
p2760
I352
sV\u6bcf\u5929
p2761
I2
sV\u5bc6\u78bc
p2762
I3
sV\u81ea\u5bb6
p2763
I1
sV\u5f88\u5c11
p2764
I1
sV\u6253\u67b6
p2765
I1
sVShould
p2766
I1
sV\u99ac\u6703
p2767
I1
sVJavaScript-based
p2768
I1
sVdesign
p2769
I1
sV\u4e94
p2770
I5
sV\u672c\u6211
p2771
I2
sV\u7761\u597d
p2772
I1
sV\u5b8c\u7562
p2773
I1
sV\u6838\u6230
p2774
I1
sVMachine
p2775
I1
sV\u7576\u6642
p2776
I5
sVCarbide.c
p2777
I1
sVFoundations&amp;quot
p2778
I1
sV\u624d\u525b\u7761
p2779
I1
sVcast
p2780
I2
sV\u9ad8\u9223
p2781
I1
sV\u7d00\u9304
p2782
I1
sV\u677f\u6a4b
p2783
I1
sV\u5728\u6bd4
p2784
I1
sV\u770b\u6210
p2785
I1
sV\u904b\u7b97
p2786
I1
sV\u662f\u5b78
p2787
I1
sV\u6539
p2788
I4
sVmethod
p2789
I1
sV\u6b7b\u800c
p2790
I1
sV\u4e32\u5834
p2791
I1
sV\u5443
p2792
I2
sV\u53bb\u5929\u74cf
p2793
I2
sV\u6cf0\u62f3
p2794
I2
sVK
p2795
I3
sVresponded
p2796
I1
sV\u96ea\u5cf0
p2797
I1
sV\u5167\u5bb9
p2798
I9
sV\u7f8e\u5de5
p2799
I1
sVGodMode
p2800
I1
sVBLO
p2801
I1
sV\u7f8e\u570b
p2802
I1
sVimg101.imageshack.us/img
p2803
I1
sV\u52a0\u5f37
p2804
I1
sV\u5e7e
p2805
I30
sV\u6e96\u5099
p2806
I7
sVEB
p2807
I1
sV\u505c\u8eca
p2808
I1
sV\u518d\u53bb
p2809
I1
sV\u6389\u4e86
p2810
I1
sV\u6b63\u4e8b
p2811
I1
sV\u4ee5\u5f8c
p2812
I3
sV\u4e00\u7ae0
p2813
I1
sV\u516d\u5ee0
p2814
I1
sV\u8a9e\u8abf
p2815
I1
sVSecurity
p2816
I3
sV\u4f55\u6cc1
p2817
I1
sV\u90fd\u53bb
p2818
I1
sV\u8ced\u5ba2
p2819
I1
sV\u8a66\u4f5c
p2820
I1
sV\u4ee5\u5f80
p2821
I1
sV\u904e\u4f86
p2822
I1
sV\u6216\u8a31
p2823
I7
sV\u6aa2\u8996
p2824
I2
sV\u65e5\u8a9e
p2825
I1
sV\u7f75
p2826
I2
sVemulator
p2827
I1
sV\u6c92\u5fc3
p2828
I1
sV\u7d55
p2829
I1
sV\u5728\u8b80
p2830
I1
sV\u4fdd\u6eab
p2831
I1
sV\u7684\u8a71
p2832
I24
sV\u639b\u4e86
p2833
I1
sV\u8036
p2834
I3
sVSTLFilt-An
p2835
I1
sV\u6700\u6700\u6700
p2836
I1
sV\u4fdd\u4f51
p2837
I1
sV\u8eca\u7ad9
p2838
I1
sV\u5176\u5be6
p2839
I13
sV\u5806
p2840
I10
sV\u7a7a\u8f49
p2841
I1
sVlayer
p2842
I1
sVnewbug
p2843
I1
sV\u8b1b\u7684
p2844
I1
sV\u672a\u77e5
p2845
I3
sVImmunity
p2846
I2
sV\u5403\u55ce
p2847
I1
sV\u63a5\u7e8c
p2848
I1
sVb&gt;**prevent**&lt;/b
p2849
I1
sV\u9806\u624b
p2850
I1
sV\u8993\u98df
p2851
I1
sVAHyperLink
p2852
I1
sV\u7126\u7cd6
p2853
I1
sV\u7684\u65e5\u5b50
p2854
I3
sV\u5f88\u5f37
p2855
I1
sV\u4f60\u6709
p2856
I2
sV\u56de\u5634
p2857
I1
sV\u958b\u653e
p2858
I2
sV\u5beb\u5230
p2859
I1
sV\u5c60\u57ce
p2860
I1
sV\u722d\u8b70
p2861
I1
sV\u8a66\u4e86
p2862
I1
sV\u4e0a\u88ab
p2863
I1
sV\u5206\u8fa8
p2864
I1
sV\u512a\u79c0
p2865
I2
sV\u7280\u5229
p2866
I1
sV\u4fbf
p2867
I1
sV\u7a76\u7adf
p2868
I2
sVnEmoticonCode
p2869
I1
sV\u646f\u53cb
p2870
I1
sV\u6709\u8da3
p2871
I3
sV\u7bc7
p2872
I14
sV\u9846
p2873
I1
sVReports
p2874
I1
sV\u5d29\u6f70
p2875
I1
sVImplementation
p2876
I1
sV\u8cc7\u8aa0
p2877
I1
sV\u8ca0\u8cac
p2878
I2
sV\u7684\u6703
p2879
I1
sV\u8981\u5831\u7684
p2880
I1
sV\u6628\u5929
p2881
I16
sV\u8b80\u53d6
p2882
I5
sV\u5f71\u7247
p2883
I4
sVLTK
p2884
I1
sV\u7565
p2885
I2
sV\u4e86\u554a
p2886
I1
sV\u7684\u6bd2
p2887
I1
sVUAC
p2888
I1
sV\u6309\u4e86
p2889
I2
sV\u7ad9\u5728
p2890
I1
sV\u525b\u505a\u4e86
p2891
I1
sV\u6562\u8b93\u6211\u958b
p2892
I1
sV\u5c11\u6797
p2893
I2
sV\u5f8c\u52c1
p2894
I1
sVCOSCUP
p2895
I2
sV\u500d
p2896
I2
sVsucks
p2897
I1
sV\u6559\u5ba4
p2898
I1
sV\u8e10\u8e0f
p2899
I1
sV\u521d\u8cfd
p2900
I3
sVSO
p2901
I1
sV\u81ea\u5a4a
p2902
I1
sVv
p2903
I1
sV\u53bb\u770b
p2904
I2
sV\u6578
p2905
I1
sVSA
p2906
I1
sV\u8981\u627e
p2907
I2
sVYour
p2908
I1
sV\u904e\u4e16
p2909
I1
sV\u9818\u57df
p2910
I1
sV\u3001
p2911
I36
sV\u7b97\u4e86
p2912
I1
sV\u5973\u751f
p2913
I3
sVPyQt
p2914
I1
sV\u4e2d\u5fc3
p2915
I1
sV\u8840
p2916
I1
sV\u516d
p2917
I6
sV\u6280\u5609
p2918
I1
sV\u5657\u53cb
p2919
I2
sV\u65b0\u7f85
p2920
I1
sV\u6d3b\u547d
p2921
I1
sV\u6490\u8d77\u4f86
p2922
I1
sV\u6587\u5b57\u6a94
p2923
I1
sV\u91cd\u65b0
p2924
I6
sV\u89f8\u767c
p2925
I1
sV\u6230\u570b
p2926
I1
sV\u8e0f\u5be6
p2927
I1
sV\u6709\u6240
p2928
I1
sVVim
p2929
I1
sV\u597d\u73a9
p2930
I2
sV\u547c\u53eb
p2931
I3
sV\uff1f
p2932
I48
sV\u5f88\u7d05
p2933
I1
sV!
p2934
I71
sV\u52a0\u8a3b
p2935
I1
sV\u6e05\u9664
p2936
I2
sV\u9810\u544a\u7247
p2937
I1
sV\u9019\u662f
p2938
I1
sV\u738b\u9053
p2939
I1
sV\u4e0d\u8457
p2940
I1
sVGUI
p2941
I1
sV\u60b6
p2942
I1
sV\u8208\u8da3
p2943
I9
sV\u9673\u5acc
p2944
I1
sVStack
p2945
I2
sVUsers/fetchUserInfo
p2946
I1
sVDesire
p2947
I1
sV\u7684\u6b4c
p2948
I2
sV\u5167\u8981
p2949
I2
sV\u51fa\u73fe
p2950
I6
sV\u98c6
p2951
I1
sVobjdump
p2952
I1
sV\u6240\u6709
p2953
I5
sV\u6703\u4e0d\u6703
p2954
I5
sV\u53e6\u5916
p2955
I7
sV\u5435\u5b8c
p2956
I1
sV\u6309\u4e0b
p2957
I1
sVRAD
p2958
I1
sV\u8a00\u591a\u5fc5\u5931
p2959
I1
sV\u8a73\u898b
p2960
I1
sV\u5beb\u51fa
p2961
I1
sV\u9078\u8ab2
p2962
I1
sV\u91cd\u8981
p2963
I11
sV\u4e0b\u65b9
p2964
I3
sV\u5feb\u9ede
p2965
I1
sV\u4e86\u55ce
p2966
I2
sV\u6c5f\u570b\u69ae\u4e5f
p2967
I1
sVWiki
p2968
I1
sV\u8e22\u7206
p2969
I1
sVgithub
p2970
I2
sV\u66ff\u63db
p2971
I1
sV\u96e3\u5403
p2972
I1
sV\u8ab2\u4fee\u5f97
p2973
I1
sV\u516b
p2974
I2
sV\u6377\u904b
p2975
I3
sVRSA
p2976
I1
sV\u7d30\u7bc0
p2977
I2
sV\u96c6\u4e2d
p2978
I1
sV\u5834\u666f
p2979
I1
sV\u826f\u597d
p2980
I3
sV\u6bd4\u4f8b
p2981
I3
sVLinux
p2982
I9
sV\u7b97\u6eff
p2983
I1
sVfacebook
p2984
I3
sV\u8aaa\u4e86
p2985
I1
sV\u7121\u7dda
p2986
I1
sV\u6050\u72068\u7d1a\u5de8\u9707
p2987
I1
sV\u597d\u53cb
p2988
I4
sV\u9810\u9632
p2989
I1
sV\u5200
p2990
I2
sV\u666e\u53ca
p2991
I1
sVXXX
p2992
I1
sV\u8def\u4e0a
p2993
I1
sV\u6539\u5237\u6210
p2994
I1
sV\u800c
p2995
I11
sV\u5224\u4f60
p2996
I1
sV\u89aa\u8fd1
p2997
I1
sV\u671f\u4e2d\u8003
p2998
I1
sV\u96e8\u52e2
p2999
I1
sVpaper
p3000
I12
sV\u8d95
p3001
I3
sV\u541b\u6085
p3002
I3
sV\u5316
p3003
I2
sV\u540c\u6642
p3004
I5
sVMIS
p3005
I1
sV\u505a\u4e8b\u5427
p3006
I1
sV\u8001\u4eba\u5bb6
p3007
I1
sV\uff1e
p3008
I1
sV24
p3009
I1
sV\u6587\u4ef6
p3010
I1
sV26
p3011
I4
sV27
p3012
I2
sV20
p3013
I6
sV21
p3014
I2
sV22
p3015
I2
sV23
p3016
I1
sV\u52a0\u7dca
p3017
I1
sV28
p3018
I2
sV21\u4e16\u7d00
p3019
I1
sVpct
p3020
I2
sV\u96c6\u6eff
p3021
I1
sV\u5b83\u51fa
p3022
I1
sV\u9010\u4e00
p3023
I1
sV\u591a6\u9ede
p3024
I1
sV
p3025
I3
sV\u6a5f\u5668
p3026
I1
sV\u738b
p3027
I1
sV\u53ea\u6703
p3028
I3
sV\u5c0d\u65b9
p3029
I10
sV\u4f46\u6211
p3030
I4
sV\u72e0\u72e0
p3031
I1
sV\u539f\u4f5c
p3032
I1
sV\u5149\u88dd
p3033
I1
sV\u96c6\u9ede\u5361
p3034
I2
sV\u7b46
p3035
I1
sV\u65b7\u932f
p3036
I1
sV\u7d2f\u4e86
p3037
I2
sV\u4e0d\u5e78
p3038
I1
sVPPT
p3039
I1
sV\u64fa\u660e
p3040
I1
sVframework
p3041
I1
sVparse
p3042
I1
sVIjs
p3043
I1
sV\u52d5\u756b
p3044
I5
sV\u5931\u5206
p3045
I1
sV\u5167
p3046
I2
sV\u6295\u5427
p3047
I1
sV\u4e86\u771f
p3048
I1
sV\u7248\u4e86
p3049
I1
sV\u7cdf
p3050
I1
sV\uff5e
p3051
I1
sV\u63e1
p3052
I1
sV\u8ab2\u7684
p3053
I2
sV\u8d0a\u6210
p3054
I1
sV\u6162
p3055
I2
sV\u65e5
p3056
I2
sV\u5de5\u7a0b
p3057
I1
sV\u7b11\u5f97
p3058
I1
sVMaps
p3059
I1
sV\u544a\u8a34
p3060
I2
sValways
p3061
I1
sV\u96d9\u9023
p3062
I1
sV\u6d6a
p3063
I1
sV\u6253\u6557
p3064
I1
sV\u5f37\u968a
p3065
I2
sV\u4e5f\u8a31
p3066
I3
sV\u53bb\u5403
p3067
I2
sV\u65e9
p3068
I8
sVRootkit
p3069
I1
sV\u7d2f\u7a4d
p3070
I1
sV\u6253\u6d88
p3071
I1
sVfound
p3072
I1
sVDisassembler
p3073
I1
sV\u597d\u904e
p3074
I2
sV\u967d\u5149
p3075
I2
sV\u4eba\u8981
p3076
I1
sV\u4e0d\u96e3\u4f46
p3077
I1
sV\u4f60\u5537
p3078
I1
sV\u53f0\u67f1
p3079
I1
sV\u4efb\u8ab2
p3080
I1
sV\u6bd4\u8cfd
p3081
I3
sV\u8033\u6a5f
p3082
I1
sV\uff09
p3083
I4
sVencrypted
p3084
I1
sV\u672a\u898b\u7684
p3085
I1
sVHDD
p3086
I1
sV\u80fd\u5920
p3087
I1
sV\u6821\u65b9
p3088
I1
sV\u539f\u4f86
p3089
I22
sV\u6642\u523b
p3090
I1
sV\u798f\u5c71
p3091
I2
sVreally
p3092
I1
sV\u9023\u4e0a
p3093
I1
sV\u64a4
p3094
I1
sV\u83ef\u78a9
p3095
I5
sVp
p3096
I4
sV\u8f29
p3097
I1
sV\u9003\u96e2
p3098
I1
sV\u8f49\u5e33
p3099
I1
sV\u4f86\u53bb
p3100
I1
sV\u57f7\u4e8b
p3101
I1
sV\u50ac
p3102
I1
sV\u842c\u83ef
p3103
I1
sV\u662f\u597d
p3104
I1
sV\u5230\u6821
p3105
I1
sV\u8def\u4eba
p3106
I1
sV7
p3107
I14
sV\u767b\u9304
p3108
I3
sVprint
p3109
I1
sV\u9806\u5229
p3110
I1
sVbrainfuck
p3111
I1
sV\u958b\u555f
p3112
I2
sV\u64d4\u5fc3
p3113
I2
sV\u672c8
p3114
I1
sVFate/stay
p3115
I4
sV\u5341
p3116
I1
sV\u8b8a\u56de
p3117
I1
sV\u9ad8\u904e
p3118
I1
sV\u6162\u6162
p3119
I2
sVED
p3120
I1
sV\u624b
p3121
I1
sV\u5976
p3122
I1
sV\u80cc
p3123
I1
sVEC
p3124
I1
sVLeaving
p3125
I1
sV\u5b78\u4eba
p3126
I1
sV\u570b\u7db2
p3127
I1
sVqualify
p3128
I2
sV\u5be6\u73fe
p3129
I5
sV\u6728\u99ac
p3130
I1
sV\u7c21\u8a0a
p3131
I1
sV\u5230\u6848
p3132
I1
sV\u4f60\u884c
p3133
I1
sVlag
p3134
I1
sV\u5c0f\u738b
p3135
I1
sV\u8b80\u4e0d\u61c2
p3136
I1
sV\u4e0d\u6703
p3137
I19
sV\u66f8\u540d
p3138
I2
sV\u62b1\u4f5b\u8173
p3139
I1
sV\u520a\u767b
p3140
I1
sV\u66fe\u7d93
p3141
I1
sV\u610f\u8b58\u5230
p3142
I1
sV\u96fb\u8166\u7528
p3143
I1
sV\u50a2\u4f19
p3144
I1
sV\u63d0\u51fa
p3145
I1
sV\u7c21\u9ad4\u5b57
p3146
I1
sV\u4eca\u5929
p3147
I53
sV\u771f
p3148
I15
sV\u71b1\u8840
p3149
I6
sV\u66f8
p3150
I11
sV\u597d\u50cf
p3151
I15
sVtop
p3152
I1
sV\u8207
p3153
I10
sVO'Reilly
p3154
I1
sVChildhoodOS
p3155
I1
sV\u3002
p3156
I100
sVstudent
p3157
I1
sV\u7f5d\u5098
p3158
I1
sV\u8001\u95c6
p3159
I2
sV\uff08
p3160
I4
sV\u8349\u8393
p3161
I1
sV\u5831\u4e86
p3162
I1
sVImm
p3163
I1
sVnumber
p3164
I1
sVNavicat
p3165
I1
sV\u7b46\u96fb\u5728
p3166
I1
sV\u7d71\u4e00
p3167
I1
sV\u53ea\u662f
p3168
I25
sV\u59ca\u59ca
p3169
I1
sV\u5f31\u5f88
p3170
I1
sV\u4e00\u591a
p3171
I2
sVsays
p3172
I1
sV\u5de5\u5177
p3173
I3
sV\u5982\u671f
p3174
I1
sV\u591c
p3175
I1
sV\u5fd9\u8457
p3176
I1
sV\u725b\u4e73
p3177
I1
sV\u812b\u96e2
p3178
I1
sV\u5b58\u5728
p3179
I3
sV\u6539\u4e86
p3180
I1
sV\u8b1b\u8d77
p3181
I2
sV\u6524
p3182
I1
sVCourier
p3183
I1
sV970
p3184
I2
sVIE
p3185
I11
sV\u9019\u6a23
p3186
I30
sV\u7e3d\u958b\u95dc
p3187
I1
sVJSNES
p3188
I1
sV\u525b\u624d
p3189
I11
sV\u4e0a\u8ab2
p3190
I3
sVID
p3191
I3
sVTime
p3192
I1
sV\u96e3
p3193
I3
sV\u7832
p3194
I1
sV186
p3195
I1
sV\u6691\u5047
p3196
I2
sV\u800c\u6211
p3197
I1
sVlab
p3198
I23
sVWPF
p3199
I1
sV\u9ad8\u71b1
p3200
I2
sVticonCode
p3201
I3
sV\u88ab\u63db
p3202
I1
sV\u4e00\u4e9b
p3203
I21
sV\u65e9\u5df2
p3204
I1
sV\u76f8\u95dc
p3205
I4
sVLanguage
p3206
I1
sVKeil
p3207
I1
sV70
p3208
I1
sV\u611f\u67d3
p3209
I2
sV\u8b1b\u8a71
p3210
I2
sV\u8a18\u9304
p3211
I1
sV\u80fd\u4e0d\u80fd
p3212
I3
sVXX
p3213
I1
sV\u6cd5
p3214
I1
sV\u8ca0\u7684
p3215
I1
sV\u60f3\u627e
p3216
I1
sV\u6574\u7406
p3217
I3
sV\u5373\u4f7f
p3218
I1
sVXP
p3219
I3
sV\u8070\u660e
p3220
I1
sV\u8dd1\u500b
p3221
I1
sVstd
p3222
I3
sV\u9580\u53e3
p3223
I3
sV\u70b8\u5f48
p3224
I1
sV\u60f3\u5b78
p3225
I1
sV\u8cc7\u8a0a\u7cfb
p3226
I1
sV\u8a66
p3227
I3
sV\u53eb
p3228
I11
sV\u56de\u5473
p3229
I1
sV\u90ed
p3230
I1
sVajneok
p3231
I1
sV\u7121\u53ef\u5948\u4f55
p3232
I1
sV\u9032\u5165
p3233
I3
sV\u7cbe
p3234
I1
sV\u5ef6\u81f3
p3235
I2
sV\u67d0\u4e9b
p3236
I6
sV\u8a02\u8cfc
p3237
I1
sV\u6b78\u5728
p3238
I1
sVplurk
p3239
I1
sV\u4e7e
p3240
I1
sV\u4e00\u5982
p3241
I1
sVdebugging
p3242
I1
sV\u61c2\u4f46
p3243
I1
sVminidump
p3244
I1
sV\u53ef\u898b
p3245
I1
sV\u5c55\u793a
p3246
I1
sV\u5f88
p3247
I42
sV4\u6709
p3248
I1
sV\u7814\u7a76\u751f
p3249
I4
sV\u4e0a\u6a13
p3250
I1
sV\u767e\u79d1\u5168\u66f8
p3251
I1
sVdownload
p3252
I1
sV\u5fd8\u8a18
p3253
I6
sV\u5f88\u5fd9
p3254
I2
sV\u8b8a\u578b
p3255
I1
sV\u5982\u679c
p3256
I7
sV\u5538\u5230
p3257
I1
sVconfirms
p3258
I1
sV\u89c0\u9ede
p3259
I1
sV\u4eba\u5c31
p3260
I2
sV\u73fe\u5be6
p3261
I3
sV\u6b21\u8981
p3262
I1
sV\u55c6\u8072
p3263
I1
sV\u8d95\u56de
p3264
I1
sV\u8853\u8a9e
p3265
I1
sV\u771f\u8139
p3266
I1
sV\u4e0d\u6642
p3267
I1
sV\u554f\u4e86
p3268
I2
sVKO
p3269
I1
sV\u51ac
p3270
I1
sV\u8ecd\u968a
p3271
I1
sV\u7a31
p3272
I2
sVccn
p3273
I1
sV\u61f7\u7591
p3274
I1
sVlis
p3275
I1
sV\u5728\u6c34\u88e1\u60f3
p3276
I1
sV\u8aaa\u60f3\u4e1f\u60f3\u8ce3\u60f3\u8cb7
p3277
I1
sV\u5f35
p3278
I4
sV\u53bb\u55ce
p3279
I1
sV\u6280\u8853\u529b
p3280
I1
sVCompanies
p3281
I1
sV\u4e0d\u662f
p3282
I28
sV\u554f\u984c
p3283
I11
sVM
p3284
I5
sV\u5dee
p3285
I2
sV\u7b49\u7b49
p3286
I4
sVvirus
p3287
I2
sV\u68d2
p3288
I1
sVUSENIX
p3289
I1
sV100\u591a
p3290
I1
sVThi
p3291
I1
sVRPython
p3292
I1
sV\u662f\u7206\u4e86
p3293
I1
sV\u8fa6\u8aaa
p3294
I1
sV\u5927\u516c
p3295
I1
sV\u4e0a\u6bba\u4eba
p3296
I1
sV\u9ede
p3297
I14
sV\u7206\u8d70
p3298
I1
sVGoogle
p3299
I12
sVViewer
p3300
I2
sV\u8acb\u6559
p3301
I1
sV\u65b0\u66f8
p3302
I2
sV\u8cea
p3303
I1
sV\u906d
p3304
I1
sV\u4e00\u5343\u4e94\u767e
p3305
I1
sV\u806f\u7d61
p3306
I2
sVARM
p3307
I4
sV\u982d\u9a0e\u58eb
p3308
I3
sV\u8cfc\u7269
p3309
I1
sV\u7df4
p3310
I2
sV\u624b\u52d5
p3311
I1
sV\u53bb\u958b
p3312
I1
sV\u7684\u4eba
p3313
I30
sV\u7684\u7db2\u9801\u8981\u91cd\u7e6a
p3314
I1
sV\u8a72\u5728
p3315
I1
sV\u771f\u6162
p3316
I1
sV\u8072\u512a
p3317
I3
sV\u5e7b\u60f3
p3318
I2
sVtaxi
p3319
I1
sVMoreText.js
p3320
I1
sV\u92ea\u7684\u6897
p3321
I1
sVPlatform
p3322
I1
sV\u6574\u5408
p3323
I1
sV\u6350\u51fa
p3324
I1
sV\u4fbf\u7576
p3325
I2
sV\u7570\u805e
p3326
I2
sVpage
p3327
I1
sV\u982d\u90e8
p3328
I2
sVnode.js
p3329
I1
sVn&amp;gt;=n
p3330
I1
sV\u4ecd\u7136
p3331
I3
sV\u5230\u4e86
p3332
I2
sV\u5e78\u597d
p3333
I4
sV\u6bcd\u6821
p3334
I2
sV\u5728\u4f60
p3335
I1
sV\u8f38\u5bb6
p3336
I1
sV\u975e\u61c2
p3337
I2
sV\u767c\u8868
p3338
I1
sV\u4e45\u6c92
p3339
I2
sV\u52a0\u6cb9
p3340
I2
sV\u63a5
p3341
I3
sV1501
p3342
I1
sV\u52a0\u5c0f\u76d2
p3343
I1
sV\u516d\u4e03\u6708
p3344
I1
sV\u5f37\u70c8
p3345
I1
sV\u7ae0\u6c92
p3346
I1
sV\u87a2\u5e55
p3347
I1
sV\u6aa2\u8209
p3348
I1
sV\u5f15\u64ce
p3349
I1
sV\u59820
p3350
I1
sV\u63d0\u5347
p3351
I1
sV\u6536
p3352
I1
sV8
p3353
I5
sV\u7d71\u8a08
p3354
I2
sV\u633a
p3355
I1
sV\u767d\u7709
p3356
I1
sV\u5927\u968a
p3357
I1
sV\u77e5\u9053
p3358
I29
sV\u66f8\u4e5f
p3359
I1
sVChief
p3360
I1
sV\u6c23\u8cea
p3361
I2
sV\u9a0e\u58eb
p3362
I3
sVMagic
p3363
I5
sV\u5f88\u9577\u53c8
p3364
I1
sV\u662f\u5f88
p3365
I1
sVMMDays
p3366
I1
sVbanned
p3367
I1
sV\u5b78\u6821
p3368
I7
sV\u5ee2\u7269
p3369
I1
sV\u5f85\u6703
p3370
I2
sV\u7d04\u5403
p3371
I1
sV\u8dd1
p3372
I6
sV\u662f\u5f9e
p3373
I1
sV\u518d\u6d3b\u4e45
p3374
I1
sVb
p3375
I4
sV\u54e5
p3376
I1
sV\u5ba4\u5916\u66ec\u8863\u5834\u548c
p3377
I1
sV\u8b80\u56de
p3378
I1
sV\u6642\u5019
p3379
I4
sV\u5927\u96e8
p3380
I1
sV\u9a30\u96f2
p3381
I1
sV\u535a\u73ed
p3382
I1
sV\u5b8f\u9054
p3383
I2
sV\u9589\u4e0a
p3384
I3
sV\u9078\u53d6
p3385
I1
sV\u63a2\u8a0e
p3386
I2
sV\u57f7\u884c
p3387
I8
sV\u611f\u60f3
p3388
I4
sV\u8981\u6e2c
p3389
I1
sV\u6c92\u7684\u554a
p3390
I1
sV\u8dd1\u5b8c
p3391
I1
sV\u53f8
p3392
I1
sV\u641c\u7d22
p3393
I1
sV2\u8aaa
p3394
I1
sV\u96b1\u79c1
p3395
I1
sV\u8a2d\u9632
p3396
I1
sV\u7c3d\u540d
p3397
I1
sVx
p3398
I7
sV\u5b89\u88dd
p3399
I4
sVPHP
p3400
I4
sV\u8ffd
p3401
I2
sV\u5217\u51fa
p3402
I2
sV\u54ea\u6642
p3403
I3
sV\u2014
p3404
I1
sV\u50b7\u8166\u7b4b
p3405
I1
sV\u61c9\u8a72
p3406
I25
sV\u5305
p3407
I1
sV\u8a2d\u8a08\u5e2b
p3408
I2
sVFor
p3409
I1
sV\u8d95\u51fa
p3410
I1
sV\u6642\u5728
p3411
I1
sV\u600e\u6a23
p3412
I5
sV\u4f4d\u5728
p3413
I1
sV\u7684\u4e00
p3414
I4
sV\u5f97\u5f88
p3415
I1
sV\u8001\u670b\u53cb
p3416
I1
sVFate/SN
p3417
I1
sV\u6d41\u6c13
p3418
I1
sV\u914d\u7d66
p3419
I1
sV\u55ef
p3420
I2
sVtutorial.pdf
p3421
I1
sV\u8a18
p3422
I2
sV\u71d5\u9ea5
p3423
I1
sV\u606d\u559c
p3424
I2
sV2.1
p3425
I1
sV\u5077\u585e
p3426
I1
sV\u8a00\u8a9e
p3427
I1
sV2.6
p3428
I1
sV2.5
p3429
I2
sV\u6f22\u5821
p3430
I4
sV\u8521
p3431
I1
sV\u70e4\u96de
p3432
I1
sV#
p3433
I57
sV\u56de\u53bb
p3434
I6
sV\u4f60\u53ea
p3435
I1
sV\u7d9c\u5408
p3436
I1
sV\u6f0f\u6d1e
p3437
I4
sV\u5408\u7406
p3438
I1
sVuser
p3439
I1
sV\u8caa\u591a\u7684
p3440
I1
sV\u5c55\u89bd\u9928
p3441
I1
sV\u771f\u662f
p3442
I5
sV\u597d\u7684
p3443
I3
sV\u534a
p3444
I6
sV\u6ab8\u6aac
p3445
I1
sV\u5167\u5fc3
p3446
I2
sV\u7c21\u55ae
p3447
I9
sV\u5269\u4f4e
p3448
I1
sV\u6253\u6383
p3449
I1
sV\u56fa\u6cd5
p3450
I1
sV\u5931\u7126\u4e86
p3451
I1
sV\u904e\u6bd4
p3452
I1
sVProfessor
p3453
I1
sV\u70ba\u4ec0\u9ebc
p3454
I5
sV\u8868\u73fe
p3455
I3
sV\u5f9e\u4f9d
p3456
I1
sV\u5c31\u7b97
p3457
I7
sV\u806f\u60f3\u5230
p3458
I2
sV\u7b49\u5019
p3459
I1
sV\u51b7\u51ac
p3460
I1
sVProgramming
p3461
I2
sV\u4e5f\u6c92
p3462
I3
sVServer
p3463
I1
sV\u73a9\u7269
p3464
I1
sV\u5bb6\u90a3
p3465
I1
sV\u8a00\u8ad6
p3466
I1
sV\u5657
p3467
I11
sV\u51fa\u53bb
p3468
I7
sV\u512a3
p3469
I1
sV\u4e00\u9ede
p3470
I9
sV\u5f9e\u4f86
p3471
I2
sV\u4e00\u5927\u65e9
p3472
I2
sVc
p3473
I2
sV\u53d6\u4ee3
p3474
I2
sVlast
p3475
I1
sVreverse
p3476
I2
sV\u5916\u6d29
p3477
I1
sV\u53ef\u4ee5
p3478
I39
sV\u4e0a\u6d77
p3479
I1
sV\u734e\u7684
p3480
I1
sV\u5c01\u6e2c
p3481
I1
sV\u526f
p3482
I1
sV\u770b\u5b8c
p3483
I6
sVSteve
p3484
I1
sV\u73a9
p3485
I8
sV\u611f\u6069
p3486
I1
sV\u53cd\u800c
p3487
I5
sVOther
p3488
I1
sV\u4e0b\u809a
p3489
I1
sV\u770b\u5b98
p3490
I1
sV\u57f7\u8ff7\u4e0d\u609f
p3491
I1
sV\u4e7e\u8106
p3492
I3
sV\u66ab\u6642
p3493
I7
sV\u5e95\u677f
p3494
I1
sV\u54ed\u4e86
p3495
I1
sV\u9304
p3496
I2
sV\u62dc\u8a17
p3497
I1
sV\u65e5\u6587
p3498
I1
sV\u65b0\u6b3e
p3499
I1
sV\u611f\u5192\u85e5
p3500
I2
sV\u6642\u5149
p3501
I1
sV\u7533\u8acb
p3502
I6
sV404
p3503
I1
sVplurker
p3504
I2
sV\u5230\u4f86
p3505
I1
sV\u4e00\u842c
p3506
I1
sV\u4e0d\u60f3
p3507
I2
sVOnline
p3508
I5
sVGea-Suan
p3509
I1
sV\u5e36\u523a
p3510
I1
sV\u4fdd\u8b49
p3511
I2
sV\uff1c
p3512
I1
sVasdf
p3513
I1
sV\u5e38\u898b
p3514
I1
sV\u5f8c\u7684
p3515
I3
sV\u516b\u767e\u516b
p3516
I1
sV\u63a8\u5ee3
p3517
I3
sV\u8003\u616e
p3518
I2
sV\u8072\u97f3
p3519
I4
sV\u56de\u5230
p3520
I1
sVProcessing
p3521
I1
sV\u8d77\u5e8a
p3522
I3
sV\u62dc
p3523
I2
sV\u59b3
p3524
I1
sV\u7a7f\u932f
p3525
I1
sV\u865f
p3526
I3
sV\u7528\u6389
p3527
I1
sV\u6e05\u6f54
p3528
I1
sV\u8981\u80cc\u8457
p3529
I1
sV\u89d2\u843d
p3530
I1
sV\u6d77\u7e9c
p3531
I1
sVmeeting
p3532
I6
sVpo
p3533
I1
sV\u597d\u770b
p3534
I1
sV\u63d0\u524d
p3535
I1
sVXML
p3536
I6
sV\u63d0\u5230
p3537
I10
sV\u8f9b\u82e6
p3538
I2
sV\u6311\u7bc7
p3539
I1
sV\u5408\u4f5c
p3540
I1
sV\u5152\u5b50
p3541
I1
sVfire
p3542
I2
sV\u300d
p3543
I106
sV\u786c\u789f
p3544
I2
sV\u65b0\u805e
p3545
I9
sV\u6c92\u7a7a
p3546
I2
sVN
p3547
I3
sV\u9031\u4e00
p3548
I1
sVEmoticonCode
p3549
I2
sV\u52d5\u7269
p3550
I1
sV\u5bc4\u671b
p3551
I1
sV\u83f8\u76d2\u53ea
p3552
I1
sV\u4ee3\u78bc
p3553
I1
sVXSS
p3554
I3
sV\u9192\u4e86\u554a
p3555
I1
sV\u516b\u6708
p3556
I1
sV\u96bb
p3557
I2
sV\u5c4f\u6771
p3558
I1
sV\u985e
p3559
I6
sV\u86cb\u9ec3
p3560
I1
sV\u6709\u610f\u601d
p3561
I3
sVhandling
p3562
I1
sV\u82e5
p3563
I4
sV\u51fa\u520a
p3564
I1
sV\u7121\u5948
p3565
I1
sV\u50b3\u5230
p3566
I1
sV\u5728\u4e16
p3567
I1
sVlinux_ia32_bind
p3568
I2
sV\u53ef
p3569
I6
sV\u7684\u4fe1
p3570
I2
sVXDXD
p3571
I1
sV\u9178\u554a
p3572
I1
sV\u63d0\u4f9b
p3573
I2
sV\u5957\u623f
p3574
I3
sV\u5c3c\u4e9e\u7684
p3575
I1
sV\u6dfb
p3576
I1
sV\u7562\u7adf
p3577
I5
sV\u4efd
p3578
I6
sV31
p3579
I1
sV\u5f88\u591a
p3580
I8
sV\u9580
p3581
I3
sV\u6700\u4f73
p3582
I1
sV\u7b49\u7d1a
p3583
I1
sVmodule
p3584
I2
sV\u719f\u6089
p3585
I1
sV\u6a02\u6a02
p3586
I1
sV\u5927\u5730
p3587
I2
sV\u63a1\u7528
p3588
I1
sV\u6848\u5b50
p3589
I1
sV\u5167\u5efa
p3590
I1
sV\u4eba\u8b1b
p3591
I1
sV1\u9ede
p3592
I1
sV\u5047\u6587
p3593
I1
sV35
p3594
I1
sV\u9019
p3595
I115
sV\u77ed\u671f
p3596
I1
sV\u6709\u6642
p3597
I4
sV\u4e86\u518d
p3598
I1
sVGoodDay
p3599
I1
sV\u53f0\u7a4d
p3600
I1
sVXDDD
p3601
I2
sV\u6253\u6298
p3602
I1
sV\u751f\u6d3b
p3603
I2
sV\u8fa6\u6cd5
p3604
I3
sV\u52d5\u529b
p3605
I1
sV\u67d0\u67d0
p3606
I1
sV\u4eca\u5e74
p3607
I7
sVquot;KICK
p3608
I1
sV\u5ff5\u982d
p3609
I2
sVwillh
p3610
I3
sV\u932f
p3611
I4
sV\u8d85\u904e
p3612
I4
sV\u90a3\u4e9b
p3613
I6
sV\u79d1\u6280
p3614
I5
sV\u8acb\u6211
p3615
I1
sV\u5831
p3616
I8
sVseminar
p3617
I4
sV\u9673\u662d
p3618
I1
sVDevelopment
p3619
I1
sV\u96e3\u9053
p3620
I3
sV\u4e26\u8f49
p3621
I1
sV\u8cb7\u83dc
p3622
I1
sVUnpack
p3623
I1
sV\u901a\u8a71
p3624
I1
sVHD
p3625
I1
sV\u96b1\u79c1\u6b0a
p3626
I1
sVdevelopment
p3627
I1
sV\u53ea\u80fd
p3628
I6
sV\u5143
p3629
I4
sV\u5fb7
p3630
I1
sVXD
p3631
I72
sVLines
p3632
I1
sV\u9054\u5230
p3633
I3
sVmov
p3634
I1
sV\u53bb\u4e8b
p3635
I1
sVthread
p3636
I1
sV\u7279\u6b8a
p3637
I2
sV\u6bd4
p3638
I7
sV\u8a66\u8a66
p3639
I1
sV\u9ad4\u6703
p3640
I1
sVAP
p3641
I1
sV\u72c2\u96fb
p3642
I1
sVgoogle://&amp;quot
p3643
I1
sV\u95d6\u95dc
p3644
I1
sVstack
p3645
I1
sV\u8b20\u8a00
p3646
I1
sV\u96a8\u6a5f
p3647
I2
sV\u8166\u5b50
p3648
I2
sV\u8f49\u5657\u4e86
p3649
I1
sV\u6163
p3650
I1
sVING
p3651
I2
sV\u90a3\u9ebc
p3652
I4
sV\u516b\u5366
p3653
I1
sV\u52aa\u529b
p3654
I3
sV\u6b20\u7f75
p3655
I1
sV\u53bb\u7ffb
p3656
I1
sV\u756b
p3657
I1
sV\u5fb5\u5230
p3658
I1
sV\u536f
p3659
I1
sV\u7684\u6642\u5019
p3660
I6
sV\u5973
p3661
I2
sVThisIsAnEmoticonCodeThisIsAnEmo
p3662
I1
sV\u53cd\u904e\u4f86
p3663
I1
sV\u8aaa\u6cd5
p3664
I1
sVy
p3665
I1
sVTools
p3666
I1
sVirus
p3667
I1
sV\u8857\u9053
p3668
I2
sVT
p3669
I3
sV\u6c23\u6eab
p3670
I2
sV\u72f9\u7fa9
p3671
I1
sV\u5283
p3672
I2
sV\u53f0\u79d1
p3673
I2
sVquot;Python&amp;quot
p3674
I1
sV\u767c\u8a71
p3675
I1
sV\u5b89
p3676
I3
sV-
p3677
I42
sV\u89e3\u78bc
p3678
I1
sV\u4fdd\u885b
p3679
I1
sV\u5634\u7832\u4e86
p3680
I1
sVDebug
p3681
I1
sV\u6eab\u5d50
p3682
I1
sV\u8df3\u4e4e\u4f0a\u723d
p3683
I1
sV\u591a\u4e86
p3684
I3
sV\u6bba\u4eba
p3685
I1
sVamp
p3686
I2
sVlexus
p3687
I1
sV\u679c\u51cd
p3688
I2
sV\u7684\u6c92
p3689
I1
sV\u789f
p3690
I1
sVgt
p3691
I4
sV\u88ab\u51f9\u4e09
p3692
I1
sVaccepted
p3693
I1
sV$
p3694
I5
sV\u5f8c\u9580
p3695
I1
sVWMWifiRouter
p3696
I1
sV\u53bb\u505a
p3697
I1
sV\u6bba\u4e86
p3698
I2
sVNokia
p3699
I4
sV\u5c31\u597d
p3700
I3
sVPIE
p3701
I1
sV\u975c\u96c4
p3702
I1
sVsource
p3703
I2
sV\u4efb\u4e00
p3704
I1
sV\u8766\u7684
p3705
I1
sV\u5834
p3706
I5
sV\u597d\u5403
p3707
I3
sV\u6b63\u9762
p3708
I1
sV\u624d\u5728
p3709
I1
sV\u5f62\u6210
p3710
I1
sV\u5b58\u5230
p3711
I1
sV\u5c46
p3712
I1
sV\u96e3\u53d7
p3713
I2
sV\u5f85
p3714
I1
sV...
p3715
I141
sV\u559c\u4e8b
p3716
I1
sV\u7372\u5f97
p3717
I3
sV\u6a02\u89c0
p3718
I1
sV\u770b\u6cd5
p3719
I1
sV\u53bb\u5e97\u88e1\u537b
p3720
I1
sVOh
p3721
I1
sV\u6295\u5f71
p3722
I1
sV\u86cb
p3723
I1
sV\u6211\u4eba
p3724
I1
sV\u804a\u6211
p3725
I1
sV\u6642\u88ab
p3726
I1
sV\u8fd1
p3727
I1
sV\u5c0f\u773e
p3728
I1
sVbit
p3729
I2
sV\u5ddd
p3730
I1
sV\u540c\u5b78
p3731
I15
sV\u7e8c\u96c6
p3732
I1
sV\u5973\u5b69
p3733
I1
sVOL
p3734
I1
sVOK
p3735
I6
sVd
p3736
I1
sV\u96e2\u984c
p3737
I1
sV\u6a5f\u5236
p3738
I1
sVmessage
p3739
I1
sV\u623f\u9593
p3740
I1
sVOB
p3741
I1
sV\u88ab\u9178\u4e86
p3742
I1
sV\u7121\u8f9c
p3743
I1
sV\u6e2c\u9a57
p3744
I1
sV\u7d72
p3745
I1
sV\u570b\u5916
p3746
I1
sVLearning
p3747
I1
sV\u719f\u5566
p3748
I1
sV\u4ee5\u5916
p3749
I1
sVOS
p3750
I7
sV\u982d\u662f
p3751
I1
sV\u8a0e\u8ad6
p3752
I9
sV\u4f46\u662f
p3753
I6
sV\u5f9e\u65e9\u5230\u665a
p3754
I1
sV\u6368\u4e0d\u5f97
p3755
I1
sVgoogle
p3756
I1
sVJava
p3757
I1
sV\u9084
p3758
I56
sV\u5c07
p3759
I5
sV\u537b\u88ab\u800d
p3760
I1
sV\u5f88\u665a\u624d
p3761
I1
sVthreads
p3762
I1
sV\u7b49\u4e0d\u53ca
p3763
I1
sV\u4e0d\u6368
p3764
I1
sV\u7d05\u6a13
p3765
I1
sV3.7
p3766
I1
sV\u904e\u7684
p3767
I4
sV\u8a0a\u865f
p3768
I1
sVexamples
p3769
I1
sV3.0
p3770
I2
sV3.1
p3771
I1
sVqeber
p3772
I1
sVHacks
p3773
I1
sV\u4e82\u641e
p3774
I1
sVChannel
p3775
I1
sV8133
p3776
I1
sV\u4e5f\u6eff
p3777
I1
sV\u4e5f\u662f
p3778
I4
sV\u8ce3\u5149
p3779
I1
sV\u521d\u8a66
p3780
I1
sV\u4f46\u66f4
p3781
I1
sV\u8b80\u5427
p3782
I1
sV\u592a\u665a
p3783
I3
sV\u4e2d\u58e2
p3784
I11
sV\u5403\u5b8c
p3785
I3
sV\u54ac
p3786
I1
sV\u746a\u5947\u6735
p3787
I1
sV\u5f31
p3788
I2
sVThisIs
p3789
I1
sV\u978b\u5b50
p3790
I1
sV\u5927\u5403
p3791
I1
sVcloud
p3792
I1
sVThisIsAnEmot
p3793
I1
sV\u559c\u6b61
p3794
I12
sV\u5e7e\u5341
p3795
I1
sV\u4e3b
p3796
I1
sV\u5e7e\u5343
p3797
I1
sV\u8cbc
p3798
I1
sVt
p3799
I1
sV\u767d\u75f4
p3800
I1
sV\u5ba2\u90a6
p3801
I3
sV\u660e\u6b63
p3802
I1
sVeating
p3803
I2
sV\u5e78\u798f
p3804
I3
sV\u8d95\u53bb
p3805
I1
sV300
p3806
I1
sV\u6c38\u9060
p3807
I4
sVtechcon
p3808
I1
sVBot
p3809
I1
sV\u81ea\u5df1
p3810
I42
sV\u4fee\u4e86
p3811
I1
sVpic244241.jpg
p3812
I1
sV\u5fc5\u52dd
p3813
I1
sV\u5f37\u5236
p3814
I3
sV\u898f\u683c
p3815
I1
sV\u9031\u8d85
p3816
I1
sV\u5169\u842c
p3817
I2
sV\u52a9\u7406
p3818
I2
sVWargame
p3819
I2
sV\u4f5c\u6587
p3820
I1
sV\u9ea5
p3821
I1
sVby
p3822
I3
sVNDIS
p3823
I1
sV\u679c\u7136
p3824
I8
sV\u5927\u5167
p3825
I1
sV\u4e0a\u4f7f
p3826
I1
sVquot;reverse
p3827
I1
sVworking
p3828
I1
sV\u5438\u8840
p3829
I1
sVquot;software-testing
p3830
I1
sV\u90fd\u88ab\u4eba
p3831
I1
sV\u5927\u9678
p3832
I1
sV\u8ca9\u8ce3\u6a5f
p3833
I2
sV\u300e
p3834
I4
sV\u7b97\u662f
p3835
I6
sV\u5b83\u7684
p3836
I3
sV\u5f88\u7a69
p3837
I1
sV\u6d88\u606f
p3838
I3
sV1.73
p3839
I1
sV\u591a\u5de5
p3840
I1
sV\u589e\u52a0
p3841
I1
sV\u70ba\u4f55
p3842
I3
sV\u6211\u4e0a
p3843
I2
sV\u6490\u4f4f
p3844
I1
sV\u639b\u6389
p3845
I1
sV\u4e5f\u8b8a
p3846
I1
sV\u5df7\u5b50
p3847
I1
sV\u6c92\u628a\u63e1
p3848
I1
sV\u7de8\u78bc
p3849
I2
sV\u6aa2\u67e5
p3850
I1
sV\u5047\u671f
p3851
I1
sV\u800c\u662f
p3852
I3
sV\u81f3\u5c11
p3853
I12
sV\u7a81\u7136
p3854
I9
sV\u671f\u9593
p3855
I2
sV\u904e\u7576
p3856
I1
sV\u8cc7\u6599
p3857
I11
sV\u50b3\u9054
p3858
I1
sV\u5973\u738b
p3859
I1
sV\u9019\u674e\u532f\u6674\u5728
p3860
I1
sV\u8b93
p3861
I12
sV\u7832\u7070
p3862
I1
sV\u80fd\u529b
p3863
I4
sV\u7814\u8a0e\u6703
p3864
I2
sV\u8f49\u500b\u8eab
p3865
I1
sV\u9084\u7b97
p3866
I1
sV\u4e0a\u4e86
p3867
I2
sV\u5831\u544a
p3868
I9
sV\u5fc3\u5f97
p3869
I4
sVThe
p3870
I1
sV\u6240\u6709\u4eba
p3871
I1
sVsystem-modal
p3872
I1
sVcomputer
p3873
I1
sV\u623f\u5730\u7522
p3874
I1
sV..
p3875
I36
sV\u90fd\u6c92
p3876
I3
sV\u70ba\u4e86
p3877
I7
sV\u6f58\u6735\u62c9
p3878
I2
sV\u7f8e\u597d
p3879
I1
sV\u4ed6\u5f88
p3880
I1
sV\u5bb3
p3881
I1
sV\u4e00\u53c8\u56db\u5206\u4e4b\u4e00
p3882
I1
sV&lt;
p3883
I7
sV\u65b7
p3884
I1
sV\u5927\u9580
p3885
I1
sV\u5dee\u7570
p3886
I1
sV\u8a0e\u559c
p3887
I1
sV:
p3888
I39
sV\u514c\u63db
p3889
I1
sV\u5e6b\u4f60\u79fb\u9664
p3890
I1
sV\u5f98\u5f8a
p3891
I1
sVQQ
p3892
I1
sV\u9ebb\u7169
p3893
I3
sV\u718a
p3894
I1
sV\u50c5
p3895
I1
sVQA
p3896
I2
sV\u5957
p3897
I5
sV\u5834\u5408
p3898
I1
sVplurk_id
p3899
I1
sV\u8cc7\u6599\u5eab
p3900
I2
sVDjango
p3901
I1
sV\u584a
p3902
I1
sV\u5730\u9ede
p3903
I1
sV\u6301\u7e8c
p3904
I2
sV\u89c0\u5ff5
p3905
I1
sVHero
p3906
I6
sV\u5973\u53cb
p3907
I4
sV7\u6028\u5ff5
p3908
I1
sV\u5acc
p3909
I1
sVexe
p3910
I1
sVlink
p3911
I2
sV\u56de\u904e
p3912
I1
sV\u63a1
p3913
I1
sVepisode
p3914
I1
sV\u662f\u52a0\u56de
p3915
I1
sV\u505a
p3916
I13
sV\u5831\u540d
p3917
I3
sV\u8f49\u5bc4
p3918
I1
sV\u79df
p3919
I1
sV\u8dd1\u8eca
p3920
I1
sV\u60c5\u666f
p3921
I1
sV\u6703\u662f
p3922
I2
sV\u4efb\u4f55
p3923
I2
sV\u62cb\u68c4
p3924
I1
sV\u5357\u6e2f
p3925
I2
sV\u6c92\u8ca8
p3926
I1
sV\u4e2d\u5929
p3927
I2
sVup
p3928
I1
sV\u4e4b\u524d
p3929
I30
sV\u6578\u5b57
p3930
I1
sV\u5931\u7720
p3931
I3
sV\u4e9e\u592a
p3932
I1
sV\u5206\u89e3
p3933
I1
sV\u86cb\u7cd5
p3934
I1
sV\u7adf\u7136
p3935
I1
sV\u5979\u62ff
p3936
I1
sV\u90fd\u5c0d\u4ed6
p3937
I1
sV\u63a7\u544a
p3938
I1
sV\u5730\u9707
p3939
I8
sV\u66b4\u589e
p3940
I1
sV\u7528\u4fee\u8ab2\u904e\u4e14\u73ed
p3941
I1
sV\u9ad2\u8a71
p3942
I1
sVPlurks&amp;quot
p3943
I1
sV\u80e1\u8aaa\u516b\u9053
p3944
I1
sVPerhaps
p3945
I1
sVDynamic
p3946
I2
sVOpenDNS
p3947
I1
sV\u67b6\u8a2d
p3948
I1
sV\u66f2\u7dda
p3949
I1
sVSetWindowsHookEx
p3950
I1
sVTerminal
p3951
I1
sV\u7f3a\u9ede
p3952
I1
sV\u9019\u4e9b
p3953
I3
sV\u6311\u67d3
p3954
I1
sV\u4e1f\u500b
p3955
I1
sV\u9032\u51fa
p3956
I1
sV\u611b\u4e0a
p3957
I1
sV\uff1b
p3958
I2
sV\u665a\u9910
p3959
I3
sV\u4ecb\u7d39
p3960
I1
sV\u5e79\u6389
p3961
I1
sVMap
p3962
I2
sVrainy
p3963
I1
sV\u7b46\u96fb\u7684
p3964
I2
sV%
p3965
I5
sV\u5fa9\u751f
p3966
I1
sV\u4ea6
p3967
I1
sV\u6085\u77e5
p3968
I1
sV\u7576
p3969
I14
sVabwang
p3970
I1
sV\u56de\u50b3
p3971
I2
sV\u7d93\u9a57
p3972
I3
sVinvalid
p3973
I1
sV\u6a5f\u53f0
p3974
I1
sV\u4eba\u5f62
p3975
I1
sV\u6643\u6643
p3976
I1
sVError
p3977
I3
sV\u98f2
p3978
I1
sV\u60f3\u5403
p3979
I1
sV\u6211\u4f46
p3980
I1
sVTG
p3981
I1
sV\u6dbc
p3982
I1
sVCOFFEE
p3983
I1
sV\u89e3\u812b
p3984
I2
sV\u6311\u6230
p3985
I2
sV\u662f\u5c0d
p3986
I1
sV\u7761\u5922
p3987
I1
sV\u5931\u63a7
p3988
I1
sV\u610f\u7fa9
p3989
I4
sV\u770b\u61c2
p3990
I1
sV\u9020\u578b
p3991
I1
sV\u5f71\u97ff\u5230
p3992
I1
sV\u65d7\u4e0b
p3993
I2
sV\u4f86\u56de
p3994
I2
sV\u4e0d\u898b\u5f97
p3995
I2
sV\u5c31\u88ab\u523a
p3996
I1
sV\u96d6
p3997
I1
sV\u6a5f\u7387
p3998
I2
sV\u6eff\u9177\u7684
p3999
I1
sV\u5b58\u53d6
p4000
I1
sVIntellisense
p4001
I1
sVROM
p4002
I4
sV\u8f49\u5b78
p4003
I1
sV\u5927\u5168
p4004
I1
sVe
p4005
I2
sV\u54b3\u55fd
p4006
I1
sVCross-Origin
p4007
I1
sV\u516b\u516b
p4008
I1
sViPad
p4009
I3
sV\u662f\u665a\u7761
p4010
I1
sV\u6b63\u6574\u6578
p4011
I1
sV\u53f0
p4012
I11
sV\u6293\u4e0d\u5230
p4013
I1
sV\u5f37\u5316
p4014
I1
sV\u4fc3\u4f7f
p4015
I1
sV\u4e0d\u6210
p4016
I1
sV\u6279
p4017
I2
sV\u6839\u6e90
p4018
I1
sV2008
p4019
I1
sV2009
p4020
I4
sV\u8207\u5eab
p4021
I1
sVhaving
p4022
I1
sV\u96dc\u7269
p4023
I1
sVcode
p4024
I4
sV\u8b1b\u5f97
p4025
I1
sV\u4e00\u5207
p4026
I3
sV\u53bb\u5e74
p4027
I4
sV\u6230\u529b
p4028
I1
sV\u81ea\u8a0e\u82e6\u5403
p4029
I1
sV\u99ac\u4e0a
p4030
I10
sV\u6253\u5f97\u958b
p4031
I1
sV\u65e9\u8d77
p4032
I3
sV\u9019\u6a23\u5b50
p4033
I2
sVshortcomings
p4034
I1
sV\u767c\u5657
p4035
I2
sVAsus
p4036
I1
sV\u4efb\u6027
p4037
I1
sV\u804a\u4e86
p4038
I1
sVSA@Tainan
p4039
I2
sV\u80cc\u9762
p4040
I1
sV\uff1a
p4041
I38
sV\u80fd\u73a9
p4042
I1
sVCPU
p4043
I2
sV\u6c42\u5a5a
p4044
I1
sV\u8ca2\u737b
p4045
I1
sV\u958b\u5fc3
p4046
I3
sVR^X
p4047
I1
sV\u8abf\u6574\u597d
p4048
I2
sV\u6240\u4ee5
p4049
I27
sV\u672a
p4050
I3
sV\u7121\u540d
p4051
I1
sVCrystalCPUID
p4052
I1
sV\u71b1
p4053
I3
sV\u7570\u8c61
p4054
I1
sVwill
p4055
I1
sV\u96d6\u7136
p4056
I12
sV\u8981\u8ac7\u4e86
p4057
I1
sV\u9806\u98a8
p4058
I1
sV\u6c38
p4059
I1
sV\u653b\u9632\u6230
p4060
I1
sV\u5e0c\u671b
p4061
I14
sV\u8cb7\u98ef
p4062
I1
sV\u9577\u5b98
p4063
I1
sV\u60f3\u505a
p4064
I2
sVFlash
p4065
I6
sV\u8001\u7238
p4066
I2
sV6\u5566
p4067
I1
sV\u770b\u8d77\u4f86
p4068
I6
sV\u53cd\u566c
p4069
I1
sV\u5e03\u4e01
p4070
I1
sV\u900f\u904e
p4071
I3
sV\u6bcd
p4072
I1
sV\u5bb3\u6015
p4073
I1
sV\u5341\u4e8c
p4074
I1
sV\u6050
p4075
I1
sV\u9ad8\u9ad8
p4076
I1
sV\u7834
p4077
I2
sV\u4e0d\u8db3
p4078
I4
sV\u5237\u65b0
p4079
I1
sV\u5165\u4fb5
p4080
I2
sV\u958b
p4081
I12
sV\u5565\u9b3c\u5566
p4082
I1
sVOverflow
p4083
I2
sVwxDev-C
p4084
I1
sV\u9577\u7bc7
p4085
I1
sV\u8ce3
p4086
I1
sV\u7a69\u5b9a
p4087
I1
sV\u4ee3\u7ba1
p4088
I1
sV\u7cbe\u88dd
p4089
I1
sV\u731c\u5230
p4090
I1
sVThisIsAnEmo
p4091
I2
sV\u770b\u770b
p4092
I5
sVgender
p4093
I1
sV\u5435\u5230
p4094
I1
sVRelated
p4095
I1
sVtry
p4096
I2
sV\u8aaa\u670d
p4097
I1
sVSima
p4098
I1
sVDefense
p4099
I1
sV\u7c89\u788e
p4100
I1
sV\u72c2\u71b1
p4101
I1
sV\u7121\u6548
p4102
I1
sV\u6230\u4e86
p4103
I1
sV\u5c0f\u9913
p4104
I1
sV\u71d2\u8089
p4105
I2
sV\u5c31\u61f6\u4e86
p4106
I1
sVHttpWatch
p4107
I1
sV\u5c0e\u822a
p4108
I1
sV\u4eba\u5728
p4109
I3
sV\u627e\u51fa
p4110
I1
sV\u5207
p4111
I2
sV\u5509
p4112
I1
sVquot;not
p4113
I1
sV\u6454\u5012
p4114
I1
sV\u5beb\u5b8c
p4115
I1
sV\u5230\u9054
p4116
I1
sV\u6392
p4117
I1
sVCommand
p4118
I1
sV\u9996
p4119
I4
sV\u539f\u6587
p4120
I3
sV\u9078\u55ae
p4121
I1
sVode
p4122
I1
sVSELECT
p4123
I2
sV\u7684\u6211
p4124
I1
sV\u62d2\u7d55
p4125
I2
sV\u6c23
p4126
I1
sVOrz
p4127
I9
sV\u4ea4
p4128
I1
sV\u5be6\u969b
p4129
I4
sVwtfjs.com
p4130
I1
sV\u901a\u96fb\u8a71
p4131
I1
sV\u623f\u5b50
p4132
I3
sVLink
p4133
I1
sV\u81a0\u8457
p4134
I1
sVTV
p4135
I2
sV\u8d85\u51fa
p4136
I1
sV\u8587\u95a3
p4137
I1
sV;
p4138
I34
sV\u8655\u7406
p4139
I3
sV\u6c92\u60f3\u5230
p4140
I6
sV\u6253\u4f86
p4141
I7
sV\u8981\u62ff
p4142
I1
sV\u5c0f\u59d0
p4143
I1
sV\u8f15\u5ffd
p4144
I1
sVelleryq
p4145
I2
sV\u6c23\u606f
p4146
I1
sV\u5145\u96fb
p4147
I4
sV\u5247
p4148
I6
sV\u524d\u7684
p4149
I3
sV\u9ad8\u79d1\u6280
p4150
I1
sV\u54c8
p4151
I2
sV\u5c0d\u932f
p4152
I1
sV\u9b6f\u9b6f\u4fee
p4153
I2
sV\u7576\u4e2d
p4154
I5
sV\u7279\u50f9
p4155
I1
sV\u516c\u958b
p4156
I2
sV\u9762\u5177
p4157
I2
sV\u5922\u5230
p4158
I1
sVlicence
p4159
I1
sV\u771f\u5be6
p4160
I2
sV\u5224\u65b7
p4161
I1
sV\u8f38\u5165
p4162
I8
sV\u516c\u5f0f
p4163
I1
sV\u7576\u4e00
p4164
I1
sV\u8cb7\u4e86
p4165
I6
sV39
p4166
I2
sV\u5b89\u4eba
p4167
I1
sV\u96fb\u8a71
p4168
I5
sV\u5beb\u5beb
p4169
I2
sV32
p4170
I2
sV\u8001\u5e2b
p4171
I25
sV30
p4172
I4
sV37
p4173
I1
sV\u8ff7\u7cca
p4174
I1
sV\u6295\u5f71\u7247
p4175
I3
sV\u5098\u5c31
p4176
I1
sV\u96fb\u78c1
p4177
I2
sVPalm
p4178
I2
sVION
p4179
I1
sV\u81ea\u55e8
p4180
I1
sV{
p4181
I1
sV\u65e5\u76ca
p4182
I1
sV1201
p4183
I1
sV\u5206\u6790
p4184
I4
sV\u5927\u5bb6
p4185
I7
sV\u6bc0\u640d
p4186
I1
sV\u53ef\u60f3\u800c\u77e5
p4187
I1
sV\u5728\u627e
p4188
I1
sV\u539a\u91cd
p4189
I1
sV\u52a0\u7684\u5427
p4190
I1
sV\u898b
p4191
I1
sVhitcon.org
p4192
I1
sV\u7422\u78e8
p4193
I1
sVprivate
p4194
I2
sV\u9bae\u8766
p4195
I1
sV\u6578\u5b78
p4196
I1
sV\u5d4c\u5165
p4197
I3
sV\u4e0a\u7db2
p4198
I2
sV\u6db5\u84cb
p4199
I1
sVblog
p4200
I3
sV\u5be6\u5728
p4201
I6
sV\u91d8\u5bae
p4202
I2
sV1000
p4203
I1
sV\u731c
p4204
I1
sV\u514d\u8cbb
p4205
I3
sV\u5e95\u6b62
p4206
I1
sV\u9078\u624b
p4207
I1
sV\u4e8b
p4208
I6
sV\u5538\u7684
p4209
I1
sVfrom
p4210
I4
sV\u2026
p4211
I35
sV\u4eba\u7684
p4212
I6
sV\u63a5\u7684
p4213
I1
sV\u8cc7\u7d50\u8ddf\u7d44\u8a9e
p4214
I1
sVDriver
p4215
I1
sV\u6aaf\u9762
p4216
I1
sVAnalyzer
p4217
I1
sV\u76d2\u88e1\u5c0f\u516c\u4ed4\u662f
p4218
I1
sV\u96e3\u4fee\u4e5f
p4219
I1
sV\u81e8\u6642\u5de5
p4220
I1
sV\u5927\u7684
p4221
I1
sV\u597d\u7b28
p4222
I1
sV\u751f\u6230\u55ce
p4223
I1
sV\u5f97\u5230
p4224
I6
sV\u653b\u64ca
p4225
I4
sVwstring
p4226
I1
sV\u7d66
p4227
I14
sV\u4e3b\u7ba1
p4228
I2
sV\u786e??\u57fa???\u6ce8?
p4229
I1
sV\u55c6
p4230
I1
sV\u5f88\u75db
p4231
I3
sV\u9663\u5bb9
p4232
I2
sV\u9054\u723e\u6587
p4233
I1
sV\u7684\u591a\u52a0
p4234
I1
sV\u4e00\u534a
p4235
I6
sV\u9003\u4e0d\u4e86
p4236
I1
sV\u5728\u6230
p4237
I1
sVquot;hero
p4238
I1
sV\u6b4c
p4239
I1
sV\u5b87\u5b99
p4240
I3
sV\u76ee\u6a19
p4241
I5
sV\u8aaa\u662f
p4242
I1
sV\u5f0f
p4243
I5
sV\u5149\u6cc9
p4244
I1
sV\u5fae\u8edf
p4245
I4
sVHTC
p4246
I9
sVThisIsA
p4247
I1
sViii
p4248
I1
sV\u88e1
p4249
I3
sV\u624d\u5bc4
p4250
I1
sV\u4ee5
p4251
I2
sV\u6f64
p4252
I2
sVf
p4253
I3
sVthis
p4254
I2
sVchallenge
p4255
I1
sV\u5728\u6211
p4256
I4
sV0800
p4257
I1
sVLibrary
p4258
I1
sV\u7684\u63e1
p4259
I1
sV\u8aaa\u660e
p4260
I1
sV\u5099\u4efd
p4261
I2
sV\u626f\u51fa
p4262
I1
sVIEInspector
p4263
I1
sV\u7db2\u8def
p4264
I11
sV\u504f\u5dee
p4265
I1
sV\u5efa\u4e86
p4266
I1
sV\u60a8\u7684
p4267
I1
sV\u9577\u9ad8
p4268
I1
sV\u7576\u4f60
p4269
I1
sV\u9762\u5c0d
p4270
I5
sVsqlite
p4271
I1
sV\u6709
p4272
I135
sV\u82e6\u60b6
p4273
I1
sV\u767b\u5834
p4274
I4
sVprocess
p4275
I1
sVfavorite
p4276
I1
sV\u9ec3\u8000\u6587\u5247
p4277
I1
sV\u5728\u8def\u4e0a
p4278
I1
sVEUC-TW
p4279
I1
sVQ3/Q
p4280
I1
sV\u51fa\u932f
p4281
I1
sV\u63b0\u7684
p4282
I1
sV\u7684\u4f60
p4283
I1
sV\u4f75\u8cfc
p4284
I1
sV\u9ede\u7684
p4285
I1
sV\u6bcf\u9031
p4286
I1
sVWireshark
p4287
I1
sVmalware
p4288
I1
sV\u9801\u9762
p4289
I1
sVHIT
p4290
I2
sV\u4e0d\u9053\u5fb7
p4291
I1
sV\u521d
p4292
I1
sV\u6642\u5dee
p4293
I2
sV\u4e0a\u662f\u653e\u5728
p4294
I1
sV\u5c08\u5bb6
p4295
I2
sV11\u6708
p4296
I1
sV\u8010\u559d
p4297
I1
sV\u9031
p4298
I10
sV\u512a\u5148
p4299
I1
sV\u671f
p4300
I4
sV\u5927\u591a\u6578
p4301
I1
sV\u8eba
p4302
I1
sV\u7576\u4f5c
p4303
I1
sV\u03bc
p4304
I1
sV\u95dc\u9375\u8a5e
p4305
I1
sVprofile
p4306
I2
sV\u79c0
p4307
I2
sVThisIsAnEmoticonCode
p4308
I367
sV\u5f37\u7d22
p4309
I1
sV\u5347
p4310
I2
sVHTTP
p4311
I4
sVdb
p4312
I1
sV7\u7684
p4313
I2
sV\u8f15\u8072
p4314
I1
sV\u98f2\u6599
p4315
I1
sVcollection
p4316
I1
sV\u5927\u5b78
p4317
I8
sVQ
p4318
I1
sV\u61f7\u5ff5
p4319
I1
sV\u6bd4\u5982\u8aaa
p4320
I1
sV\u8655
p4321
I3
sV\u4e2d\u7a0b
p4322
I1
sV\u5b57
p4323
I2
sV\u5b78\u4e0a
p4324
I1
sV\u90fd\u626f
p4325
I1
sV\u90f5\u5c40
p4326
I1
sV\u8a2d\u5b9a
p4327
I1
sVmetasploit
p4328
I1
sV\u6539\u8b8a
p4329
I2
sVApple
p4330
I2
sV\u4e00\u5343\u56db
p4331
I1
sVTC
p4332
I1
sV\u665a\u7761
p4333
I1
sV\u65b0\u8cfc
p4334
I1
sVelement
p4335
I1
sV?\u900f
p4336
I1
sV\u767c\u6587
p4337
I1
sV768
p4338
I1
sV\u89e3\u6c7a\u6389
p4339
I1
sV\u5357\u4eac\u6771\u8def
p4340
I1
sV\u66b4\u96e8
p4341
I1
sV\u774f\u4e86
p4342
I2
sVlooking
p4343
I1
sV\u771f\u6b63
p4344
I2
sV\u6df1\u523b
p4345
I1
sV\u677f
p4346
I2
sV!!
p4347
I3
sV\u7372\u53d6
p4348
I1
sV\u6ac3\u53f0
p4349
I1
sV\u7d50\u69cb
p4350
I1
sV\u5c0f\u5b69
p4351
I2
sVAuthBootUp
p4352
I1
sV\u7b11\u6b7b
p4353
I1
sV\u7684\u9322
p4354
I1
sV\u81ea\u7136
p4355
I1
sV\u7279\u5225
p4356
I2
sV\u7832\u9019
p4357
I1
sV\u5f04\u4e00
p4358
I1
sV\u53c8\u662f
p4359
I2
sVGameGuard
p4360
I1
sV\u6210
p4361
I2
sV\u8001
p4362
I1
sVbabykoala
p4363
I6
sV\u6392\u5b9a
p4364
I3
sV\u539f\u6709
p4365
I1
sVLose/Lose
p4366
I1
sV\u65e9\u4f60
p4367
I1
sV\u53ef\u6015
p4368
I1
sV\u7d1a
p4369
I1
sV\u767d\u5929
p4370
I1
sV\u512a\u52e2
p4371
I1
sV\u8a0e\u53ad
p4372
I6
sVqueen&amp;quot
p4373
I1
sV\u6d88\u8cbb
p4374
I2
sV\u9632\u5236
p4375
I1
sVle
p4376
I1
sV\u6551\u5695
p4377
I1
sV481.04
p4378
I1
sV\u4e3b\u52d5
p4379
I3
sVSchedule
p4380
I1
sV\u4e56\u4e56
p4381
I2
sV\u88dd\u8f09
p4382
I1
sV\u50b3\u7d71
p4383
I1
sV\u60f3\u5230
p4384
I7
sV\u98e2\u5bd2
p4385
I1
sV\u6587\u66f8
p4386
I1
sV\u770b\u4e0d\u8d77
p4387
I1
sV\u5230
p4388
I45
sVlt
p4389
I4
sV\u5132
p4390
I1
sV\u6253\u8d0f
p4391
I1
sV\u662f\u51fa
p4392
I1
sV\u9593
p4393
I5
sV\u6709\u7684
p4394
I1
sV\u5047\u8a2d
p4395
I1
sV\u4e09\u7537\u4e00\u5973
p4396
I1
sV\u5f9e
p4397
I16
sV2010
p4398
I9
sV\u89e3\u6cd5
p4399
I1
sV\u8003\u4e0a
p4400
I1
sVdocx
p4401
I1
sV\u5341\u842c\u4e09\u5343
p4402
I1
sV\u5206\u64d4
p4403
I1
sV\u5c48\u6210\u6c0f\u7684
p4404
I1
sV\u6548\u679c
p4405
I2
sV\u5f37\u8feb
p4406
I4
sV\u9a5a\u8a1d
p4407
I1
sV\u8f2a\u6d41
p4408
I1
sV\u8acb
p4409
I2
sVpractice
p4410
I1
sV\u771f\u68d2
p4411
I2
sVmeeting@BARISTA
p4412
I1
sV\u4f4e
p4413
I1
sVBFS
p4414
I1
sV\u6c92\u5565
p4415
I1
sV\u5927\u90e8\u5206
p4416
I2
sV\u5c0f\u9b3c
p4417
I1
sV\u5c31\u60f3\u8cb7
p4418
I1
sV\u5b8c\u8df3
p4419
I1
sV\u5c08\u984c
p4420
I1
sV\u5fd9
p4421
I1
sVWorks
p4422
I2
sVday
p4423
I2
sVBotnet
p4424
I1
sVPre
p4425
I1
sV\u4ee3
p4426
I3
sV\u4eba
p4427
I28
sVNatural
p4428
I1
sVDebugger
p4429
I3
sV\u4e3b\u529b
p4430
I1
sV\u63a5\u4e0b\u4f86
p4431
I1
sV\u6015\u9ed1\u6389\u5427
p4432
I1
sV\u771f\u76f8
p4433
I1
sV\u99ed
p4434
I1
sV\u6709\u7a7a
p4435
I4
sV\u66f4\u65b0
p4436
I5
sVLoader
p4437
I1
sV\u7206\u64e0
p4438
I1
sV\u7121\u9650
p4439
I3
sV\u5440
p4440
I1
sV\u524d\u8b1b
p4441
I1
sV\u5f8c\u611f\u7684
p4442
I1
sV\u9a57\u7a2e
p4443
I1
sV\u5920\u591a
p4444
I1
sV\u5916\u63a5
p4445
I1
sV\u80fd\u91cf
p4446
I2
sV\u96e3\u5f97
p4447
I4
sV|
p4448
I8
sV\u52a0\u90a3\u4e0a
p4449
I1
sV\u5c0d\u7167
p4450
I2
sV\u5982
p4451
I5
sV\u4eba\u7528
p4452
I1
sV\u526f\u6a94\u540d
p4453
I1
sV\u5bb6\u4eba
p4454
I2
sV\u9910\u5ef3
p4455
I4
sV\u591a\u4e45
p4456
I4
sVSA@Taichung
p4457
I1
sV\u5f8c\u5929
p4458
I1
sV\u6311
p4459
I3
sV\u74b0\u5883
p4460
I4
sV\u9001
p4461
I4
sV89
p4462
I1
sVACSAC
p4463
I1
sV\u8d95\u5feb
p4464
I1
sV\u7f51??
p4465
I1
sV\u5c0f\u4e82\u804a
p4466
I1
sV80
p4467
I1
sV\u5be6\u6a5f
p4468
I1
sV86
p4469
I4
sV\u6536\u4fe1
p4470
I1
sV\u6703\u6bd4
p4471
I1
sV\u6b21
p4472
I48
sV\u6211\u6253
p4473
I2
sVIDE
p4474
I2
sV\u76d2\u5b50
p4475
I1
sVmatrix
p4476
I1
sV'
p4477
I2
sV\u66f8\u7c4d
p4478
I1
sV\u7dad\u57fa
p4479
I1
sV\u56de\u4fe1
p4480
I1
sV\u8cc7\u683c
p4481
I1
sV\u628a\u65b0
p4482
I1
sVreboot
p4483
I2
sV\u5922\u904a
p4484
I2
sV\u4e4b\u5f8c
p4485
I20
sV\u65b0
p4486
I11
sV\u5728\u7761
p4487
I1
sV\u4eba\u751f
p4488
I2
sVChina
p4489
I1
sV\u6c92\u5728
p4490
I1
sVjoaoko
p4491
I1
sV\u7684\u8036
p4492
I1
sV\u76847
p4493
I1
sV\u5496\u5561\u5e97
p4494
I1
sV\u51ac\u5929
p4495
I2
sV\u6216\u8005
p4496
I3
sV\u9047
p4497
I1
sV\u8868\u5df2
p4498
I1
sV\u706b\u5c71\u7fa4
p4499
I1
sV\u5f88\u9177\u7684
p4500
I1
sV\u8b1b\u5230
p4501
I2
sV\u8f49\u5657
p4502
I2
sV\u6a21\u64ec
p4503
I2
sVALUXE
p4504
I1
sVPHS
p4505
I2
sV\u53ef\u60dc
p4506
I1
sV\u640d\u5931
p4507
I1
sV\u5192\u51fa
p4508
I1
sV\u5beb\u963f\u51e1
p4509
I1
sV\u5496\u5561\u5ef3
p4510
I1
sV\u725b
p4511
I1
sV\u7dda
p4512
I3
sV\u529b\u91cf
p4513
I2
sV\u7cfb
p4514
I3
sV\u4e4b\u5fc3
p4515
I1
sV\u7c89\u7d72
p4516
I1
sV\u529f\u80fd
p4517
I10
sV\u9152\u9189
p4518
I1
sVPortable
p4519
I1
sVg
p4520
I1
sV\u53ef\u7528
p4521
I1
sVMultimedia-Forensics
p4522
I1
sV\u838a\u570b\u69ae
p4523
I1
sV\u53ef\u80fd
p4524
I10
sV\u70b8\u96de
p4525
I1
sV\u672c\u66f8
p4526
I2
sV\u5e74\u8ca8
p4527
I2
sV\u8ffd\u6c42
p4528
I2
sV\u81ea\u7531\u6642\u5831
p4529
I3
sVthiscall
p4530
I2
sV\u7e7c\u7e8c
p4531
I11
sV\u6230\u9b25
p4532
I1
sV\u7528\u4f86
p4533
I2
sV\u9bae\u5976
p4534
I3
sVDeveloper
p4535
I1
sV\u5802
p4536
I4
sV\u661f\u7403
p4537
I1
sV\u7d04
p4538
I4
sV\u5206
p4539
I4
sV\u5708
p4540
I1
sVAES
p4541
I1
sV\u5929\u7136
p4542
I1
sV\u4e5f
p4543
I77
sV\u8981\u4e0d\u7136
p4544
I1
sV\u5929\u4eba
p4545
I1
sV\u53ef\u611b
p4546
I1
sV\u9ede\u540d
p4547
I1
sV\u56de\u5c0f
p4548
I1
sV\u4e0d\u6eff
p4549
I1
sVToshiba
p4550
I1
sV\u90fd\u5f88\u6162
p4551
I1
sV\u5b78\u65b0
p4552
I1
sV\u540c\u597d
p4553
I1
sV\u95dc\u9589
p4554
I5
sV\u4e2d\u7565
p4555
I1
sV\u8eca\u90fd
p4556
I1
sVPlayboy
p4557
I1
sV\u597d\u9913
p4558
I1
sVBIOS
p4559
I3
sV\u6d17\u79ae
p4560
I1
sV\u53c3\u6578
p4561
I1
sV\u90e8\u843d
p4562
I2
sV\u6b50\u76df
p4563
I1
sV\u50b3\u4e86
p4564
I1
sV\u5728\u804a
p4565
I1
sVtlsj.tenlong.com.tw/WebModule/BookSearch/amn_fo
p4566
I1
sV\u9032
p4567
I2
sV99.8
p4568
I1
sVS3C
p4569
I1
sV\u610f\u5fd7\u529b
p4570
I1
sV\u9664\u5916
p4571
I1
sV\u8f38
p4572
I3
sV\u60f3\u7ba1\u6211
p4573
I1
sV\u75c5\u6bd2
p4574
I2
sV\u5947\u602a
p4575
I2
sVSSDT
p4576
I1
sV\u77e5\u8b58
p4577
I4
sVRVMDK
p4578
I1
sV\u5fc3
p4579
I1
sVtesting
p4580
I1
sV\u7d44
p4581
I4
sV\u90fd\u60f3
p4582
I1
sV\u597d\u597d
p4583
I3
sV\u9080\u8acb
p4584
I1
sVGundam
p4585
I1
sV\u544a
p4586
I1
sV\u96e3\u5ea6
p4587
I2
sV\u4ee5\u70ba
p4588
I2
sV\u91d1\u50cf\u734e
p4589
I1
sVExploitation
p4590
I1
sV\u6350
p4591
I1
sV\u88ab\u6211
p4592
I1
sVR
p4593
I1
sV\u8a2d\u8a08\u51fa
p4594
I1
sV\u5dee\u4e0d\u591a
p4595
I2
sV\u5c0e\u81f4
p4596
I1
sV\u515c
p4597
I1
sV\u5929\u5167
p4598
I1
sV\u5e36\u53bb
p4599
I2
sV\u96fb\u5b50
p4600
I1
sVOMG
p4601
I1
sV\u4e0d\u7d04\u800c\u540c
p4602
I1
sV\u5b78\u6703
p4603
I1
sV\u5beb
p4604
I14
sV\u4e00\u5169
p4605
I2
sVCaleb
p4606
I1
sVkernel32.dll
p4607
I1
sV\u9644\u52a0
p4608
I3
sV\u5370
p4609
I2
sV\u597d\u5947
p4610
I3
sV\u65e9\u4e0a
p4611
I10
sV\u653e\u9b06
p4612
I2
sV\u6311\u4e86
p4613
I1
sV\u90fd\u80cc
p4614
I1
sVThisIsAHype
p4615
I1
sV\u4e0d\u5982
p4616
I2
sV\u80fd
p4617
I32
sV\u51fa\u4e86
p4618
I2
sV\u8b8a\u5f62
p4619
I2
sVLIDIOT
p4620
I1
sV\u662f\u904e
p4621
I1
sVNeuron
p4622
I1
sV1.0
p4623
I1
sV\u8a71\u90fd
p4624
I1
sV\u9020\u53e5
p4625
I1
sVviewer
p4626
I1
sV\u8a72\u751f\u6211
p4627
I1
sV\u96fb\u5bb9
p4628
I1
sV\u8b8a\u5f97
p4629
I3
sV\u7cfb\u7d71
p4630
I21
sV\u8d0f
p4631
I1
sV\u773c\u775b
p4632
I2
sV\u6211
p4633
I137
sV\u62b1\u6b49
p4634
I1
sV\u7576\u7136
p4635
I6
sV\u540c\u4e00
p4636
I2
sVhave
p4637
I1
sV\u4fe1\u4ef6
p4638
I1
sV\u731b
p4639
I1
sV\u504f\u6fc0
p4640
I1
sV\u5438\u6536
p4641
I1
sV\u6234
p4642
I2
sV\u751f
p4643
I2
sV\u5167\u90e8
p4644
I1
sVElementTree
p4645
I1
sV\u65b0\u6ce2
p4646
I1
sV\u58de\u4eba
p4647
I2
sVwww.ppv5.com
p4648
I1
sV\u9084\u5728
p4649
I3
sV\uff1d
p4650
I1
sV\u5c0d\u624b
p4651
I1
sV\u982d
p4652
I2
sV\u8a18\u61b6\u9ad4
p4653
I1
sV\u7d2f
p4654
I6
sV\u96e2\u958b
p4655
I5
sV\u7d55\u5c0d
p4656
I2
sV\u7701\u4e86
p4657
I1
sV\u5fc3\u9178
p4658
I2
sV\u5435
p4659
I1
sV\u8cc7\u8cc7
p4660
I1
sV\u4e0d\u5c11
p4661
I7
sV=
p4662
I13
sV\u5171\u72af
p4663
I1
sV\u5f88\u9913
p4664
I1
sV\u7bc0
p4665
I1
sV\u5403\u6389
p4666
I3
sV\u804a
p4667
I1
sV\u963f\u901f\u88ab\u5927
p4668
I1
sV\u5be6\u9a57\u5ba4
p4669
I1
sV\u8eab\u908a
p4670
I3
sV\u9ebb\u6cb9
p4671
I1
sV\u5c37\u5c2c
p4672
I1
sV00
p4673
I4
sV\u665a\u8d70\u9084\u78b0
p4674
I1
sV\u5435\u9192
p4675
I3
sV\u63d0
p4676
I2
sV\u879e\u87fb
p4677
I1
sV\u9069\u4e2d
p4678
I1
sV\u6c7a\u5b9a
p4679
I3
sV**
p4680
I2
sVWEB
p4681
I1
sV\u8981\u4ee5
p4682
I1
sVwhy
p4683
I1
sV\u96de
p4684
I2
sV\u5617\u8a66
p4685
I2
sV\u539a
p4686
I1
sV\u7d05\u8336
p4687
I5
sV\u4e0d\u4e00
p4688
I2
sV\u53f0\u9435
p4689
I1
sV\u9762\u524d
p4690
I1
sV\u524d\u5728
p4691
I1
sV05
p4692
I1
sVIPPROTO_UDP
p4693
I1
sV\u958b\u5c0d
p4694
I1
sVface
p4695
I1
sV413
p4696
I2
sV\u57fa\u4e9e
p4697
I1
sV\u65e5\u6587\u7248
p4698
I1
sV\u7c73\u6e6f
p4699
I1
sV\u97ff\u61c9
p4700
I1
sV\u8eab\u70ba
p4701
I2
sV\u90e8\u9580
p4702
I1
sV}
p4703
I1
sVTool
p4704
I1
sV\u860b\u679c
p4705
I4
sV\u5883
p4706
I2
sVcurrently
p4707
I1
sV\u5fc5\u9808
p4708
I2
sV\u81ea\u5df2
p4709
I1
sVmeh&amp;quot
p4710
I1
sVdarkthread:VS
p4711
I1
sV\u8d85\u5546
p4712
I1
sVbad_alloc
p4713
I1
sV\u7e3d\u7d71\u5e9c
p4714
I2
sV\u57f7\u884c\u9577
p4715
I2
sVStub
p4716
I1
sV\u6211\u932f\u4e86
p4717
I1
sVkits
p4718
I1
sV\u4e8b\u4ef6
p4719
I4
sV\u5e97
p4720
I1
sV\u56e0\u70ba
p4721
I25
sV\u53cb\u4eba
p4722
I1
sV\u700f\u89bd\u5668
p4723
I2
sVBrowser
p4724
I1
sV\u5c07\u628a
p4725
I1
sV\u633a\u96e3\u7684
p4726
I1
sV\u4f5c\u696d
p4727
I9
sV\u4e26\u91cd
p4728
I1
sV\u958b\u5de5
p4729
I1
sV\u4f46\u6c92\u4eba\u4fe1\u4f60
p4730
I1
sV\u57fa\u672c
p4731
I5
sV\u5f88\u50b2
p4732
I1
sV(
p4733
I77
sV\u958b\u7684
p4734
I1
sVUpdate
p4735
I3
sV\u535a\u5ba2
p4736
I1
sV\u6a23\u7684
p4737
I1
sV\u9577\u5f97
p4738
I1
sV\u61c9\u7528
p4739
I9
sV\u50b3
p4740
I1
sV\u5b99\u4eba
p4741
I1
sV\u4e4b\u5916
p4742
I1
sV\u5df2
p4743
I9
sV\u7d66\u4e88
p4744
I2
sV\u8d85\u9577
p4745
I1
sV\u9663\u5b50
p4746
I4
sV\u65b9\u6cd5
p4747
I4
sV\u9732\u5929
p4748
I1
sV\u5ea6\u904e
p4749
I1
sVfcamel
p4750
I3
sVwatching
p4751
I1
sVn~...you
p4752
I1
sV\u56de\u7b54
p4753
I2
sVlucky
p4754
I1
sV\u60f3\u7576
p4755
I1
sV\u6309\u6389
p4756
I1
sVObjective-C
p4757
I1
sVSyncBack
p4758
I1
sV\u624d\u88ab
p4759
I1
sVjpg
p4760
I1
sV\u91dd\u5c0d
p4761
I1
sV\u66f4\u70ba
p4762
I1
sV\u7e3d\u662f
p4763
I4
sV\u907f\u96e3
p4764
I1
sV\u7537\u4eba
p4765
I1
sV\u79c1\u5bc6
p4766
I1
sV\u6a23\u55ce
p4767
I1
sV\u5370\u5230
p4768
I1
sV\u75db\u6068
p4769
I1
sV\u4e0d\u8981
p4770
I5
sVhypervisor
p4771
I1
sVh
p4772
I2
sV\u5c0f\u7d05
p4773
I2
sV\u780d\u6389
p4774
I1
sV\u8981\u662f
p4775
I2
sV\u958b\u5b8c
p4776
I2
sV\u8857
p4777
I1
sV\u5fb5\u7a3f
p4778
I1
sV\u662f\u6211\u7684
p4779
I1
sV\u672c
p4780
I24
sV\u5e95\u4e0b
p4781
I1
sV\u555f\u7528
p4782
I2
sV\u7169\u8e81
p4783
I1
sV\u64cd\u4f5c
p4784
I6
sV\u9031\u672b
p4785
I1
sV\u4e00\u767e
p4786
I3
sV\u62ff
p4787
I3
sVview
p4788
I1
sV\u6606\u660e\u8857
p4789
I1
sV\u5c31\u591a
p4790
I1
sVj
p4791
I1
sV\u53f0\u5357
p4792
I2
sV\u5c07\u8fd1
p4793
I1
sV\u8001\u5a46
p4794
I2
sV\u53c3\u8003
p4795
I1
sVkm
p4796
I1
sV\u6539\u4ee5
p4797
I1
sV\u4e8c
p4798
I1
sV\u4ee3\u5165
p4799
I1
sV\u4f5c\u7b46\u8a18
p4800
I1
sV!!!!
p4801
I1
sV\u662f\u975e
p4802
I1
sV\u2013
p4803
I3
sV\u8077\u5834
p4804
I1
sV\u63a8\u6587\u8aaa
p4805
I1
sVCeCreateFile
p4806
I1
sV\u5dee\u9ede
p4807
I3
sV\u4e00\u6703\u5152
p4808
I1
sV\u5f8c\u9762
p4809
I4
sV\u674e\u5bb6\u540c
p4810
I2
sVPl
p4811
I1
sV\u975e\u5e38
p4812
I9
sV\u7684\u662f
p4813
I6
sV\u4f9d\u7136
p4814
I1
sV\u524d\u4e00
p4815
I1
sVPT
p4816
I1
sV\u4ee5\u53ca
p4817
I1
sVXD&amp;quot;&amp;quot
p4818
I1
sV\u6c92\u7528
p4819
I2
sV\u56e0\u6578
p4820
I1
sV\u5be6\u529b
p4821
I1
sVralph
p4822
I2
sV\u9084\u9023
p4823
I1
sV\u56de\u5bb6
p4824
I8
sV\u79ae
p4825
I1
sV\u7531
p4826
I2
sVPC
p4827
I4
sV\u9032\u5ea6
p4828
I6
sV\u6210\u4e86
p4829
I1
sV\u4e0d\u4e00\u5b9a
p4830
I1
sVPD
p4831
I1
sVPE
p4832
I2
sV\u7b97
p4833
I3
sV\u8c6c\u7684\u8b8a
p4834
I1
sV\u90fd\u6709
p4835
I3
sVemail
p4836
I1
sV\u82b1\u4e86
p4837
I4
sV\u5834\u6b21
p4838
I1
sV\u908f\u8f2f
p4839
I3
sV\u5149\u5149
p4840
I1
sV\u53f0\u5317
p4841
I15
sVForum
p4842
I1
sV\u5973\u4eba
p4843
I2
sV\u5149
p4844
I2
sVPyWin
p4845
I1
sV\u554f\u6211
p4846
I9
sV\u5922\u88e1\u8d85?
p4847
I1
sV\u4f4d
p4848
I9
sV\u6c7a\u5b9a\u597d
p4849
I1
sV\u5176\u4e2d
p4850
I8
sV\u5230\u6642
p4851
I3
sVEFI
p4852
I1
sV\u700f\u89bd
p4853
I1
sV\u63d2\u5716
p4854
I1
sV\u62d4
p4855
I1
sVkey
p4856
I3
sV\u5b78
p4857
I7
sV\u4e8b\u4e3b
p4858
I1
sV\u671f\u9650
p4859
I2
sVproblem
p4860
I1
sV\u6587\u76f2
p4861
I1
sV\u5f97\u77e5
p4862
I5
sVchilis
p4863
I1
sV\u6050\u6016
p4864
I1
sV\u5538\u5b8c
p4865
I1
sV\u5305\u542b
p4866
I1
sV\u662f\u5728
p4867
I3
sV\u5be6\u52d9
p4868
I1
sV\u5546\u4eba
p4869
I1
sV\u904e\u654f
p4870
I1
sV\u5438\u5f15\u529b
p4871
I1
sV\u91e3\u7f8e\u7709\u6027\u4fb5
p4872
I1
sVetc
p4873
I1
sV\u4e92\u55c6
p4874
I1
sV\u7a7a\u9592
p4875
I1
sV\u4e00\u76f4
p4876
I10
sV\u4e8b\u4e14
p4877
I1
sV\u5bb6\u6559
p4878
I6
sV\u773c\u524d
p4879
I1
sV\u653e\u68c4
p4880
I2
sV\u57fa\u91d1\u6703
p4881
I1
sV\u63db\u4e86
p4882
I1
sV\u5fe0\u5b5d
p4883
I1
sV\u672c\u4f86
p4884
I1
sV\u597d\u5f37
p4885
I1
sVch
p4886
I1
sV\u7af6\u722d
p4887
I1
sVwall
p4888
I1
sVRX
p4889
I1
sV\u7684\u8eca\u4e86
p4890
I1
sV\u4ee5\u662f
p4891
I2
sV\u4e2d\u5348
p4892
I3
sVOrangeS
p4893
I1
sV\u73a9\u5bb6
p4894
I2
sV\u8457\u6557
p4895
I1
sVbatch
p4896
I1
sV\u2193
p4897
I1
sVMusic
p4898
I1
sV\u73a9\u610f
p4899
I1
sV\u7db2\u6982
p4900
I1
sVnews
p4901
I1
sV\u6d3e\u4e0a\u7528\u5834
p4902
I1
sVtable
p4903
I1
sV2800
p4904
I1
sV\u670b\u53cb
p4905
I5
sV\u63a7\u5e2b
p4906
I1
sVearning
p4907
I1
sV\u539f
p4908
I3
sV\u983b\u5bec
p4909
I1
sV\u4ee5\u524d
p4910
I9
sV\u6162\u4e86
p4911
I1
sV\u524d\u4f86
p4912
I1
sV8.5
p4913
I1
sV\u611f\u89ba
p4914
I33
sV\u5929\u771f
p4915
I3
sVRE
p4916
I1
sV\u9ede\u5230
p4917
I1
sV8.8
p4918
I3
sVYahoo
p4919
I4
sV\u66f8\u53bb
p4920
I1
sV\u666e\u901a
p4921
I1
sVPhone
p4922
I1
sV\u9673\u63ac
p4923
I1
sV\u539f\u672c
p4924
I20
sV\u9020\u5c31
p4925
I1
sV\u63a5\u529b
p4926
I1
sV\u4eba\u529b
p4927
I1
sVquot;My&amp;quot
p4928
I1
sV\u89e3\u6bd2
p4929
I3
sV\u8b8a\u5927
p4930
I1
sV\u5b9a\u6642
p4931
I1
sVNLTK
p4932
I1
sV\u964d\u901f\u7684
p4933
I1
sV\u9644\u548c
p4934
I1
sV\u65c1\u908a
p4935
I5
sVWith
p4936
I1
sVSQL
p4937
I1
sV\u5148
p4938
I24
sV\u4ecd
p4939
I2
sV\u660e\u65e5
p4940
I1
sV\u6bcf
p4941
I11
sV\u60f3\u6cd5
p4942
I1
sV\u585e\u8eca
p4943
I1
sV\u770b\u5230
p4944
I35
sVram
p4945
I3
sV\u8eca\u968a
p4946
I2
sVWorld
p4947
I1
sV\u4e2d\u6587\u7248
p4948
I2
sV\u5de5\u4f5c\u6703
p4949
I1
sV\u75db
p4950
I1
sV\u63a8\u85a6
p4951
I2
sV\u8f49\u904e\u4f86
p4952
I1
sV\u5927\u5e74\u521d\u4e00
p4953
I1
sV\u6709\u4e86
p4954
I2
sVAnd
p4955
I2
sV\u5c0d\u7684
p4956
I1
sV\u89e3
p4957
I3
sVCelestial
p4958
I1
sV\u8463\u6c0f
p4959
I1
sV\u6b64
p4960
I4
sVPDF-XChange
p4961
I2
sVMSN
p4962
I5
sV\u90a3\u6642
p4963
I4
sV\u91d1\u525b
p4964
I1
sV\u500b\u6708
p4965
I7
sV\u4e86\u597d
p4966
I2
sV\u4eba\u72c2
p4967
I2
sV\u4e0d\u5fd8
p4968
I1
sV\u52e4\u52de
p4969
I1
sVVision
p4970
I1
sV\u6c34\u86ed
p4971
I1
sV\u8d85\u5435
p4972
I1
sVThisIsAn
p4973
I2
sV\u751f\u65e5
p4974
I1
sV\u5728\u5bb6\u6c92
p4975
I1
sV\u901a\u76f8\u885d
p4976
I1
sV\u4e4b\u985e
p4977
I2
sV~
p4978
I56
sV8361
p4979
I3
sV\u662f\u7528\u626e
p4980
I1
sV\u88ab\u6451\u7ae5\u6050
p4981
I1
sV\u65b9\u4fbf
p4982
I2
sVfile
p4983
I1
sV\u570b\u7522
p4984
I1
sVdemo
p4985
I7
sV\u6574\u9ad4
p4986
I2
sV\u524d\u8f29
p4987
I1
sV\u5230\u671f
p4988
I1
sV\u60f3\u958b
p4989
I2
sV\u6613\u61c2
p4990
I1
sVrootkit
p4991
I2
sV\u672c\u9084\u7b97
p4992
I1
sV7\u6709
p4993
I1
sVdarkthread
p4994
I1
sV\u529b\u7684
p4995
I1
sVcrash
p4996
I1
sV\u90fd\u662f
p4997
I4
sV\u63a5\u5230
p4998
I4
sV\u4e2d\u53e4
p4999
I2
sV\u5de5\u7a0b\u5e2b
p5000
I3
sV\u5012\u662f
p5001
I1
sVpresent
p5002
I1
sV)
p5003
I75
sV\u6c92\u982d\u6c92\u8166
p5004
I1
sV\u63d0\u9ad8
p5005
I1
sV\u6307\u51fa
p5006
I1
sV\u7b26\u865f
p5007
I1
sV\u4e0a\u7684
p5008
I2
sV\u5fcd\u4e0d\u4f4f
p5009
I1
sV\u6839\u64da
p5010
I1
sV\u7d93\u904e
p5011
I2
sV\u4e82\u50b3
p5012
I1
sVMultitasking
p5013
I1
sV\u653b
p5014
I1
sV\u4eba\u5de5
p5015
I1
sV\u5bb3\u6211
p5016
I2
sV\u865b\u64ec
p5017
I1
sV\u6240\u8b02
p5018
I3
sV\u5403\u4e86
p5019
I4
sV\u518d\u5ea6
p5020
I1
sVhttp
p5021
I1
sV\u7bc4\u4f8b
p5022
I2
sV\u7b2c\u5341
p5023
I1
sV\u67d0\u4eba
p5024
I1
sVphotos-b.ak.fbcdn.net/hphotos-ak-snc1/hs221.snc
p5025
I1
sVUntrusted
p5026
I1
sV\u60c5\u6cc1
p5027
I1
sV\u8ddf\u6211
p5028
I4
sV\u984c
p5029
I5
sVCapability
p5030
I1
sVASUS
p5031
I2
sVSandbox
p5032
I1
sV\u7528\u4e0d
p5033
I1
sV\u65b0\u4f5c
p5034
I1
sV\u8ff4\u5708
p5035
I1
sV\u80f8
p5036
I1
sVMacross
p5037
I1
sV\u5f8c\u7e7c
p5038
I1
sVOrder
p5039
I1
sV\u597d\u5feb
p5040
I2
sV\u7db2\u662f\u65b7
p5041
I1
sV0.0
p5042
I1
sV\u721b\u9580\u6c92
p5043
I1
sV\u95dc\u9375
p5044
I1
sV\u5f97\u50cf\u662f
p5045
I1
sV\u6708\u4efd
p5046
I3
sV\u311f\u6211
p5047
I1
sV\u81e8
p5048
I1
sV\u7c21\u4ecb
p5049
I2
sV\u8a62\u554f
p5050
I1
sV\u523a\u6fc0
p5051
I1
sV\u5c31
p5052
I124
sV\u5c31\u662f\u4e86
p5053
I2
sV1
p5054
I16
sV\u5275
p5055
I1
sV\u6c92\u52c1
p5056
I1
sV\u2027
p5057
I1
sV\u8a66\u8457
p5058
I1
sVExtensions
p5059
I1
sV\u505a\u8d77
p5060
I1
sV\u8f49\u5165
p5061
I1
sV\u623f\u5e02
p5062
I1
sV\u4e00\u518d
p5063
I1
sViPhone
p5064
I5
sV\u8868\u793a
p5065
I7
sV\u5b63
p5066
I2
sV45
p5067
I1
sVHTCHERO
p5068
I1
sV\u50b3\u795e
p5069
I1
sVStarts
p5070
I1
sV\u505a\u4e8b
p5071
I2
sV\u7389
p5072
I1
sV\u8a87\u5f35
p5073
I2
sV\u505a\u4e86
p5074
I1
sVexecutive
p5075
I1
sV\u64a4\u96e2
p5076
I1
sV\u81ea\u7531
p5077
I4
sV\u4e00\u540c
p5078
I1
sVregionbbs
p5079
I1
sValvin
p5080
I2
sVnot
p5081
I2
sV\u6293
p5082
I1
sV\u7a69\u56fa
p5083
I1
sVAndroi
p5084
I1
sV\u5c24\u5176
p5085
I1
sV\u7522\u80fd
p5086
I1
sV\u982d\u865f
p5087
I1
sV\u591a
p5088
I17
sV\u559d
p5089
I1
sV\u8b70\u984c
p5090
I3
sV\u6e1b\u4e8c
p5091
I1
sV\u7279\u8272
p5092
I1
sVindirec
p5093
I1
sV\u7121\u5206
p5094
I1
sV\u958b\u59cb
p5095
I21
sV\u4e0a\u67b6
p5096
I1
sV\u5168\u6c11
p5097
I2
sVYouTube
p5098
I1
sV\u8003\u8a66
p5099
I2
sV\u63e1\u4f4f
p5100
I1
sVboring
p5101
I1
sV\u914d\u4e0a
p5102
I1
sV\u9285\u947c
p5103
I1
sVadd
p5104
I1
sV10\u9ede
p5105
I1
sV\u88ab\u62cb\u5728
p5106
I1
sV\u7b46\u8a66
p5107
I5
sV\u56de\u6211
p5108
I1
sV\u5f69\u5ea6
p5109
I1
sV\u78a9\u58eb
p5110
I1
sV\u5f97\u4e0d
p5111
I1
sV\u53f8\u6a5f
p5112
I2
sV\u5305\u62ec
p5113
I5
sV\u9032\u5c55
p5114
I2
sV\u6839\u672c
p5115
I1
sVreturn-oriented
p5116
I1
sV\u90e8\u4efd
p5117
I5
sV\u7b46\u8a18
p5118
I2
sV\u7248
p5119
I8
sV\u75b2\u52de
p5120
I1
sV\u5538\u53c8\u597d\u8a18
p5121
I1
sV\u8cb7\u4e0d\u8d77
p5122
I1
sV\u4eba\u55ce
p5123
I1
sV\u83ab\u540d
p5124
I1
sV\u611f\u5192
p5125
I5
sVI/O
p5126
I1
sV\u5c0a\u91cd
p5127
I1
sV261
p5128
I1
sV\u96dc\u5ff5
p5129
I1
sVLimit
p5130
I1
sV\u9a57\u8b49
p5131
I1
sV\u8981\u7d04
p5132
I1
sVRelease
p5133
I1
sV\u78da\u584a
p5134
I1
sV\u56db
p5135
I3
sV\u9084\u8981
p5136
I5
sV\u9752\u6625
p5137
I1
sV\u63cf\u8ff0
p5138
I1
sV\u4fe1
p5139
I1
sV\u8a3b\u89e3
p5140
I1
sV\u653f\u5e9c
p5141
I1
sV\u756b\u9762
p5142
I5
sV\u9418\u982d
p5143
I2
sV\u5f9e\u63a8\u7279
p5144
I1
sVc1g
p5145
I1
sV\u98ef
p5146
I1
sV\u65bc
p5147
I3
sV\u5c0f\u5f1f
p5148
I1
sV&gt;
p5149
I7
sVWarning
p5150
I1
sV\u5f37\u5927
p5151
I2
sV\u60c5\u4eba
p5152
I1
sV\u5c08\u5c6c
p5153
I1
sV\u6574\u5929
p5154
I2
sV\u8aaa\u5f88\u721b
p5155
I1
sV\u7834\u53e3\u5927\u7f75
p5156
I1
sVShellcode
p5157
I1
sV\u7834\u89e3
p5158
I4
sV\u5ef6\u671f
p5159
I5
sV\uff01
p5160
I18
sV\u5f88\u721b
p5161
I1
sVInternals
p5162
I2
sVElementTree.fromstring
p5163
I1
sV\u4e4b\u6240\u4ee5
p5164
I1
sV\u4f46\u4ed6
p5165
I1
sV\u52a0\u5165
p5166
I2
sV\u4e0b
p5167
I14
sV\u518a
p5168
I1
sV\u53c3\u8207
p5169
I2
sVblahblah
p5170
I1
sV\u4e0d\u80fd
p5171
I12
sV\u5916\u9928\u8aaa
p5172
I1
sV\u4f4e\u80fd
p5173
I1
sV\u535a\u591a
p5174
I1
sV\u82b1\u5149
p5175
I1
sV\u7b49\u4e00\u4e0b
p5176
I1
sV\u4e0d\u5c0f
p5177
I3
sV\u5373\u5c07
p5178
I3
sV\u80fd\u7528
p5179
I4
sV\u622a\u6b62
p5180
I1
sV\u60f3\u7684
p5181
I2
sVOlly
p5182
I1
sV\u6a23
p5183
I1
sV\u821e\u66f2
p5184
I1
sV\u8179\u9ed1
p5185
I1
sV\u660e\u660e
p5186
I5
sVesp
p5187
I1
sV\u6708\u7684\u6211
p5188
I1
sV\u8010\u529b
p5189
I1
sV\u5c31\u51fa
p5190
I1
sV\u5c0f\u5fc3
p5191
I5
sVOST
p5192
I1
sV\u4e1f\u5931
p5193
I1
sV\u6280\u5de7
p5194
I2
sV\u6a94\u540d
p5195
I1
sV\u7ac4\u51fa
p5196
I1
sV\u8eca\u5ec2
p5197
I1
sV\u5927\u5c0f
p5198
I1
sV\u592a\u4e45
p5199
I1
sV\u7121\u529b
p5200
I1
sV\u89ba
p5201
I1
sVleader
p5202
I1
sV\u516c\u53f8
p5203
I7
sV\u6389
p5204
I1
sV\u80fd\u7576
p5205
I1
sV\u60f3\u56de
p5206
I1
sVBASARA
p5207
I1
sV\u5167\u6e56
p5208
I1
sV\u9060\u76ee
p5209
I1
sV\u4e4b
p5210
I6
sV\u6253\u56de\u53bb
p5211
I1
sV\u9ec3\u555f\u5bcc
p5212
I1
sV\u4e0b\u8ab2
p5213
I1
sV\u5730\u5740
p5214
I1
sV\u5929\u54ea
p5215
I1
sV\u7684\u561b
p5216
I1
sV\u7671\u7613
p5217
I2
sV\u7701\u4e86\u63db
p5218
I1
sV\u5927\u5c6f
p5219
I1
sV\u9ad8
p5220
I1
sV&amp;
p5221
I32
sV\u66f8\u5831
p5222
I1
sV\u8981\u62d4\u5b83\u982d\u518d\u628a
p5223
I1
sVMicrosoft
p5224
I1
sV\u6211\u662f
p5225
I8
sVscience
p5226
I1
sVAcrobat+Dr.eye
p5227
I1
sV\u7bad\u982d
p5228
I1
sV\u6559\u80b2
p5229
I2
sV\u8089\u8eab
p5230
I1
sVsocket
p5231
I2
sV\u6e96\u5ea6
p5232
I1
sV\u6490
p5233
I2
sV\u5e6b
p5234
I4
sV\u81ea
p5235
I1
sVcompatible
p5236
I1
sV\u590f\u4e9e
p5237
I1
sV\u5f88\u9ad8
p5238
I1
sVstatement
p5239
I1
sVextension
p5240
I2
sV\u7684\u5373\u6548
p5241
I1
sV\u4e00\u8d77
p5242
I8
sV\u6c92
p5243
I49
sV\u88e1\u9762
p5244
I12
sV\u8207\u5657
p5245
I1
sV\u5b83
p5246
I7
sV\u807d\u5230
p5247
I8
sV\u591a\u5927
p5248
I1
sV\u984c\u76ee
p5249
I6
sV\u7684\u6587
p5250
I1
sVTwitter-based
p5251
I1
sV\u6607\u967d
p5252
I1
sV\u7df4\u7fd2
p5253
I6
sVIDS
p5254
I1
sV\u9023\u63a5
p5255
I1
sV\u6210\u771f
p5256
I1
sV\u8ffd\u7684
p5257
I1
sV\u4f5c\u8005
p5258
I4
sVMariposa
p5259
I1
sV\u7279\u5730
p5260
I1
sV\u641e\u61c2
p5261
I1
sV.
p5262
I68
sV\u5feb\u901f
p5263
I1
sV\u751c
p5264
I1
sV\u5df2\u7d93
p5265
I14
sV\u4e8c\u4f86
p5266
I1
sV\u9805\u76ee
p5267
I1
sV\u7a2e\u7a2e
p5268
I1
sV\u99ed\u5ba2
p5269
I9
sV\u67f3\u4e01\u5927\u7684
p5270
I1
sV\u773c\u719f
p5271
I1
sV\u5e6b\u52a9
p5272
I2
sV\u602a
p5273
I2
sV\u5de5\u4f5c
p5274
I6
sV\u7701\u8457\u5225
p5275
I1
sV\u8a18\u5f97
p5276
I4
sV\u62d6\u5230
p5277
I1
sV\u5730
p5278
I1
sV\u800c\u4e14
p5279
I4
sV\u67b6\u69cb
p5280
I1
sV\u4e2d\u5171
p5281
I1
sV\u56de\u982d
p5282
I1
sV\u70b8\u91ac\u9eb5
p5283
I1
sVXDrz
p5284
I4
sV\u8d95\u7dca
p5285
I3
sV\u7684\u65b0
p5286
I1
sV\u6708\u662f
p5287
I1
sVfunction
p5288
I1
sV\u96fb\u5f71
p5289
I3
sV\u963f\u78bc
p5290
I1
sV\u6a19\u984c
p5291
I1
sV\u6709\u7de3
p5292
I1
sV\u6559\u7528
p5293
I1
sV\u8aaa5
p5294
I2
sV\u6210\u7e3e\u55ae
p5295
I2
sV\u9019\u6642
p5296
I2
sV\u65b0\u6a5f
p5297
I1
sVlar~reverse
p5298
I1
sVquot;My
p5299
I1
sV\u73fe\u5728
p5300
I49
sV\u96de\u584a
p5301
I1
sV\u6ce2
p5302
I1
sV\u79ae\u62dc
p5303
I5
sV\u7684\u82e6
p5304
I1
sV\u4e5f\u6709
p5305
I3
sV\u7ad9
p5306
I5
sV\u2026\u2026\u2026
p5307
I1
sV\u6211\u627e
p5308
I2
sVbug
p5309
I3
sV\u904b\u547d
p5310
I1
sV\u5831\u5c0e
p5311
I1
sV\u4f60
p5312
I36
sV\u554f\u624d
p5313
I1
sV\u5143\u4ef6
p5314
I2
sV\u5354\u5b9a
p5315
I1
sV\u65b9\u5f0f
p5316
I2
sV\u535a\u58eb
p5317
I1
sV\u7981\u7528
p5318
I1
sV\u5feb
p5319
I14
sVofficial
p5320
I1
sV88
p5321
I1
sV\u8aaa\u5730\u9707
p5322
I3
sV\u5fd8\u61f7
p5323
I1
sV\u662f\u5427
p5324
I1
sV\u8b80\u66f8
p5325
I5
sV\u89e3\u7b54
p5326
I1
sV\u6297\u8b70
p5327
I1
sV\u60f3\u7761
p5328
I2
sV\u53ea\u8003
p5329
I1
sV\u5f71\u97ff
p5330
I1
sVsecurity-related
p5331
I1
sV\u5947\u6469
p5332
I1
sV\u627e
p5333
I7
sV\u4e8c\u5341\u516d
p5334
I1
sV\u611f\u8b1d
p5335
I1
sV
p5336
I2
sV\u9805
p5337
I2
sVCIH
p5338
I11
sV\u4f3a\u670d\u5668
p5339
I1
sV\u8a66?
p5340
I1
sVTsung
p5341
I1
sV\u8a66\u7528
p5342
I2
sV\u7bc4\u570d
p5343
I4
sV\u6015
p5344
I3
sV\u7e3d\u4e4b
p5345
I2
sVjaceju
p5346
I1
sV\u4f8b\u884c
p5347
I1
sV\u53ad\u60e1\u611f
p5348
I1
sV\u52a0\u9078
p5349
I1
sVing
p5350
I2
sVPlayer
p5351
I2
sV\u721b
p5352
I2
sV\u311f
p5353
I1
sV\u805a\u9910
p5354
I4
sV\u6708\u8981
p5355
I1
sV\u5929\u4f7f
p5356
I2
sVFate
p5357
I4
sV\u859b\u9999
p5358
I1
sV\u63a8
p5359
I1
sV\u83ab\u540d\u5176\u5999
p5360
I1
sV42
p5361
I2
sV\u9078\u64c7
p5362
I3
sV\u5e8f\u865f
p5363
I1
sV\u53f0\u7063
p5364
I5
sV\u7d50\u5c40
p5365
I2
sV\u4e0a\u662f
p5366
I2
sV400\u842c
p5367
I1
sVquot;Windows
p5368
I1
sVCB
p5369
I1
sV\u6a39
p5370
I1
sV\u4ed6\u4eba
p5371
I1
sV\u5c45\u7136
p5372
I16
sV\u4e0a\u6620
p5373
I1
sV\u4eba\u5011
p5374
I1
sVmrmoneyc
p5375
I1
sV\u8a18\u5ff5
p5376
I1
sVqazwsx
p5377
I1
sV\u5099\u6848
p5378
I1
sV\u54ea\u88e1
p5379
I1
sVstar
p5380
I1
sV\u9019\u88e1
p5381
I1
sV\u96c6
p5382
I6
sV\u53c8
p5383
I58
sV\u4ef6
p5384
I7
sV\u7d50\u5c3e
p5385
I2
sVgcc
p5386
I3
sV\u67d0
p5387
I10
sVCE
p5388
I1
sV\u6293\u72c2
p5389
I1
sV\u706b\u5927
p5390
I1
sV\u8cb7\u4e00
p5391
I1
sV\u719f\u7684
p5392
I1
sV\u95dc
p5393
I9
sV\u5149\u789f\u6a5f
p5394
I1
sV\u6b63
p5395
I2
sV\u514d\u4e0d\u4e86
p5396
I1
sV*
p5397
I13
sV\u9ed1\u6697
p5398
I2
sV\u5982\u679c\u8aaa
p5399
I2
sV\u96b1\u5f62\u773c\u93e1
p5400
I2
sV\u662f\u5426
p5401
I2
sVOOO
p5402
I2
sV\u7db2\u5e33
p5403
I1
sV\u76ef\u4ed6
p5404
I1
sV=\u0398
p5405
I1
sVPrivate
p5406
I1
sV\u52a0\u500d
p5407
I1
sV\u6211\u6700
p5408
I1
sV\u5373
p5409
I1
sV\u8d77
p5410
I2
sV\u4e0b\u8eca
p5411
I1
sV\u602a\u602a
p5412
I1
sV\u84ee\u82b1
p5413
I1
sV\u64ad\u653e
p5414
I1
sV\u54e1\u7684
p5415
I1
sV\u8b1b\u62c6
p5416
I1
stp5417
Rp5418
(dp5419
S'_item_cache'
p5420
NsS'_max_cache'
p5421
NsS'_Nr_cache'
p5422
NsS'_N'
p5423
I18241
sb.