ccopy_reg
_reconstructor
p1
(cnltk.probability
FreqDist
p2
c__builtin__
dict
p3
(dp4
V\u798f\u5bb9
p5
I3
sV\u7b2c\u4e8c
p6
I5
sV\u6975\u5c11
p7
I1
sV\u5c0f\u817f
p8
I1
sV\u4e00\u6a13
p9
I1
sV\u660e\u78ba
p10
I3
sV\u723a\u723a
p11
I1
sV\u65bc\u662f
p12
I3
sV\u4e00\u6a23
p13
I6
sV\u5361\u62c9
p14
I1
sV\u5b98\u54e1
p15
I1
sV\u65e5\u672c\u4eba
p16
I2
sV\u6253\u5929\u4e0b
p17
I1
sV\u4e8b\u52d9
p18
I2
sV\u53cd
p19
I6
sV\u724c
p20
I2
sV\u56f0\u5883
p21
I1
sV\u897f\u6d0b\u53f2
p22
I1
sV\u53d6\u800c\u4ee3\u4e4b
p23
I1
sV\u7528\u5fc3
p24
I2
sV\u770b\u4f3c
p25
I2
sV\u9060
p26
I1
sV\u77e5
p27
I1
sV\u9664
p28
I1
sV\u4e4b\u6545
p29
I1
sV\u800c\u514d
p30
I1
sV\u7b2c\u4e94
p31
I1
sV\u6a13\u4e0b
p32
I1
sV\u6b72
p33
I34
sV\u5206\u767c\u5230
p34
I1
sV\u6297\u547d
p35
I1
sV\u4e09\u5ea6
p36
I1
sV\u9ad8\u8208
p37
I1
sV\u9ad8\u8209
p38
I1
sV\u614b\u5ea6
p39
I2
sV\u7b2c\u4e00
p40
I19
sV\u5993\u5973
p41
I1
sV\u5165\u7761
p42
I5
sV\u9a57\u8eca
p43
I1
sV\u7b2c\u4e09
p44
I1
sV270
p45
I1
sV\u5e94
p46
I4
sV\u5916\u5957
p47
I1
sV\u773c\u4e2d
p48
I2
sV\u90f5\u653f
p49
I1
sV\u7f8e\u901a\u793e
p50
I3
sV\u4e8b\u524d
p51
I2
sV\u63a5\u6f14
p52
I1
sV\u5fe0\u72d7
p53
I1
sV\u9824\u5bae
p54
I1
sV\u6230\u6a5f
p55
I1
sV\u5408\u9ad4
p56
I1
sV\u4e0a\u594f
p57
I1
sV\u5916\u591a
p58
I1
sV\u7b2c\u4e5d
p59
I1
sV\u800c\u51fa
p60
I2
sV\u770b\u4f86
p61
I3
sV\u904e\u5f80
p62
I1
sV\u8457\u58a8
p63
I1
sV\u63a2\u5e95
p64
I1
sV\u96e2\u4ed6
p65
I1
sV\u99ac\u96f2
p66
I1
sV\u8eab\u6bb5
p67
I2
sV\u987b
p68
I1
sV\u76ee\u524d
p69
I22
sV\u52a0\u4ee5
p70
I4
sV\u6488\u8d77\u4f86
p71
I1
sV\u4e0a
p72
I68
sV\u516d\u8f15
p73
I4
sV\u517c\u9867
p74
I2
sV\u65bc\u672c
p75
I4
sV\u737b\u79ae
p76
I1
sV\u5c0d\u8ac7
p77
I2
sV\u6a02\u6a02
p78
I1
sV\u4fee\u6539
p79
I6
sV\u65e5\u5b50
p80
I3
sV\u4e03\u6708
p81
I3
sV\u6905\u578b
p82
I1
sV\u591c\u591c
p83
I3
sV\u95dc\u4fc2
p84
I8
sV90
p85
I4
sV93
p86
I6
sV\u8b5c
p87
I1
sV\u6b63\u5f0f
p88
I2
sV\u7522\u5f8c
p89
I3
sV\u524a\u5f31
p90
I1
sV\u767c\u7d05
p91
I1
sV\u75db\u65a5
p92
I1
sV\u6709\u52a0
p93
I1
sV\u963f\u5175\u54e5
p94
I1
sV\u96c6\u7d50
p95
I2
sV\u8282
p96
I6
sV\u56db\u8655
p97
I1
sV\u5fd0\u5fd1\u4e0d\u5b89
p98
I1
sV\u5fa1\u7528
p99
I1
sV\u538c
p100
I1
sV\u5c0d\u8a71
p101
I4
sV\u9748\u524d
p102
I1
sVMOTY
p103
I1
sV\u6253\u9435\u8d81\u71b1
p104
I1
sVEagle
p105
I1
sV\u574e\u57ce
p106
I1
sV\u91cd\u8cac\u5927\u4efb
p107
I1
sV\u4e00\u6bb5
p108
I2
sV\u6821\u969b
p109
I2
sVA
p110
I1
sV\u5c45\u4f4f
p111
I4
sV\u901a\u5f80
p112
I2
sV\u7cbe\u5175
p113
I1
sV\u904e\u5ea6
p114
I3
sV\u96de\u86cb
p115
I1
sV\u5976\u8336
p116
I1
sV\u80d6
p117
I4
sV\u8981\u7ba1
p118
I1
sV\u51e0
p119
I2
sV\u610f\u898b
p120
I3
sV\u52a0\u4e0a
p121
I6
sV\u597d\u83dc
p122
I1
sV\u8f49\u8d74
p123
I1
sV\u6b63\u5e38
p124
I3
sV\u901a\u5e38
p125
I9
sV\u50b3\u6559
p126
I1
sV\u4e0a\u5b98
p127
I1
sV\u4e00\u5343\u56db\u767e\u591a
p128
I1
sV\u6f22\u737b\u5e1d
p129
I1
sV\u52d9\u6c42
p130
I1
sV\u516b\u5341\u4e94\u5e74
p131
I1
sV\u83ef\u65e5\u5bb6
p132
I1
sVJules
p133
I1
sV\u89e3\u7de8
p134
I1
sV\u9032\u800c
p135
I4
sV\u9435\u8840
p136
I1
sV\u5fe0\u65bc
p137
I2
sV\u6beb\u7121
p138
I1
sV\u7d93\u6fdf
p139
I4
sV\u5e74\u5473
p140
I1
sV\u51a0\u8ecd
p141
I6
sV\u8932
p142
I1
sV\u6708
p143
I44
sV\u82e5\u975e
p144
I1
sV\u63d0\u9ad8\u70ba
p145
I1
sV\u4e0d\u85e5\u800c\u7652
p146
I1
sV\u6539\u9020
p147
I1
sVVolvo
p148
I4
sV\u914d\u97f3
p149
I5
sV\u6c88\u91cd
p150
I1
sV\u7147\u714c
p151
I1
sV\u53ea\u7761
p152
I1
sV\u9910\u6558
p153
I1
sV\u7d50\u819c
p154
I1
sV\u4f46\u5225
p155
I1
sV\u5b9a\u5236
p156
I2
sV\u7a84\u5c0f
p157
I1
sV\u751c\u9ede
p158
I2
sV\u8d8a
p159
I4
sV\u805a\u96c6\u8655
p160
I1
sV\u63a5\u6d3d
p161
I1
sV390
p162
I2
sV\u69ae\u8f1d
p163
I1
sV\u8017
p164
I1
sV\u524d\u9032
p165
I2
sV\u7d22\u83f2\u4e9e
p166
I1
sV\u9078\u79c0
p167
I2
sV\u554f\u70ba\u5e2b
p168
I2
sV\u8ab0
p169
I3
sV\u505a\u5230
p170
I1
sV\u83ab\u81e5\u5152
p171
I1
sV\u8f49
p172
I4
sV\u7387\u9818
p173
I2
sV\u5168\u90e8
p174
I1
sV\u79d2
p175
I2
sV\u807d\u4fe1
p176
I1
sV\u8b77\u7406\u9577
p177
I2
sV\u771f\u507d
p178
I1
sV\u5ee3\u5f0f
p179
I1
sV\u9a45\u9664
p180
I1
sV\u7368\u7acb
p181
I1
sV\u4f5c\u5de5
p182
I1
sV\u6a94\u6848
p183
I3
sV\u76f8
p184
I1
sV\u81f3\u6b64
p185
I1
sV\u597d
p186
I24
sV\u8de1\u8c61
p187
I1
sV\u500b\u5973
p188
I1
sV\u694a\u7a4e
p189
I1
sV\u5973\u5b69\u5b50
p190
I2
sV\u9b45\u529b
p191
I2
sV\u6216
p192
I95
sV\u824b\u823a
p193
I1
sV\u5728\u4e00\u8d77
p194
I6
sV\u7b2c\u4e03
p195
I1
sV\u52df\u96c6\u5230
p196
I1
sV\u821e\u53f0
p197
I2
sV\u52d5\u6416
p198
I1
sV\u8a8d\u8b49
p199
I3
sV\u554f\u5e02
p200
I2
sV\u65af
p201
I1
sV\u50b3\u67d3
p202
I2
sV\u529f\u592b
p203
I1
sV\u6c34\u58a8
p204
I1
sV\u610f\u8b58
p205
I2
sV\u8a8d\u8b58
p206
I4
sV\u65e5\u65b0\u6708\u7570
p207
I3
sV\u7fa4\u4eba
p208
I1
sVYAG
p209
I1
sV\u6b0a\u5229\u4eba
p210
I2
sV\u7cd6\u985e
p211
I1
sV\u9632\u8b77
p212
I2
sVChloe
p213
I10
sV\u7ee9
p214
I1
sV\u6e1b\u9000
p215
I2
sV\u6e05\u84b8
p216
I2
sV\u6703
p217
I75
sV\u65b0\u9673\u4ee3\u8b1d
p218
I2
sV\u57fa\u56e0
p219
I4
sV\u8f49\u8f09
p220
I1
sV\u4e7e\u766c
p221
I20
sV\u63a7\u80a1
p222
I2
sV\u4e2d\u8ddd
p223
I1
sV\u8b1b
p224
I5
sV\u7528\u76e1
p225
I2
sV\u8d1f
p226
I1
sV\u66f9\u690d
p227
I1
sV\u51fa\u64ca
p228
I1
sV\u5167\u88dd
p229
I1
sV\u4e8b\u5148
p230
I1
sV\u5fac\u5fa8
p231
I3
sV\u7ae5\u88dd
p232
I1
sV\u586b\u5831
p233
I2
sV\u8db4
p234
I1
sV\u6241\u5e3d
p235
I1
sV\u547c\u61c9
p236
I2
sV\u4e16\u7d00
p237
I2
sV\u8a31\u9e97\u7389
p238
I1
sV\u4f4e\u5ec9
p239
I1
sV\u554f
p240
I3
sV\u751f\u5b50
p241
I1
sV\u5f53
p242
I4
sV\u897f\u5357\u90e8
p243
I1
sV\u6e1b\u534a
p244
I1
sV\u5c0f\u82b1
p245
I1
sV\u5967\u6717\u5247\u5e03
p246
I2
sV\u9664\u61c9
p247
I1
sV\u4e88\u4e2d\u7db2
p248
I1
sV\u9177
p249
I1
sV\u6a19\u7684\u7269
p250
I2
sV\u738b\u65ed
p251
I2
sV\u5e74\u524d
p252
I1
sV\u7fa9\u8209
p253
I1
sV\u5f8c\u88fd
p254
I1
sV\u59ae\u59ae
p255
I2
sV\u5e72\u64fe
p256
I2
sV\u4e4b\u610f
p257
I1
sV\u525b\u597d
p258
I1
sVHaiyun
p259
I1
sV\u5929\u4e0b
p260
I1
sV\u6771\u6f22
p261
I1
sV\u5e74\u521d
p262
I1
sV\u5de6\u5074
p263
I1
sV\u79d8\u5bc6
p264
I6
sV\u4e2d\u8a08
p265
I1
sV\u529b\u4f5c
p266
I1
sV\u535a\u83ef
p267
I1
sV\u5f37\u608d
p268
I1
sV\u5e74\u5230
p269
I1
sV\u8001\u82b1
p270
I3
sV\u5927\u8209
p271
I1
sV\u7576
p272
I17
sV\u4e5d\u842c\u4e00\u5343
p273
I1
sV\u81fa\u5317
p274
I1
sV\u904b\u4f5c
p275
I3
sV\u5b50\u5973
p276
I9
sV\u773e\u4eba
p277
I1
sV\u8b8a
p278
I2
sV\u4eba\u6f6e
p279
I3
sV\u51fa\u4e4e\u610f\u6599
p280
I1
sV\u54c1\u5690
p281
I2
sV\u7336\u592a\u6559\u5f92
p282
I1
sV\u5947\u7f8e
p283
I2
sV\u9023
p284
I6
sV\u6df7\u4e82
p285
I1
sV\u5929
p286
I21
sV\u559c\u597d
p287
I2
sV\u52c7\u6c23
p288
I1
sV\u83ef\u4eba
p289
I2
sV\u9081\u51fa
p290
I1
sV\u5df2\u81e8
p291
I1
sV\u5049\u5927
p292
I1
sV\u9ed1\u8ce3\u7d05
p293
I1
sV\u8d85\u8d8a
p294
I3
sV\u793e\u5340
p295
I1
sV\u5546\u968a
p296
I1
sV\u6a5f
p297
I1
sV\u5b58\u5728\u65bc
p298
I1
sV\u8dcc\u4e86
p299
I1
sV\u601d\u60f3
p300
I1
sV\u64c5\u81ea
p301
I1
sV\u70ba\u4f8b
p302
I1
sV\u9700\u81f3
p303
I1
sV\u7efc
p304
I1
sV\u5931\u6557
p305
I1
sV\u80cc\u666f
p306
I2
sV\u5438\u7ba1
p307
I1
sV\u907a\u8de1
p308
I1
sV\u6709\u6c92\u6709
p309
I1
sV\u6709\u53f2\u4ee5\u4f86
p310
I1
sV\u7e3d\u5e79\u4e8b
p311
I1
sV\u50b3\u627f
p312
I3
sV\u80fd\u6e90
p313
I3
sV\u51fa\u624b
p314
I1
sV\u5143\u7d20
p315
I1
sV.
p316
I92
sV\u652f\u51fa
p317
I1
sV\u5929\u4f7f
p318
I1
sV\u98a8\u8072\u9db4\u5533
p319
I1
sV\u9e79\u9165
p320
I1
sV\u78e8\u7df4
p321
I1
sV\u7d50
p322
I1
sV\u81ea\u5c0a\u5fc3
p323
I1
sV\u5c0f\u8431
p324
I1
sV\u6975\u597d
p325
I1
sV\u898f\u5b9a
p326
I17
sV\u7c4c\u5099
p327
I1
sV\u5f1f\u5f1f
p328
I2
sV\u8c54\u967d
p329
I1
sV\u8003\u91cf
p330
I1
sV\u66f9\u4ec1\u5e36
p331
I1
sV\u6d88\u5316
p332
I1
sV\u5a5a\u671f
p333
I2
sV\u53d6\u5f97
p334
I7
sV\u7e08\u7e5e
p335
I1
sV\u6602\u8cb4
p336
I1
sV\u5e73\u5e38
p337
I2
sV\u6b3d\u9ede
p338
I1
sV\u4e94\u661f\u7d1a
p339
I6
sV\u51fa\u62db
p340
I1
sV\u6700\u70ba
p341
I1
sV\u7e3d
p342
I1
sV\u7b2c\u56db\u5b63
p343
I3
sV\u8001\u5e74\u6027
p344
I1
sV\u958b\u73a9\u7b11
p345
I2
sV\u5361\u672d
p346
I1
sV\u778e\u62fc
p347
I1
sV\u737b\u7d66
p348
I1
sV\u7fd2\u6163\u6027
p349
I1
sV\u4f86\u81ea
p350
I7
sV\u5ee3\u5834
p351
I1
sV\u65e5\u5f8c
p352
I4
sV\u96e2
p353
I1
sV\u7b56\u7565
p354
I6
sV\u4e4b\u60c5
p355
I2
sV\u81e8\u6642
p356
I1
sV\u6781
p357
I1
sV\u50c5\u6709
p358
I1
sV\u4e3b\u4efb
p359
I14
sV\u7e7c\u627f
p360
I2
sV\u75c5\u7406
p361
I1
sV\u514d\u9022\u7dda
p362
I1
sV\u4e9b
p363
I1
sV\u52d5\u611f
p364
I4
sVOscar
p365
I2
sV\u5317\u4eac
p366
I3
sV\u65e2\u6709
p367
I1
sV\u96fb\u8996\u5287
p368
I1
sV\u6cd5\u5f0f
p369
I1
sV\u6587\u7ae0
p370
I1
sV\u5c3c
p371
I3
sV\u540c\u6b65
p372
I4
sV\u4e3b\u4eba
p373
I1
sV\u5206\u98df
p374
I1
sV\u715e\u8eca
p375
I1
sV\u8d77\u8df3
p376
I1
sV\u5b50\u5bae
p377
I5
sV\u5931\u660e
p378
I1
sV\u8a66\u99d5
p379
I4
sV\u904e\u591a
p380
I6
sV\u8a6d\u7570
p381
I1
sV\u964d\u58d3
p382
I1
sV\u75c5\u7406\u6027
p383
I1
sV\u76ee\u64ca\u8005
p384
I1
sV\u98db\u9b5a
p385
I1
sV\u7d93\u6b77
p386
I6
sV\u548c
p387
I93
sVArquette
p388
I1
sV\u7269\u7d66
p389
I1
sV\u7576\u9053
p390
I1
sV\u6cd5\u5f8b
p391
I3
sV\u9435\u8cea
p392
I1
sV\u4fb5\u5165
p393
I1
sV\u6253\u51fa
p394
I1
sV\u8b77\u7f69
p395
I1
sV\u78b0\u58c1
p396
I1
sV\u512a\u6e25
p397
I1
sVFirst
p398
I3
sV\u56e0
p399
I24
sV\u4ee3\u8b1d
p400
I1
sV\u7121\u8ad6
p401
I2
sVLANCER
p402
I2
sV\u738b\u671d
p403
I1
sV\u7701
p404
I2
sV\u540c\u6a23
p405
I7
sV\u65e2\u662f
p406
I1
sV\u8f49\u8b8a
p407
I1
sV\u6b63\u597d
p408
I1
sV\u4f9b
p409
I2
sV\u4e3b\u4fee
p410
I1
sV\u89e3\u91cb
p411
I4
sV\u7570\u5375
p412
I1
sVhttp://www.facebook.com/pomifilm
p413
I1
sV\u524d\u958b
p414
I1
sV\u6211\u5fc3
p415
I3
sV\u98ef\u524d
p416
I1
sV\u6210\u9577
p417
I2
sV\u53d7\u9080
p418
I1
sV\u5931\u671b
p419
I2
sV\u754c
p420
I2
sV\u91cf
p421
I1
sV\u51b7\u6230
p422
I1
sV\u76e1
p423
I2
sV\u5462
p424
I6
sV\u53ef\u4e0d\u53ef\u4ee5
p425
I1
sV\u9019\u5834
p426
I1
sV\u56db\u80a1
p427
I1
sV\u8d85\u8ecd
p428
I1
sV150
p429
I1
sV\u5c0d\u8c61
p430
I2
sV\u770b
p431
I16
sV\u5f90
p432
I1
sV\u7fd2\u6163
p433
I6
sV\u8f1b
p434
I2
sV\u4e0a\u5e02
p435
I3
sV\u9e92\u9e9f
p436
I2
sV\u5353\u8d8a
p437
I1
sV\u7239
p438
I1
sV\u5de6\u53f3
p439
I1
sV\u5178\u79ae
p440
I1
sV\u81e8\u884c
p441
I1
sV\u75c5\u75c7
p442
I2
sV\u6709\u540d
p443
I1
sV\u80af\u5b9a
p444
I7
sV\u5bc6\u5207
p445
I1
sV\u4e09\u5929
p446
I1
sV\u88ab\u8feb
p447
I1
sV\u6843\u7af9
p448
I1
sV\u4e0d\u52dd\u550f\u5653
p449
I1
sVEmpire
p450
I1
sV\u9580\u677f
p451
I2
sV\u85e5\u7269
p452
I14
sV\u53cd\u6620
p453
I1
sV\u75c5\u7a0b
p454
I1
sV\u5eab\u5353
p455
I1
sV\u611c\u610f
p456
I1
sV\u512a\u60e0
p457
I4
sV\u6642\u6642\u523b\u523b
p458
I1
sV\u65e5\u524d
p459
I5
sV\u4f0a\u65af\u862d\u57ce
p460
I1
sV\u5e74\u5e7c
p461
I2
sV\u91cd\u8fd4
p462
I1
sV\u4e11\u4e4b\u4e00
p463
I2
sV\u7406\u8ca1
p464
I2
sV\u5bb4\u5e2d
p465
I1
sV\u59d4\u5c48
p466
I1
sV\u6c92\u6709
p467
I26
sV\u6700\u7d42
p468
I2
sV\u5fc3\u81df\u75c5
p469
I1
sV\u500b\u5225
p470
I7
sV\u9ecf
p471
I2
sV\u5e7e\u5341
p472
I1
sV\u85dd\u540d
p473
I2
sV\u898f\u5f8b
p474
I2
sV1700
p475
I1
sV\u4f86\u8972
p476
I4
sV\u576a
p477
I3
sV\u8bed
p478
I1
sV\u6372
p479
I1
sV\u62db\u5175\u8cb7\u99ac
p480
I1
sV\u5074\u88d9
p481
I2
sV\u6b65\u5165
p482
I1
sV\u50f9\u683c
p483
I2
sV\u919e\u91c0
p484
I1
sV\u7a69\u6b65
p485
I1
sV\u56de\u4f86
p486
I3
sV\u6253\u5f9e
p487
I1
sV\u826f\u6027
p488
I1
sV\u652b\u596a
p489
I1
sV\u7d50\u8b58
p490
I2
sV\u9192\u609f
p491
I1
sV\u4e3b\u8981
p492
I17
sV\u8d81\u6a5f
p493
I1
sV\u505a\u51fa
p494
I2
sV\u93ae\u7d71\u5175
p495
I1
sV\u5e74\u5e95
p496
I5
sV\u7d55\u4f73
p497
I1
sV\u5366\u8c61
p498
I5
sV\u6211\u5011
p499
I25
sV\u75c5\u7ae5
p500
I1
sV\u7206\u767c
p501
I3
sV\u7236\u6bcd
p502
I10
sVBorn
p503
I1
sV\u5e73\u8861\u611f
p504
I1
sV\u66f4
p505
I42
sV\u5e74\u5ea6
p506
I3
sV\u9673\u9038\u5ddd
p507
I7
sV\u8fd9\u4e48
p508
I1
sV\u8000\u773c
p509
I1
sV\u4e8b\u5be6
p510
I6
sV\u57fa\u5c64
p511
I1
sV\u56de\u4e14
p512
I1
sVbloody
p513
I1
sV\u7c21\u7a31
p514
I1
sV\u7269\u7406\u6027
p515
I1
sV\u4e03\u5e74\u7d1a\u751f
p516
I1
sV\u591c\u5149
p517
I6
sV\u9ea5
p518
I1
sV\u958b\u8eca
p519
I4
sVLa
p520
I2
sV\u81ea\u6211
p521
I2
sV\u4e3b\u5e2d
p522
I2
sV\u5f8b\u6cd5
p523
I2
sV\u5931\u696d
p524
I2
sV\u795e\u79d8
p525
I2
sV\u6559\u6388
p526
I1
sV\u6b63\u5728
p527
I5
sV\u5b89\u5168\u611f
p528
I2
sV\u92b7\u552e
p529
I8
sV\u79d1\u5e7b
p530
I4
sV\u4f4f\u9662
p531
I2
sV\u5e74\u5f0f
p532
I1
sV\u5c0f\u578b
p533
I1
sV\u767c\u751f
p534
I9
sV\u8036\u8def\u6492\u51b7
p535
I2
sV\u81e5\u8f03
p536
I1
sV\u5916\u50b7
p537
I1
sV\u771f\u5be6
p538
I10
sV\u8f49\u85e5
p539
I1
sV\u6307
p540
I3
sV\u591a\u7d44
p541
I1
sV\u6293\u8d77
p542
I1
sV\u5b8c
p543
I2
sV\uff0f
p544
I14
sV\u3011
p545
I24
sV\u9802\u5c16
p546
I1
sV\u5047\u5982
p547
I3
sV\u653f\u6cbb
p548
I5
sV232
p549
I1
sV\u6a19\u6e96
p550
I8
sV\u5ee3\u544a
p551
I8
sV\u7fa4
p552
I2
sV\u7d55\u4e0d
p553
I3
sV\u767c\u75c5
p554
I3
sV\u5916\u5074
p555
I1
sV\u672b\u5e74
p556
I1
sV\u7c21\u7ae0
p557
I1
sV\u4e09\u570b
p558
I10
sV\u540d\u7a31
p559
I3
sV\u72fc\u5821
p560
I1
sV\u592a\u5927
p561
I3
sV\u6a21\u7279\u5152
p562
I8
sV\u5148\u9032
p563
I1
sV\u505a\u597d
p564
I2
sVKudrow
p565
I1
sV\u8a00
p566
I3
sV\u2500\u2500
p567
I1
sV\u98fe\u677f
p568
I1
sV\u4f86\u8b1b
p569
I1
sV\u4e2d\u8449
p570
I3
sV\u6708\u92b7
p571
I1
sV\u8996\u89ba\u7cfb
p572
I1
sV\u201c
p573
I2
sV\u7522\u54c1
p574
I13
sV\u4ed8\u8cbb
p575
I1
sV\u958b\u8dd1
p576
I2
sV\u8a02\u95b1
p577
I4
sV\u82b1\u65e6
p578
I1
sV\u5e38
p579
I5
sV\u7368\u7279
p580
I5
sV\u6f14\u7e79
p581
I1
sV\u9ad8\u8102\u80aa
p582
I1
sV\u53ea\u7f70
p583
I1
sV\u7236\u696d
p584
I1
sV\u5e74\u5c11
p585
I2
sV\u53d1
p586
I3
sV\u559d\u4e9b
p587
I1
sV\u6234\u73ca
p588
I1
sV\u70c8\u65e5
p589
I1
sV\u53c3\u96dc
p590
I2
sV\u9032\u884c
p591
I21
sV\u89c0\u671b
p592
I2
sV\u7570\u5e38
p593
I4
sV\u4e0a\u53f2
p594
I1
sV\u6f6e
p595
I1
sV\u5408\u9069
p596
I2
sV\u5e73\u51e1
p597
I2
sV\u5289\u5099
p598
I9
sV\u6c92\u65b7
p599
I1
sV\u74dc\u5b50\u81c9
p600
I1
sV\u5206\u9418
p601
I4
sV\u4f5b\u6559\u5f92
p602
I1
sV\u6df1\u611b
p603
I1
sV\u6700\u7f8e
p604
I1
sV\u6df1\u611f
p605
I2
sV\u5f69\u7e6a
p606
I1
sV\u4fe1\u5ff5
p607
I1
sV\u904a\u5c71\u73a9\u6c34
p608
I1
sV\u5b55\u671f
p609
I9
sV\u6709\u5973
p610
I1
sV\u8a73\u7d30
p611
I2
sV\u7e3d\u5175\u529b
p612
I1
sV\u7761\u8457
p613
I1
sV\u5bb6
p614
I6
sV\u8b00\u6bba
p615
I1
sV\u800c\u5b9c
p616
I1
sV\u6436\u93e1
p617
I1
sV\u6709\u591a
p618
I1
sV\u7d50\u819c\u708e
p619
I6
sV\u98df\u85e5\u7f72
p620
I2
sV\u4e0a\u5347
p621
I1
sV\u5167\u670d
p622
I2
sV\u6253\u5de5
p623
I1
sV\u6367\u5f97
p624
I1
sV\u4fe1\u5f92
p625
I1
sV\u4ea4\u901a
p626
I1
sV\u7ffb\u81c9
p627
I1
sV\u5145\u7576
p628
I1
sV\u4e0d\u53ef\u4ee5
p629
I1
sV\u505a\u5b8c
p630
I1
sV\u9ad8\u898b
p631
I1
sV\u70ba\u52a9
p632
I1
sV\u8ecd\u4e2d
p633
I5
sV\u590f\u5b63
p634
I2
sV\u76f4\u64ca
p635
I3
sV\u5206\u958b
p636
I2
sV\u771f\u5982
p637
I1
sV\u53cd\u653b
p638
I1
sV\u512a\u60e0\u50f9
p639
I1
sV\u61c9\u6230
p640
I1
sV2
p641
I28
sV\u51fa\u6c57
p642
I1
sV\u9451\u5225
p643
I1
sV\u4e2d\u592e\u793e
p644
I1
sV\u5217\u8eca
p645
I3
sV\u5c07\u9818
p646
I1
sV\u884c\u92b7
p647
I1
sV\u653e\u7f6e
p648
I1
sV\u5354\u8fa6
p649
I1
sV\u591a\u7528
p650
I1
sV\u5df4\u723e\u5e79
p651
I1
sV\u88c1\u793a
p652
I1
sV\u540c\u6642
p653
I11
sV\u78ba\u7acb
p654
I2
sV\u62dc\u5360\u5ead
p655
I1
sV\u5f85\u7834
p656
I1
sVsophie
p657
I1
sV\u90fd
p658
I66
sV\u6240\u5728
p659
I1
sV\u7db2\u9801
p660
I2
sV\u88d5\u4eba
p661
I1
sV\u751f\u5316
p662
I1
sV\u80e1\u5b50\u59d0
p663
I1
sV\u4e16\u754c
p664
I26
sV\u7531\u65bc
p665
I8
sV\u8521\u60e0\u5a9a
p666
I1
sV\u5594
p667
I1
sV\u98ef\u5e97
p668
I22
sV\u64cb\u4e0b
p669
I1
sV\u8ecd\u4e8b
p670
I1
sV\u963f\u62c9\u4f2f
p671
I1
sV\u4ee3\u865f
p672
I1
sV\u5e7e\u4e4e
p673
I8
sV\u4f86\u8aaa
p674
I6
sV\u4e2d\u91cd\u5ea6
p675
I1
sV\u5c0f\u8aaa
p676
I5
sV\u62c6
p677
I1
sV\u4f5c\u54c1
p678
I4
sV\u5236\u88c1
p679
I1
sV\u9678\u7e8c
p680
I5
sV\u7f8e\u8853\u7d44
p681
I1
sV\u9664\u4e86
p682
I10
sV\u696d\u5df2
p683
I1
sV\u5e79
p684
I1
sV\u5c6c\u65bc
p685
I4
sV\u725b\u76ae
p686
I1
sV\u8aa0\u5be6
p687
I1
sV\u4e00\u6b65\u6b65
p688
I2
sV\u90a3\u5929
p689
I1
sV\u81ea\u672c
p690
I1
sV\u5e7e\u5e74\u5e38
p691
I1
sV\u8eab\u6750
p692
I1
sV\u53bb\u8a66
p693
I1
sV\u6e1b\u4f4e
p694
I1
sV\u64cd\u5f04
p695
I1
sV\u540c\u610f
p696
I4
sV\u30152014
p697
I1
sV\u654f\u611f
p698
I1
sV\u5927\u4e86
p699
I1
sV\u70ba\u751f
p700
I1
sV\u81f3\u672c
p701
I1
sV\u518d\u4f5c
p702
I1
sV\u76e7\u8c9d\u677e
p703
I1
sV\u79d1\u5b78
p704
I2
sV\u8457\u540d
p705
I1
sV\u540d\u7fa9
p706
I3
sV\u4e2d\u8208
p707
I1
sV\u8a66\u93e1
p708
I3
sV\u6fc0\u5316
p709
I2
sV\u82d7\u689d
p710
I1
sV\u6709\u5f85
p711
I2
sV\u89c0\u611f
p712
I1
sV\u5c3c\u7f85\u6cb3
p713
I1
sV\u5566
p714
I3
sV\u898f\u5283
p715
I3
sV\u4fb5\u5bb3
p716
I9
sV\u8840\u5faa
p717
I1
sV\u975c\u6b62
p718
I1
sVYES
p719
I1
sV\u76f4\u63a5
p720
I8
sV\u52ff
p721
I3
sV\u6e1b\u5c11
p722
I4
sV\u9700\u8981
p723
I13
sV\u7a7a\u767d
p724
I1
sV\u8ca0\u5176
p725
I1
sV\u665a\u6212
p726
I1
sV\u61c9\u65bc
p727
I2
sV\u898f\u5247
p728
I2
sV\u7522\u524d
p729
I1
sV\u7d20\u63cf
p730
I1
sV\u56e0\u800c
p731
I5
sV\u904e\u53bb
p732
I3
sV\u800c\u5df2
p733
I2
sV\u5e73\u5747
p734
I7
sV\u5df2\u898b
p735
I1
sV\u751f\u547d
p736
I1
sV\u81fa\u5b89
p737
I2
sV\u5e02\u9762
p738
I1
sV\u9047\u5230
p739
I2
sV\u6bcd\u9ad4
p740
I1
sV\u5979
p741
I42
sV\u9054\u9081
p742
I1
sV\u4e00\u6c23\u5475\u6210
p743
I1
sV\u6c7d\u6c34
p744
I2
sV\u9019\u540d
p745
I1
sV\u642d\u914d
p746
I3
sV\u795e\u7d93
p747
I3
sV\u6cbf\u8972
p748
I1
sV,
p749
I33
sV\u5e0c\u723e
p750
I1
sV\u5373\u4fbf
p751
I1
sV\u7b49\u65bc
p752
I5
sV\u6578\u4f4d
p753
I1
sV\u5f62\u8c8c
p754
I1
sV\u5468\u5247
p755
I1
sV\u6c92\u898b\u904e
p756
I2
sV\u903e
p757
I1
sV\u8d85\u840c
p758
I1
sV\u65e5\u5728
p759
I1
sV\u6148
p760
I2
sV\u8aaa\u5230
p761
I1
sV\u8209\u4f8b
p762
I2
sV\u817f\u90e8
p763
I2
sV\u9077\u79fb
p764
I1
sV\u6975\u5177
p765
I1
sV\u6975\u5176
p766
I1
sV\u518d\u4e09
p767
I2
sV\u99b3\u5f35
p768
I1
sV\u4e8b\u5f8c
p769
I1
sV\u7406\u89e3
p770
I3
sV\u65e5\u5713
p771
I3
sV\u6240
p772
I29
sV\u83f2\u96de
p773
I4
sV\u5f8c
p774
I45
sV\u7522\u5375
p775
I1
sV\u6536\u5bb9
p776
I1
sV\u9910\u6aaf
p777
I2
sV\u6628\u65e5
p778
I3
sV\u70ba\u540d
p779
I1
sV\u5c01\u9762
p780
I1
sV\u767c\u71d2
p781
I1
sVQuercize
p782
I1
sV\u6cd5\u548c
p783
I1
sV\u6fc0\u52f5
p784
I1
sV\u9996\u76f8
p785
I1
sV\u6211\u554f
p786
I1
sV\u6d3e\u51fa
p787
I2
sV\u57fa\u58a8
p788
I1
sV\u5f62\u8c61
p789
I1
sVI
p790
I1
sV\u518d\u4eab
p791
I1
sV\u8ab2\u984c
p792
I3
sV\u655b
p793
I1
sV\u5bb9\u6613
p794
I21
sV\u53d7\u9a19
p795
I1
sV\u674e\u5c0f\u9f8d
p796
I16
sV\u9577\u4e45
p797
I1
sV\u5373\u4f7f
p798
I3
sV\u53bb\u5e74\u5ea6
p799
I1
sV\u8173
p800
I1
sV\u52c7\u6562
p801
I4
sV\u641e\u932f
p802
I1
sV\u751c\u91ac
p803
I1
sV\u963f\u6a02
p804
I1
sV\u76ca\u5dde
p805
I2
sV210
p806
I1
sV\u4e0b\u8f09\u5230
p807
I1
sV\u53d6\u5411
p808
I1
sV\u8f49\u6298\u9ede
p809
I1
sV\u4e0d\u6562\u52d5
p810
I1
sV\u6df1\u5ea6
p811
I1
sV\u96d6\u672a
p812
I1
sV\u4e8c\u5341\u4e16\u7d00
p813
I1
sV\u6eff\u610f
p814
I6
sV\u535a\u89bd
p815
I1
sV\u8abf\u6821
p816
I3
sV\u6cd5\u570b
p817
I8
sV\u4eca\u65e5
p818
I7
sV\u4f01\u696d\u5bb6
p819
I1
sV\u5354\u8abf
p820
I1
sV\u5076\u50cf\u5287
p821
I1
sV\u7406\u8ad6
p822
I1
sV\u975e\u6cd5
p823
I2
sV\u6b63\u503c
p824
I1
sV\u654f\u6377
p825
I1
sV\u4f4e\u9032
p826
I1
sV\u5b55\u80b2
p827
I1
sV\u6548\u7387
p828
I1
sV\u8aa0\u5982
p829
I1
sV\u66f9\u64cd
p830
I18
sV2556
p831
I1
sV\u5353\u8457
p832
I1
sV\u589e\u8a2d
p833
I1
sV\u8eab\u65c1
p834
I3
sV\u9019\u4e00\u5366
p835
I2
sV\u8aaa\u51fa
p836
I2
sV\u963f\u5bcc\u6c57
p837
I20
sV\u4ee5\u81f4
p838
I2
sV\u9632\u868a
p839
I2
sV\u7d0d\u667a
p840
I1
sV\u4e3b\u5f35
p841
I5
sV\u81f3\u65bc
p842
I2
sV\u6771\u65b9
p843
I2
sV\u800c\u5f8c
p844
I1
sV\u8cac
p845
I2
sV\u53cd\u6094
p846
I2
sV\u8edf\u786c
p847
I1
sV\u984c\u6750
p848
I1
sV\u6eff\u61f7
p849
I1
sV\u56b4\u91cd
p850
I7
sV\u4e09\u500d
p851
I2
sV\u660e\u767d
p852
I1
sV\u661f\u5149
p853
I2
sV\u6062\u5fa9\u5230
p854
I1
sV\u5ec9\u50f9
p855
I1
sV\u9662\u6240
p856
I2
sV\u5916\u5728
p857
I2
sV\u571f\u8033\u5176
p858
I2
sV\u525b\u525b
p859
I1
sV\u914d\u8272
p860
I1
sV\u96dc\u8a8c
p861
I7
sV\u505a\u5f97
p862
I1
sVNO
p863
I1
sV\u6f6e\u6c5f\u71d5
p864
I1
sV\u9583\u96fb
p865
I1
sV\u53cd\u611f
p866
I1
sV\u5e02\u653f\u5354
p867
I1
sV\u4ec1
p868
I2
sV\u88fd\u9020\u91cf
p869
I1
sV\u5c62
p870
I1
sV\u6beb\u7c73
p871
I1
sV\u53f0\u80a1
p872
I2
sV\u7d05\u75b9
p873
I1
sV\u627e\u51fa
p874
I3
sV\u6d3e\u53bb
p875
I1
sV\u767c\u73fe
p876
I7
sV\u5354\u8b70
p877
I3
sVHou
p878
I2
sV\u3015
p879
I1
sV\u5dee\u8ddd
p880
I1
sV\u671b\u805e\u554f\u5207
p881
I1
sV\u5229
p882
I1
sV\u975e\u6d32
p883
I1
sV2000
p884
I1
sV\u6e9d\u901a
p885
I1
sV\u767b\u4e0a
p886
I4
sV\u4e00\u65b9
p887
I1
sV\u571f\u8033\u5176\u4eba
p888
I1
sV2007
p889
I2
sV\u9060\u8fd1\u6cd5
p890
I1
sV2308
p891
I1
sV\u670d\u7528
p892
I1
sV\u7cbe\u5f69
p893
I1
sV\u958b\u901a
p894
I3
sV\u5206\u914d
p895
I1
sV\u6163\u4f8b
p896
I2
sV\u4e00\u65e6
p897
I6
sV\u4e00\u65e5
p898
I2
sV\u4e00\u65e9
p899
I3
sV\u53cd\u61c9
p900
I5
sV\u5f37\u6b0a
p901
I1
sV\u65f1\u8c61
p902
I1
sV\u9b25\u96de
p903
I1
sV\u7b26\u5408
p904
I7
sV\u547d
p905
I1
sV\u65cb\u98a8
p906
I1
sV\u76df\u8ecd
p907
I3
sV\u53bb\u9664
p908
I1
sV\u5925\u4f34
p909
I2
sV\u771a
p910
I1
sV\u8acb\u4f86
p911
I1
sV\u4f9d\u4e2d\u7db2
p912
I1
sV\u4ee5\u4e0a
p913
I11
sV\u7cfb\u5217
p914
I4
sV\u60f3\u8aaa
p915
I1
sV\u51fa\u751f\u65bc
p916
I3
sV\u901a\u4fe1
p917
I1
sV\u6295\u964d
p918
I1
sV\u75c5\u623f
p919
I1
sV\u610f\u9858
p920
I1
sV\u99ac\u864e
p921
I1
sV\u8a9e\u8a00
p922
I2
sV\u51e1\u723e\u7d0d
p923
I1
sV\u8ca0\u8cac\u4eba
p924
I1
sV\u7fa9\u52d9
p925
I2
sV\u9996\u6b21
p926
I3
sV\u4e09\u4eba
p927
I1
sV\u6c5e\u67f1
p928
I1
sV\u83dc\u9ce5
p929
I1
sV\u8af8\u845b\u4eae
p930
I5
sV\u6838\u5fc3
p931
I1
sV\u8feb\u4f7f
p932
I2
sV\u51fa\u4eba\u610f\u6599
p933
I1
sV\u516b\u4e16\u7d00
p934
I1
sV\u5de1\u8ff4
p935
I2
sV\u7dca\u6e4a
p936
I1
sV\u76e1\u60c5
p937
I2
sV\u5177\u6709
p938
I8
sV\u6539
p939
I1
sV\u84b8
p940
I1
sV\u5165\u672c
p941
I1
sV\u76f8\u5b9c
p942
I1
sVCharlie
p943
I4
sV\u52a0\u5f37
p944
I4
sV\u968a\u53cb
p945
I1
sV\u982d\u689d
p946
I7
sV\u770b\u5f85
p947
I2
sV\u4f11\u65c5\u8eca
p948
I1
sV\u6c42\u52a9
p949
I1
sV\u904e\u4f86
p950
I1
sV\u672c\u8272
p951
I1
sV\u7d93\u7d00
p952
I1
sV\u5175\u54e1
p953
I2
sV\u9054\u96fb
p954
I4
sV\u7c89
p955
I1
sV\u5c3f\u5728
p956
I1
sV\u9ec3\u570b\u6d0b
p957
I1
sV\u9ad8\u901f\u516c\u8def
p958
I1
sV\u5df4\u91cc
p959
I1
sV\u7a05\u52d9
p960
I1
sV\u7fa4\u5cf6
p961
I1
sV\u9867\u616e
p962
I2
sV\u6295\u9760
p963
I1
sV\u80a1
p964
I1
sV\u71b1
p965
I1
sV\u6cae\u55aa
p966
I2
sV\u6578\u5343
p967
I2
sV\u4e0d\u5229
p968
I1
sV\u4f5c\u4e3b
p969
I1
sV\u589e\u9577
p970
I1
sV\u5468\u520a
p971
I1
sV\u7be4\u5b9a
p972
I1
sV\u8ecc\u9053
p973
I1
sV6
p974
I5
sV\u4f5c\u4e2d
p975
I1
sV\u5275\u9020
p976
I2
sV\u7a76\u7adf
p977
I4
sV\u6c99\u62c9
p978
I2
sV\u5145\u5206
p979
I2
sV\u767c\u51fa
p980
I1
sV\u9418\u6b23\u6850
p981
I1
sV\u4ed6\u53e3
p982
I1
sV\u95dc\u5fc3
p983
I1
sV\u5eff\u4e5d
p984
I1
sV\u4e3b\u6301\u4eba
p985
I1
sV\u52e4\u9ede
p986
I1
sV\u5145\u6eff
p987
I3
sV\u8b93\u80a1\u6578
p988
I1
sV\u5373\u53ef
p989
I3
sV\u591a\u65b9
p990
I1
sV\u5747\u8861
p991
I1
sV\u7a7f\u812b
p992
I1
sV\u6bd4\u8f03
p993
I5
sV\u904e\u4e16
p994
I1
sV\u3001
p995
I433
sV\u7b97\u4e86
p996
I2
sV\u5408\u6cd5\u6027
p997
I2
sV\u4e09\u4f4d
p998
I3
sV\u805a\u7126
p999
I1
sV\u591a\u6578
p1000
I4
sV\u50c5\u70ba
p1001
I1
sV\u8a3c\u660e
p1002
I1
sV\u65ac\u6bba
p1003
I1
sV\u6f14\u51fa
p1004
I6
sV\u518d\u52a0
p1005
I1
sV\u5927\u5370
p1006
I1
sV\u5927\u5361
p1007
I1
sV\u8907\u88fd\u6027
p1008
I1
sV\u8996\u89ba
p1009
I4
sV\u6563
p1010
I1
sV\u5687\u5230
p1011
I1
sV\u964d\u4f4e
p1012
I1
sV\u6377\u904b
p1013
I3
sV\u6c11\u570b
p1014
I1
sVRSS
p1015
I4
sV\u6700\u6703
p1016
I1
sV\u8001\u5e97
p1017
I1
sV\u5927\u81f4\u4e0a
p1018
I1
sV\u800c
p1019
I66
sV\u6c11\u4e4b\u6240\u6b32
p1020
I1
sV\u9084\u53ef\u4ee5
p1021
I1
sVLuxgen5
p1022
I2
sV\u751a
p1023
I2
sV\u4e4b\u773e
p1024
I1
sV\u5c0b\u6c42
p1025
I2
sV\u8f49\u578b\u671f
p1026
I1
sV\u53ea\u6709
p1027
I11
sV\u8336
p1028
I1
sV\u5927\u81bd
p1029
I3
sV\u4e3b\u5acc
p1030
I2
sV\u767b\u53f0
p1031
I1
sV\u91ac\u6c41
p1032
I2
sV\u559c\u4f86
p1033
I1
sV\u7528\u672c
p1034
I1
sV\u9810\u898b
p1035
I1
sV\u5750\u93ae
p1036
I1
sV\u9577\u51fa
p1037
I1
sV\uff313
p1038
I1
sV\u65e5
p1039
I16
sV\u5de5\u7a0b
p1040
I2
sV\u7b11\u5f97
p1041
I1
sV\u4e5f\u8a31
p1042
I6
sV\u5ef3
p1043
I2
sV\u51fa\u751f
p1044
I3
sV\u9707\u85e9
p1045
I1
sV\u8cde\u5fc3\u6085\u76ee
p1046
I1
sV\u6d3e\u4eba
p1047
I1
sV\u6bd4\u8cfd
p1048
I2
sV\u6c34\u8299\u84c9
p1049
I1
sV\u6f5b\u4f0f\u671f
p1050
I1
sV\u76e3\u7763
p1051
I1
sV\u5168\u5bb6\u4eba
p1052
I1
sV\u9ad8\u901f
p1053
I1
sV\u524d\u8005
p1054
I1
sV\u7578\u80ce
p1055
I1
sV\u8840\u6e05\u7d20
p1056
I1
sV\u75c5\u60a3
p1057
I5
sV\u8056\u5730
p1058
I1
sV\u9806\u5229
p1059
I1
sV\u91ac\u6cb9
p1060
I1
sV\u7537\u6027
p1061
I2
sV\u7e3d\u6703
p1062
I1
sV\u6162\u6162
p1063
I2
sV\u75c5\u60c5
p1064
I4
sV\u7e2b\u4e0a
p1065
I1
sV\u5289\u9023\u5149
p1066
I4
sV\u4e43\u81f3\u65bc
p1067
I1
sVChang
p1068
I1
sV\u9ad8\u9054
p1069
I6
sV\u9e79\u86cb
p1070
I1
sV\u6c34\u6676\u9ad4
p1071
I21
sV\u516d
p1072
I2
sV\u85dd\u4eba
p1073
I1
sV\u8077
p1074
I1
sV\u81ea\u79c1
p1075
I1
sV\u8c6c\u6cb9
p1076
I3
sV\u82ac\u862d
p1077
I1
sV\u8001\u95c6
p1078
I2
sV\u8377\u723e\u8499
p1079
I1
sV\u63da\u8a00
p1080
I1
sV\u65e9\u6668
p1081
I1
sV\u53ea\u662f
p1082
I11
sV\u5145\u6c9b
p1083
I1
sV\u679c\u54c1
p1084
I1
sV\u7784\u6e96
p1085
I3
sV\u773e\u591a
p1086
I2
sV\u770b\u5c4b
p1087
I2
sV\u5854\u5409\u514b\u88d4
p1088
I1
sV\u962e
p1089
I1
sV\u501a\u8cf4
p1090
I1
sV\u7761\u4e0d\u597d
p1091
I1
sV\u7dad\u591a\u5229\u4e9e
p1092
I1
sV\u640d\u50b7
p1093
I2
sV\u8070\u660e
p1094
I3
sV\u91d1\u5c6c
p1095
I1
sV\u53eb
p1096
I1
sV\u8a02\u8cfc
p1097
I3
sV\u8d77\u98db
p1098
I1
sV\u50a2\u4ff1
p1099
I29
sV\u66f8\u756b
p1100
I1
sV\u6162\u6027
p1101
I5
sVMovie
p1102
I2
sV\u4e94\u6d32
p1103
I1
sV\u8a13\u7df4
p1104
I16
sV\u857e\u8c9d\u5361
p1105
I3
sV\u62ec\u865f
p1106
I1
sV\u4e3b\u81e5\u5ba4
p1107
I1
sV\u50b3\u8aaa
p1108
I1
sV\u60f3\u5bb6
p1109
I1
sV\u738b\u724c
p1110
I1
sV\u5e97\u5bb6
p1111
I1
sV\u591a\u6708
p1112
I2
sV\u591a\u6709
p1113
I1
sV2008
p1114
I1
sV\u7b49\u7b49
p1115
I3
sV\u6253\u4e00\u5834
p1116
I1
sV\u9ede
p1117
I2
sV\u806f\u7d61
p1118
I1
sV\u4e00\u4e5d\u4e5d\u4e09\u5e74
p1119
I1
sV\u554f\u4ed6
p1120
I1
sV9\u223c9
p1121
I1
sV\u4faf\u4f69\u5c91
p1122
I8
sV\u9178\u6f80
p1123
I1
sV\u8a6e\u91cb
p1124
I1
sV\u9ad8\u968e
p1125
I1
sV\u53d6\u6c7a
p1126
I2
sV\u63a5\u7ba1
p1127
I2
sV\u5546\u865f
p1128
I1
sV\u897f\u91ab
p1129
I3
sV\u5e78\u597d
p1130
I1
sV\u8f38\u5bb6
p1131
I1
sV\u6642\u671f
p1132
I9
sV\u50c5\u7528
p1133
I1
sV\u5b9a\u88fd
p1134
I1
sV\u7121\u9808
p1135
I1
sV\u5e1d\u738b\u87f9
p1136
I1
sV\u5f37\u70c8
p1137
I6
sV\u52a0\u62ff\u5927
p1138
I1
sV\u9ad8\u96c4
p1139
I1
sV\u7d30\u5fc3
p1140
I2
sV\u5713\u5922
p1141
I3
sV\u5c62\u5efa
p1142
I1
sV\u8868
p1143
I3
sV\u57f7\u884c
p1144
I5
sV\u716e
p1145
I2
sV\u7f72
p1146
I1
sV\u963f\u7389
p1147
I1
sV\u65b0\u6d6a\u6f6e
p1148
I1
sV\u8a2d\u8a08\u5e2b
p1149
I2
sV\u8d95\u51fa
p1150
I1
sV\u600e\u6a23
p1151
I1
sV\u5dd4\u5cf0
p1152
I1
sV\u9577\u5728
p1153
I1
sV\u79df\u4f4f
p1154
I1
sV\u51fa\u73fe
p1155
I10
sV\u90ed\u5fd7\u9060
p1156
I4
sV\u5e7d\u5fae
p1157
I1
sV\u8a00\u8a9e
p1158
I1
sV\u6c34\u6e96
p1159
I1
sV\u5e1d\u570b\u4e3b\u7fa9
p1160
I3
sV\u738b\u6e1d\u6587
p1161
I3
sV\u56de\u53bb
p1162
I2
sV\u6436\u773c
p1163
I1
sV\u5217\u51fa\u4f86
p1164
I1
sV\u8212\u670d
p1165
I2
sV\u7d93\u7531
p1166
I5
sV\u4ecb\u9762
p1167
I1
sV\u5fa9\u767c
p1168
I2
sV\u91d1\u5bf6
p1169
I6
sV\u4f9b\u61c9\u5546
p1170
I1
sV\u8a00\u8ad6
p1171
I9
sV\u4f4e\u8abf
p1172
I1
sV\u500b\u4eba
p1173
I16
sV\u6bcb\u5eb8\u7f6e\u7591
p1174
I1
sV\u8d8a\u4f86\u8d8a
p1175
I4
sV\u6f14\u54e1
p1176
I3
sV\u53d6\u4ee3
p1177
I2
sVJason
p1178
I1
sV\u868a\u87f2
p1179
I2
sV\u73a9
p1180
I1
sV\u898b\u5716
p1181
I1
sV\u5206\u70ba
p1182
I5
sV\u5df2\u9054
p1183
I1
sV\u7dda\u4e0a
p1184
I5
sV\u7533\u8acb
p1185
I3
sV\u54c4\u8457
p1186
I1
sV\u9ec3\u8056
p1187
I1
sV\u8449\u7487
p1188
I2
sV\u58d3\u529b
p1189
I12
sV\u5e38\u898b
p1190
I1
sV\u5e7c\u5152
p1191
I1
sV\u8072\u97f3
p1192
I1
sV\u56de\u5230
p1193
I3
sV\u51fa\u7247
p1194
I4
sV\u51fa\u8840\u6027
p1195
I1
sV\u5927\u578b
p1196
I5
sVXML
p1197
I1
sV\u60e1\u9b25
p1198
I1
sV\u516c\u9803
p1199
I3
sV\u526f\u4e3b\u5e2d
p1200
I2
sV\u53c3\u89c0
p1201
I1
sV\u65b0\u805e
p1202
I27
sV\u52d5\u7269
p1203
I4
sV\u4e09\u4f4d\u5317
p1204
I1
sV\u4ee4
p1205
I11
sV\u90a3\u4e48
p1206
I1
sV\u53ef
p1207
I29
sV\u5be9\u8a08
p1208
I1
sV\u8863\u98df\u7236\u6bcd
p1209
I1
sV\u9ad8\u97f3
p1210
I1
sV\u51fa\u7210
p1211
I1
sV31
p1212
I1
sV\u597d\u840a\u5862
p1213
I1
sV\u63a1\u7528
p1214
I8
sV\u58d3\u5230
p1215
I2
sV\u96e2\u5bb6
p1216
I1
sV\u589e\u91cd
p1217
I1
sV\u4fe1\u7fa9\u5340
p1218
I2
sV\u4e00\u7fa4
p1219
I1
sV\u90a3\u4e9b
p1220
I1
sVWilliams
p1221
I1
sV\u96e3\u9053
p1222
I1
sV\u99ac\u9b6f\u8cbb
p1223
I1
sV\u8cc7\u672c
p1224
I1
sV\u5c0e\u6f14
p1225
I10
sV\u5143
p1226
I29
sV\u5a01\u8105
p1227
I1
sV\u5b89\u6392
p1228
I1
sV\u6839\u6cbb
p1229
I3
sV\u505a\u932f
p1230
I4
sV\u5766\u8569
p1231
I1
sV\u90a3\u4ef6
p1232
I3
sV\u4e7e\u6027
p1233
I2
sV\u6eab\u5ea6
p1234
I2
sV\u5999\u62db
p1235
I1
sV\u6292\u60c5
p1236
I1
sV\u8981\u6c42
p1237
I7
sV\u591a\u5f97
p1238
I1
sV\u840c
p1239
I1
sV\u64f4\u53ca
p1240
I1
sV\u770b\u597d
p1241
I1
sV\u53f3\u773c
p1242
I2
sV\u8ba9
p1243
I3
sV\u4e3b\u5eda
p1244
I2
sV\u5e45\u5ea6
p1245
I1
sV\u542c
p1246
I1
sV\u5176\u6240\u9054
p1247
I1
sV\u6c41\u6db2
p1248
I1
sV\u5834
p1249
I5
sV\u5589\u56a8\u75db
p1250
I1
sV\u7372\u5f97
p1251
I6
sV\u9019\u4f4d
p1252
I1
sV\u8cfc\u8db3
p1253
I1
sV\u5916\u4f86
p1254
I2
sV\u7b11\u5bb9
p1255
I1
sVOf
p1256
I1
sV\u86cb
p1257
I3
sV\u5206\u88c2
p1258
I1
sV\u85e5\u6c34
p1259
I1
sV\u6e05\u9192
p1260
I1
sV\u773c\u58d3
p1261
I6
sV\u540c\u7b49
p1262
I1
sV\u7d72
p1263
I1
sV\u4efb
p1264
I1
sV\u9003\u5230
p1265
I1
sV\u8457\u4f5c\u6b0a
p1266
I3
sV\u5317\u5e02
p1267
I1
sV\u71df\u6551
p1268
I1
sV\u7f85\u7d20
p1269
I2
sV\u751f\u4e0b
p1270
I2
sV\u5de8\u5927
p1271
I1
sV\u8cfc\u7269\u888b
p1272
I1
sV\u8166\u6d77
p1273
I1
sV\u674e\u9999\u7434
p1274
I2
sV\uff31
p1275
I1
sV\u5be6\u5883
p1276
I1
sV\u9663\u71df
p1277
I7
sV\u807d\u5b8c
p1278
I1
sV\u5927\u540d
p1279
I2
sV\u516d\u767e\u4e09\u5341\u4e8c
p1280
I1
sV\u8cbc
p1281
I1
sV\u52a0\u5927
p1282
I1
sV\u8b8a\u52d5
p1283
I2
sV\u5169\u842c
p1284
I1
sV\u6f14\u591a
p1285
I1
sVby
p1286
I3
sV\u807d\u5beb
p1287
I1
sV\u70ba\u4f73
p1288
I2
sV\u5de1\u8996
p1289
I1
sV\u4e43\u81f3
p1290
I1
sV\u70ba\u4f55
p1291
I1
sV\u6731\u9577\u5dba
p1292
I1
sV\u9700
p1293
I5
sV\u8b8a\u5316
p1294
I5
sV\u62bd\u83f8
p1295
I1
sV\u8cc7\u6599
p1296
I9
sV\u4e4b\u7236
p1297
I1
sV\u5c11\u7528
p1298
I1
sV\u4e0d\u6cd5
p1299
I2
sV\u812b\u53e3\u79c0
p1300
I1
sV\u9999\u5bae
p1301
I1
sV\u70ba\u4e86
p1302
I12
sV\u5927\u559c
p1303
I2
sV\u9f13\u624b
p1304
I1
sV\u7528\u624b
p1305
I1
sV\u54ed\u51fa\u4f86
p1306
I1
sV:
p1307
I11
sV\u6559\u7df4
p1308
I2
sV\u8cfc\u8cb7
p1309
I10
sV\u9ebb\u7169
p1310
I1
sV\u50c5
p1311
I6
sV\u8d95\u5230
p1312
I2
sV\u689d\u7dda
p1313
I1
sV\u83dc\u55ae
p1314
I1
sV\u505a
p1315
I13
sV\u4f86\u964d
p1316
I1
sV\u8a73\u60c5
p1317
I1
sV\u526f\u4fee
p1318
I1
sV\u5916\u4ea4
p1319
I2
sV\u56db\u5341\u56db
p1320
I1
sV\u65e9\u6212
p1321
I1
sV\u5931\u7720
p1322
I34
sV\u8a02\u88fd
p1323
I1
sV\u5916\u4eba
p1324
I2
sV\u9577\u6d32
p1325
I2
sV\u58c1
p1326
I1
sV\u884c\u8e64
p1327
I1
sV\u6c11\u5175
p1328
I1
sV\u65b9\u5411\u76e4
p1329
I2
sV\u610f
p1330
I1
sV\u9019\u4e9b
p1331
I20
sV\u70ba\u4e3b
p1332
I4
sV\u958b\u8ce3
p1333
I3
sV\u5c08\u9580
p1334
I1
sV\u7d30\u5c0f
p1335
I1
sV\u958b\u904b
p1336
I2
sV950
p1337
I1
sV\u5f35\u4e00\u5c71
p1338
I2
sV\u5c0f\u96de
p1339
I8
sV\u6e2c\u8a66
p1340
I1
sV\u5b55\u7a0b
p1341
I3
sV\u816b\u8139
p1342
I3
sV\u770b\u58de
p1343
I1
sV\u5177
p1344
I4
sV\u7dad\u4e5f\u7d0d
p1345
I1
sV\u6307\u5b9a
p1346
I2
sV\u5347\u9ad8
p1347
I1
sV\u96d6
p1348
I3
sV\u6cd5\u4ee4
p1349
I4
sV\u60f3\u5fc5
p1350
I2
sV\u558a\u51fa
p1351
I1
sV\u5e38\u8b58
p1352
I1
sV\u9019\u4efd
p1353
I1
sV\u8f3b\u5c04
p1354
I1
sV\u6839\u6e90
p1355
I1
sV\u7f85
p1356
I1
sV\u9818\u724c
p1357
I1
sV\u9ea5\u514b\u98a8
p1358
I1
sV\u4e7e\u6de8
p1359
I1
sV\u8b8a\u5c0f
p1360
I1
sV\u8a2a\u65e5
p1361
I1
sV\uff1a
p1362
I73
sV\u6c42\u5a5a
p1363
I2
sV\u8ca2\u737b
p1364
I4
sV\u5674\u767c
p1365
I1
sV\u6b22
p1366
I1
sV\u672a
p1367
I5
sV\u4ee5\u975e
p1368
I1
sV\u5df4\u57fa\u65af\u5766
p1369
I13
sV\u96d6\u7136
p1370
I7
sV\u4e00\u4e9b\u4e9b
p1371
I1
sV\u5e0c\u671b
p1372
I11
sV\u5fc5
p1373
I1
sV\u5668\u5177
p1374
I1
sV\u806f\u76df
p1375
I3
sV\u85e5\u623f
p1376
I1
sV\u640d\u5bb3
p1377
I4
sV\u5956
p1378
I1
sV\u963f\u7fa4
p1379
I1
sV\u7b2c\u56db
p1380
I3
sV\u65e9
p1381
I4
sV\u5de8\u57ce
p1382
I1
sV\u53d7\u8fb1
p1383
I1
sV\u80a5\u80d6
p1384
I15
sV\u59d4\u54e1\u6703
p1385
I2
sV\u542b\u6dda
p1386
I1
sV\u884c\u8173
p1387
I1
sVPricewaterhouseCoopers
p1388
I1
sV\u62d2\u7d55
p1389
I1
sV\u9650\u6642
p1390
I2
sV\u8cb8
p1391
I1
sV\u203b
p1392
I6
sV\u570b\u6c11\u9ee8
p1393
I4
sV\u5e74\u4ee3
p1394
I5
sV\u6230\u722d
p1395
I12
sV\u540d\u6b21
p1396
I1
sV\u5247
p1397
I33
sV\u51fa\u7248
p1398
I1
sV\u85a9\u7c73
p1399
I1
sV\u516c\u958b
p1400
I14
sV\u795e\u5b78\u58eb
p1401
I8
sV\u8ffd\u8e64
p1402
I3
sV\u60f3\u50cf
p1403
I5
sV\u5224\u65b7
p1404
I3
sV\u5340\u7121
p1405
I1
sV\u6b63\u78ba\u6027
p1406
I3
sV\u5ea7
p1407
I1
sV\u4ea4\u8207
p1408
I1
sV\u5171
p1409
I1
sV\u751a\u81f3
p1410
I17
sV\u4e92\u91cd
p1411
I1
sV\u8208\u596e\u611f
p1412
I1
sV\u5927\u5bb6
p1413
I9
sV\u8d85\u904e
p1414
I9
sV\u9a5a\u8c54
p1415
I1
sV\u5be6\u5728
p1416
I3
sV\u519b
p1417
I3
sV\u798f\u97f3
p1418
I1
sV\u53cd\u7701
p1419
I1
sV\u72af\u7f6a
p1420
I1
sV\u5546\u8b7d
p1421
I1
sV\u53ca\u65e9
p1422
I1
sV\u5370\u5ea6\u6559
p1423
I2
sV\u6c42\u5b78
p1424
I2
sV\u6578\u5b57
p1425
I1
sV\u901f\u98df
p1426
I1
sV\u6f14\u597d
p1427
I1
sV\u767c\u653e
p1428
I1
sV\u8ecd\u5c6c
p1429
I1
sV\u53e3\u670d\u85e5
p1430
I1
sV\u8ce3\u5ea7
p1431
I1
sV\u7528\u6c34
p1432
I1
sV\u984c\u70ba
p1433
I1
sV\u7e2e\u77ed
p1434
I2
sV\u71df\u990a\u7d20
p1435
I2
sV\u5ac1\u7d66
p1436
I1
sV\u7981\u932e
p1437
I1
sV\u81ea\u4ee5\u70ba
p1438
I1
sV\u75c5\u6b7b
p1439
I3
sV\u5340\u70ba
p1440
I1
sV\u54e5\u54e5
p1441
I2
sV\u7cca\u5857
p1442
I1
sV\u4ffe\u8def
p1443
I2
sV\u62db\u724c
p1444
I1
sV\u8d23
p1445
I1
sV\u9059\u9060
p1446
I1
sV\u8c46\u54e5
p1447
I1
sV\u4e94\u6708
p1448
I1
sV\u601d\u7dad
p1449
I2
sV\u4eba
p1450
I67
sV\u770b\u56de
p1451
I1
sV\u6d0b\u88dd
p1452
I1
sV\u7528\u6cb9
p1453
I2
sV\u540d\u6a21
p1454
I5
sV\u5347
p1455
I3
sV\u98f2\u6599
p1456
I3
sV\u4f4f
p1457
I1
sV\u5927\u5b78
p1458
I15
sV\u63a8\u812b
p1459
I1
sV\u8655
p1460
I3
sV\u5e74\u4f86
p1461
I1
sV\u5341\u4e00\u4e16\u7d00
p1462
I2
sV\u8996\u529b
p1463
I29
sV\u5730\u904e
p1464
I1
sV\u75c5\u6bd2
p1465
I2
sV\u6539\u8b8a
p1466
I9
sV\u81e3\u670d
p1467
I1
sV\u5ba2\u6236
p1468
I2
sV\u7d50\u5a5a
p1469
I8
sV\u904b\u52d5
p1470
I10
sV\u7d93\u7406
p1471
I2
sV\u5dee\u984d
p1472
I1
sV\u81ea\u7136
p1473
I4
sV\u9451\u65bc
p1474
I1
sV\u60c5\u6709\u7368\u937e
p1475
I1
sV\u9ad4\u5167
p1476
I5
sV\u529b
p1477
I7
sV\u7d1a
p1478
I3
sV\u767d\u5929
p1479
I3
sV\u8ba1
p1480
I2
sV\u5967\u5730\u5229
p1481
I1
sV\u4e3b\u52d5
p1482
I2
sV\u50b3\u7d71
p1483
I9
sV\u60f3\u5230
p1484
I3
sV\u7136\u800c
p1485
I5
sV\u5230
p1486
I16
sV2015
p1487
I2
sV2014
p1488
I11
sV\u9818\u4e0d\u5230
p1489
I1
sV2010
p1490
I2
sV2013
p1491
I2
sV\u4f9b\u8af8\u4f4d
p1492
I1
sV\u9ec3
p1493
I1
sV\u6548\u679c
p1494
I4
sV\u8acb
p1495
I15
sV\u51fa\u7248\u4eba
p1496
I1
sV\u684c
p1497
I1
sV\u9019\u56db\u5927
p1498
I1
sV\u5c08\u984c
p1499
I1
sV\u524d\u88fd
p1500
I1
sV\u5b97\u6559
p1501
I4
sV\u7121\u9650
p1502
I2
sV\u95dc\u9375\u8a5e
p1503
I1
sV\u89c0\u773e
p1504
I2
sV\u5929\u5047
p1505
I1
sV\u9577\u5927
p1506
I7
sV\u5c0f\u5973\u5152
p1507
I1
sV\u6613
p1508
I6
sV\u9817
p1509
I2
sV\u4fc3\u6210
p1510
I1
sV\u66a8
p1511
I3
sV\u8cc7\u683c
p1512
I3
sV\u5e79\u4e86
p1513
I1
sV\u71df\u696d
p1514
I2
sV\u9577\u56de\u4f86
p1515
I1
sV\u5927\u5802
p1516
I1
sV\u738b\u535a\u6631
p1517
I2
sV\u5047
p1518
I2
sV\u983b\u5c3f
p1519
I2
sV\u80a1\u6771
p1520
I1
sV\u6f58\u52db
p1521
I1
sV\u640d\u5931
p1522
I4
sV\u9a55\u6a6b
p1523
I2
sV\u6587\u660e
p1524
I9
sV\u5eff\u4e03\u65e5
p1525
I1
sV\u64f4\u5f35
p1526
I2
sV\u611f\u67d3\u7387
p1527
I1
sV\u5b97\u65e8
p1528
I1
sV\u9673
p1529
I1
sV\u6230\u706b
p1530
I6
sV\u7e7c\u7e8c
p1531
I5
sV\u559c\u5287\u7247
p1532
I1
sV\u5206
p1533
I8
sV\u8dd1\u683c
p1534
I1
sV\u8ecd\u5e2b
p1535
I1
sV\u79d1\u5de5\u9928
p1536
I1
sV\u8b8a\u5f37
p1537
I1
sV\u9032
p1538
I2
sV\u975e\u79ae
p1539
I1
sV\u8a2d\u5b9a
p1540
I3
sV\u6f38\u6b21
p1541
I1
sV\u7d44
p1542
I2
sV\u56c9
p1543
I2
sV\u9080\u8acb
p1544
I3
sV\u751c\u871c
p1545
I1
sV\u5f81\u670d
p1546
I2
sV\u6d1b\u96de
p1547
I6
sV\u9650\u65bc
p1548
I9
sV\u7ed9
p1549
I3
sV\u516c\u6b63\u516c
p1550
I1
sV\u4e94\u65e5
p1551
I1
sV\u653f\u5ba2
p1552
I2
sV\u96fb\u5b50
p1553
I2
sV\u6367
p1554
I1
sV\u91d1\u79a7\u6bd4
p1555
I1
sV\u4e16\u65b0
p1556
I1
sV\u80fd
p1557
I30
sV\u8b8a\u5f62
p1558
I1
sV\u99ac\u8d85
p1559
I13
sV\u5712\u5730
p1560
I1
sV\u8b8a\u5f97
p1561
I3
sV\u5e7e\u5e74
p1562
I1
sV\u6c50\u6b62
p1563
I1
sVSecret
p1564
I1
sV\u7d2b\u5916\u7dda
p1565
I1
sV\u5167\u90e8
p1566
I1
sV\u60f3\u53bb
p1567
I1
sV\u5927\u591a
p1568
I3
sV\u9078\u60c5
p1569
I2
sV\u7231
p1570
I1
sV\u67ef\u5efa\u751f
p1571
I1
sV02
p1572
I3
sV\u4f4e\u85aa
p1573
I1
sV\u9032\u99d0
p1574
I3
sV\u5927\u597d
p1575
I1
sV\u8c37\u8c37
p1576
I1
sV\u89aa\u5b50\u88dd
p1577
I1
sV\u4e2d\u9593
p1578
I1
sV\u65b0\u8eca
p1579
I3
sV\u5fd8
p1580
I1
sV\u96de
p1581
I1
sV\u5617\u8a66
p1582
I2
sV\u8a66\u8457
p1583
I1
sV\u8db3\u8db3
p1584
I1
sV\u6d1b\u967d
p1585
I1
sV\u7121\u95dc
p1586
I1
sV\u83c1\u82f1
p1587
I4
sV\u8cea\u91cf
p1588
I4
sV\u7248\u672c
p1589
I1
sV\u8eab\u70ba
p1590
I2
sVComment
p1591
I1
sV\u75c7\u5019\u7fa4
p1592
I4
sV\u8cc7\u6e90
p1593
I3
sV\u6a6b\u8d8a
p1594
I1
sV\u30109
p1595
I1
sV\u7d05\u592a\u72fc
p1596
I1
sV\u6548\u61c9
p1597
I1
sV\u4e09\u85e9\u5e02
p1598
I2
sV\u63ee\u7051
p1599
I1
sV\u5927\u53f0\u5317
p1600
I1
sV\u5c0b\u627e
p1601
I6
sV\u7d93\u71df
p1602
I1
sV\u771f\u4eba
p1603
I1
sV\u4ef0\u8cf4
p1604
I3
sV\u672c\u8eab
p1605
I5
sV\u6d6e\u73fe\u51fa\u4f86
p1606
I1
sV\u61c9\u7528
p1607
I2
sV\u7d66\u4e88
p1608
I4
sV\u9069\u914d
p1609
I1
sV\u532f\u7684
p1610
I1
sV\u9031\u671f
p1611
I2
sV\u91d1\u5361
p1612
I1
sV\u5927\u5ee0
p1613
I2
sV\u9858
p1614
I1
sV\u9ed1\u9053
p1615
I2
sV\u6063\u610f
p1616
I2
sV\u8ce3\u5b8c
p1617
I1
sV\u5973\u6027
p1618
I3
sV\u6a5f\u5834
p1619
I10
sV\u5b78\u8005
p1620
I1
sV\u4eae\u76f8
p1621
I1
sV\u7c21\u6f54
p1622
I2
sV\u64cd\u4f5c
p1623
I1
sV\u53c3\u8003
p1624
I1
sV\u5f37\u786c
p1625
I1
sV\u4e8c
p1626
I4
sV\u5168\u8eab
p1627
I5
sV\u9075\u5b88
p1628
I2
sV\u65b0\u6642\u4ee3
p1629
I1
sV\u99d0\u65e5
p1630
I1
sVPR
p1631
I2
sV\u7fa4\u5148
p1632
I1
sV\u60a8
p1633
I5
sV\u56de\u5bb6
p1634
I4
sV\u7531
p1635
I15
sV\u767e\u614b
p1636
I1
sV\u5316\u5b78
p1637
I1
sV\u5a77\u5a77
p1638
I2
sV\u700f\u89bd
p1639
I6
sV\u5b89\u7720\u85e5
p1640
I5
sV\u8ecd\u59ff
p1641
I1
sV\u6050\u6016
p1642
I3
sV\u5305\u542b
p1643
I2
sV\u6050\u6015
p1644
I2
sV\u88fd\u4f5c
p1645
I2
sV\u6216\u662f
p1646
I7
sV\u57fa\u7763\u5f92
p1647
I3
sV\u539f\u59cb
p1648
I1
sV\u773c\u524d
p1649
I1
sV\u8b77\u6559
p1650
I1
sV\u9577\u5ea6
p1651
I1
sV\u6703\u8a08\u5e2b
p1652
I2
sV\u8b8a\u591a
p1653
I1
sV\u6295
p1654
I1
sV\u5f97
p1655
I13
sV\u539f
p1656
I3
sV\u82e5\u5e72
p1657
I1
sV\u8ff4\u97ff
p1658
I1
sV\u6649\u5347\u70ba
p1659
I1
sV\u6d88\u8cbb\u8005
p1660
I4
sVPhone
p1661
I1
sV\u66b4\u5229
p1662
I2
sV\u4e09\u5341\u5e74
p1663
I1
sV\u8b8a\u5927
p1664
I1
sV\u9577\u5e9a
p1665
I4
sV\u6709\u4e9b
p1666
I9
sV\u4ecd
p1667
I11
sV\u5468\u5e74
p1668
I2
sV\u770b\u5230
p1669
I9
sV\u524d\u8ff0
p1670
I8
sV\u8b8a\u597d
p1671
I1
sV2011
p1672
I4
sV\u786e
p1673
I2
sV\u7d44\u6210\u54e1
p1674
I1
sV2012
p1675
I3
sV\u66b4\u529b
p1676
I1
sV\u3009
p1677
I3
sV\u5dee\u4e0d\u591a
p1678
I2
sV\u5c07\u8ecd
p1679
I2
sV\u98a8\u5730\u89c0
p1680
I1
sV\u6c1b\u570d
p1681
I3
sV\u53ef\u9760\u6027
p1682
I4
sV\u73a9\u7b11
p1683
I2
sV\u6307\u51fa
p1684
I13
sV\u6c42\u5feb
p1685
I1
sV\u6839\u64da
p1686
I8
sV\u4eae\u773c
p1687
I1
sV\u6839
p1688
I1
sV\u6240\u8b02
p1689
I2
sV\u518d\u5ea6
p1690
I3
sV\u5747
p1691
I4
sV\u8ad6\u58c7
p1692
I1
sV\u53d7\u8a13
p1693
I1
sV\u8389\u838e
p1694
I1
sV\u81ea\u76e1
p1695
I1
sV\u9673\u9d3b\u6587
p1696
I1
sV\u52a0\u5206
p1697
I1
sV\u8b1b\u7a76
p1698
I1
sV\u95dc\u5361
p1699
I1
sV\u547c\u7c72
p1700
I3
sV\u50b3\u795e
p1701
I1
sV\u672c\u8c8c
p1702
I2
sV\u81ea\u7531
p1703
I2
sV\u5df4\u9ece
p1704
I1
sV\u516d\u901f
p1705
I1
sV\u5954\u6ce2
p1706
I1
sV\u9806\u5e8f
p1707
I2
sV\u694a\u677e
p1708
I1
sV\u8003\u8a66
p1709
I6
sV\u8fd1\u671f
p1710
I2
sV\u6df7\u5408
p1711
I1
sVwet
p1712
I1
sV5
p1713
I13
sV\u6839\u672c
p1714
I1
sV\u7b46\u8a18
p1715
I1
sV\u7248
p1716
I1
sV\u8f38\u51fa
p1717
I1
sV\u5c0a\u91cd
p1718
I2
sV\u65af\u6d1b
p1719
I3
sV\u544a\u77e5
p1720
I2
sV\u63cf\u8ff0
p1721
I6
sV\u653f\u5e9c
p1722
I4
sV\u7d1a\u8ddd
p1723
I1
sV\u4ef0\u8eba
p1724
I1
sV\u6cb9\u9580
p1725
I1
sV\u672c\u8cea
p1726
I1
sV\u8996\u5531
p1727
I1
sV\u6025\u8457
p1728
I1
sV\u52a0\u5165
p1729
I3
sV\u300d
p1730
I189
sV\u53c3\u8207
p1731
I4
sV\u6c99\u70cf\u5730\u963f\u62c9\u4f2f
p1732
I1
sV\u5f88\u76f4
p1733
I1
sV\u770b\u51fa
p1734
I1
sV\u963f\u7965
p1735
I1
sV\u5373\u5c07
p1736
I6
sV\u9580\u7e2b
p1737
I2
sV\u5927\u5c07
p1738
I1
sV\u5927\u5c0f
p1739
I2
sV\u623f\u6c34
p1740
I5
sV\u4e4b
p1741
I35
sV\u8f38\u5165
p1742
I4
sVAICPA
p1743
I1
sV\u81ea
p1744
I7
sV\u591a\u6a23
p1745
I1
sV\u5730\u9762
p1746
I1
sV\u81e8\u7d42
p1747
I1
sV\u5916\u4ea4\u754c
p1748
I1
sV\u5718\u7d50\u8d77\u4f86
p1749
I3
sV\u65b0\u8a13
p1750
I1
sV\u807d\u5230
p1751
I2
sV\u724c\u7167
p1752
I4
sV\u2500\u300a
p1753
I2
sV\u975e\u7d93
p1754
I1
sV\u9ad4\u5473
p1755
I1
sV\u4e4b\u7a31
p1756
I1
sV\u9677\u65bc
p1757
I2
sV\u7d71\u6230
p1758
I1
sV\u9805\u76ee
p1759
I1
sV\u9739\u9742
p1760
I5
sV\u9818\u7565
p1761
I1
sV\u5730
p1762
I17
sV\u800c\u4e14
p1763
I8
sV\u6559\u80b2\u90e8
p1764
I3
sVMINI
p1765
I17
sV\u96fb\u5f71
p1766
I28
sV\u6eab\u6545\u77e5\u65b0
p1767
I1
sV\u8996\u91ce
p1768
I1
sV\u7ad9
p1769
I15
sV\u89f8\u78b0
p1770
I1
sV\u955c
p1771
I1
sV\u52dd\u6230
p1772
I1
sV\u5373\u5df2
p1773
I1
sV\u5feb
p1774
I5
sV\u9068\u904a
p1775
I2
sV\u88e1\u5916
p1776
I1
sV\u6b64\u8655
p1777
I1
sV\u8981\u653e
p1778
I1
sV\u8d95\u5feb
p1779
I2
sV\u800c\u4ea1
p1780
I1
sV\u6bcd\u89aa
p1781
I8
sV\u6642
p1782
I51
sV\u7b11\u9768
p1783
I1
sV\u767c\u63ee
p1784
I1
sV\u8fc7
p1785
I2
sV\u63a8
p1786
I1
sV\u9078\u64c7
p1787
I13
sVDAS
p1788
I1
sV\u8bb8
p1789
I1
sV\u5305\u570d
p1790
I1
sV170hp
p1791
I1
sV\u505a\u4f5c
p1792
I1
sV\u8a8d\u8b58\u5230
p1793
I1
sV\u8a18\u5f97
p1794
I1
sV\u6b63
p1795
I3
sV\u7b2c\u516d
p1796
I2
sV\u591a\u6b21
p1797
I1
sV\u4e2d\u91ab
p1798
I5
sV\u52a0\u500d
p1799
I1
sV\u8d77
p1800
I7
sV\u6230\u7565
p1801
I7
sV\u9304\u97f3
p1802
I1
sV\u817f
p1803
I4
sV\u773c\u5149
p1804
I2
sV\u5730\u65ac\u6bba
p1805
I1
sV\u514d\u75ab
p1806
I7
sV\u5916\u79d1
p1807
I1
sV\u6297
p1808
I1
sV\u597d\u767c\u65bc
p1809
I1
sV\u9020
p1810
I1
sV\u767c\u5c55
p1811
I28
sV\u547d\u7387
p1812
I1
sV\u6c34\u7bb1
p1813
I1
sV\u5929\u908a
p1814
I1
sV\u505a\u70ba
p1815
I2
sV\u96d9\u8272
p1816
I1
sV\u5efa\u9020
p1817
I1
sV\u54c1\u724c
p1818
I8
sV\u79d1
p1819
I3
sV\u6d77\u6ec4
p1820
I2
sV\u9650\u5ea6
p1821
I1
sV\u82d7
p1822
I1
sV\u932f\u8aa4
p1823
I1
sV\u5176
p1824
I24
sV\u5fb9\u5e95
p1825
I2
sV\u5343\u5e74
p1826
I1
sV\u665a\u4e0a
p1827
I4
sV\u4e8b\u7269
p1828
I1
sV\u694a\u59d3
p1829
I2
sV\u65e8\u5728
p1830
I1
sV\u6490\u5927
p1831
I2
sV\u7121
p1832
I6
sV\u7e3d\u9ad4
p1833
I1
sV+
p1834
I24
sVSedan
p1835
I2
sV\u9999\u6c34
p1836
I1
sV\u722c\u5347
p1837
I1
sV\u6d3e\u7cfb
p1838
I1
sV\u8d99\u745e\u6d77
p1839
I1
sV\u5f15\u9032
p1840
I2
sV\u7279\u88fd
p1841
I2
sV\u88dc\u511f\u8cbb
p1842
I4
sV\u4e5f
p1843
I123
sV\u6b61\u6a02
p1844
I1
sV\u4e0d\u4e00\u5b9a
p1845
I1
sV\u795e\u5077
p1846
I1
sV\u8179\u4e2d
p1847
I2
sV\u822a\u7a7a\u968a
p1848
I1
sV\u6700\u540e
p1849
I1
sV\u4ee3\u8868
p1850
I11
sV\u5e95
p1851
I4
sVCTA
p1852
I1
sV\u7e2b\u7dda
p1853
I5
sV\u885b\u751f\u7f72
p1854
I1
sV\u70cf\u514b\u862d
p1855
I1
sVStar
p1856
I2
sV\u5077\u5929\u63db\u65e5
p1857
I1
sV\u5e0c\u5e0c
p1858
I7
sV\u706b\u82b1
p1859
I1
sV\u7a7f\u8d8a
p1860
I5
sV\u6eff\u4e09
p1861
I1
sV\u56de\u6625
p1862
I5
sV\u5169\u6975\u5316
p1863
I1
sV\u4f9d\u6cd5
p1864
I3
sV\u8846
p1865
I2
sV\u767e\u5206\u4e4b\u4e00\u767e
p1866
I2
sV\u300aGQ\u300b2014
p1867
I1
sV\u63a5\u4efb
p1868
I1
sV\u82b1\u4e86
p1869
I1
sV\u665a
p1870
I1
sV\u88c2\u9699
p1871
I1
sV\u723d\u6717
p1872
I1
sV\u592a\u719f
p1873
I1
sV\u53b2\u8072
p1874
I1
sV\u4eba\u8eca
p1875
I1
sV1999
p1876
I1
sV\u75c0\u50c2
p1877
I1
sV\u660e\u5929
p1878
I6
sV\u5716\u7247
p1879
I6
sV\u52a0\u6e6f
p1880
I1
sV\u6c92\u4eba
p1881
I1
sV\u5927\u632f
p1882
I1
sV\u5edd\u6bba
p1883
I1
sV\u800c\u70ba
p1884
I1
sV\u8c9e
p1885
I1
sV\u7d44\u8b6f
p1886
I1
sV\u63a5\u4e0b
p1887
I1
sV\u57fa\u7763\u6559\u5f92
p1888
I2
sV\u570b\u8ecd
p1889
I2
sVNewswire
p1890
I2
sV\u80ce\u5152
p1891
I4
sV\u8d70\u8def
p1892
I1
sV\u4e09\u842c
p1893
I1
sV\u4eca
p1894
I1
sV\u5144\u5f1f
p1895
I3
sV\u8def\u7dda
p1896
I1
sV\u9ad4\u6aa2
p1897
I1
sV\u79d1\u76ee
p1898
I1
sV\u5584\u826f
p1899
I3
sV\u7dca\u5f35
p1900
I1
sV\u5927\u584a
p1901
I1
sV\u88fd\u7247
p1902
I2
sV\u4e03\u842c\u4e09\u5343
p1903
I2
sV\u8a18\u61b6
p1904
I2
sV\u66f9\u654f\u5152
p1905
I2
sV\u75c5\u53f2
p1906
I1
sV\u7b56\u5283
p1907
I2
sVEye
p1908
I1
sV\u795e\u529f
p1909
I1
sV\u518d
p1910
I29
sV\u300c
p1911
I195
sV\u540c\u4f34
p1912
I1
sV\u6c59\u67d3
p1913
I1
sV\u75c5\u5012
p1914
I1
sV\u91ab\u9662
p1915
I9
sV\u5ba3\u5e03
p1916
I2
sV\u4e0b\u964d
p1917
I1
sV\u5370\u8c61
p1918
I4
sV\u6c34
p1919
I1
sV\u5708
p1920
I1
sV\u8f3f\u60c5
p1921
I1
sV\u56de\u6559
p1922
I33
sV\u65c5
p1923
I1
sV\u5171\u8b58
p1924
I1
sV\u8dd1\u5165
p1925
I1
sV\u624d\u80fd
p1926
I8
sV\u7cb5\u5287
p1927
I2
sV\u512a\u50f9
p1928
I1
sV\u96e3
p1929
I2
sV\u57ce\u9580
p1930
I1
sV\u61f7\u8457
p1931
I1
sV\u767c\u5e03
p1932
I1
sV\u7a81\u7136
p1933
I6
sV\u9077\u56de
p1934
I2
sV\u95dc\u6ce8
p1935
I4
sV\u50cf\u662f
p1936
I15
sV\u6280
p1937
I1
sV\u770b\u6de1
p1938
I1
sV\u88dc\u5df1\u4e4b\u77ed
p1939
I1
sV\u536f\u91d8
p1940
I1
sV\u5947\u5999
p1941
I1
sV\u5c0f\u8179
p1942
I1
sV\u64d4\u4fdd
p1943
I5
sV\u5927\u6012
p1944
I1
sV\u9999\u6e2f
p1945
I18
sV\u986f\u793a\u51fa
p1946
I1
sV\u865b\u5be6
p1947
I1
sV\u4fb5\u7565
p1948
I3
sV\u90e8\u5206
p1949
I3
sV\u65e5\u4ee5\u7e7c\u591c
p1950
I1
sV\u97cc\u5ea6
p1951
I1
sV\u57ce
p1952
I2
sV\u4e0d\u9700
p1953
I3
sV\u570b\u8d85
p1954
I1
sVCarlo
p1955
I1
sV\u62ab\u85a9
p1956
I1
sV\u59a5\u7576\u6027
p1957
I3
sV\u5c11\u5403
p1958
I1
sV\u63e1\u611f
p1959
I1
sV\u5c55\u89bd
p1960
I2
sV\u4e0b\u9762
p1961
I1
sV\u5de6\u773c
p1962
I2
sV\u5df7\u9928
p1963
I1
sV\u653e\u5728
p1964
I1
sV\u4e0d\u96c5
p1965
I1
sV\u9f4a\u805a\u4e00\u5802
p1966
I1
sV\u541b\u58eb\u5766\u4e01\u5821
p1967
I1
sV9400
p1968
I1
sV\u5e74\u756b
p1969
I1
sV\u51b7
p1970
I1
sV\u516d\u4eba\u884c
p1971
I7
sV\u96d9\u8173
p1972
I1
sV\u86d9\u5175
p1973
I1
sV\u68b3\u5316\u9593
p1974
I2
sV\u6c11\u65cf
p1975
I1
sVB
p1976
I1
sV\u63a2\u7d22
p1977
I2
sV\u696d\u754c
p1978
I1
sV\u5b50
p1979
I1
sV\u5831\u8003
p1980
I3
sV\u932f\u8996
p1981
I1
sV\u52a0\u6cb9
p1982
I1
sV\u6a5f\u6703
p1983
I5
sV\u8ddf
p1984
I22
sV\u4e2d\u5c71\u5340
p1985
I2
sV\u54e5
p1986
I2
sV\u4e9e\u6d32
p1987
I3
sV\u5940
p1988
I2
sV\u514d\u6536
p1989
I1
sV\u9996\u5834
p1990
I1
sV\u932f\u89ba
p1991
I1
sV\u5e36\u8457
p1992
I1
sV\u592b\u4eba
p1993
I1
sV\u5e7e
p1994
I2
sVQ1
p1995
I1
sVQ2
p1996
I1
sV\u64d4\u4efb
p1997
I8
sV\u7368\u5bb6
p1998
I1
sV\u89aa\u81ea
p1999
I2
sV\u773c\u775b
p2000
I8
sV\u5fd7\u9858
p2001
I3
sV\u5f8c\u8005
p2002
I1
sV\u540c\u4e8b
p2003
I2
sV\u865f\u53ec
p2004
I3
sV\u4e0d\u9650
p2005
I1
sV\u8272\u5f69
p2006
I2
sV\u8a0a\u865f
p2007
I1
sV\u91cc
p2008
I1
sV\u652f\u7701
p2009
I1
sV\u56de\u64cb
p2010
I1
sVSide
p2011
I1
sV\u53ee\u5f97
p2012
I1
sV\u9019\u7aef
p2013
I1
sV\u7fa9\u5927\u5229
p2014
I1
sV\u7d00\u9304
p2015
I1
sV\u4e00\u4e0b
p2016
I4
sV\u6b0a
p2017
I2
sV\u5341\u4e8c
p2018
I1
sV\u6230\u4e82
p2019
I1
sV\u5468\u672b
p2020
I1
sV\u8fc5\u901f
p2021
I2
sV\u6697
p2022
I1
sV\u9023\u7d50\u5230
p2023
I1
sV\u73fe\u8c61
p2024
I6
sV\u771f\u7684
p2025
I8
sV\u6bd4\u65b9\u8aaa
p2026
I2
sV\u4f0a\u65af\u862d\u6559
p2027
I4
sV\u8eca\u8ff7
p2028
I1
sV\u5176\u4ed6
p2029
I36
sV\u62cd\u651d
p2030
I9
sV\u904b\u7b97
p2031
I2
sV\u65c1
p2032
I1
sV\u5f37\u5f37
p2033
I1
sV\u85e5\u5e2b
p2034
I1
sVde
p2035
I1
sV\u885d\u9ad8
p2036
I1
sV\u6392\u9664
p2037
I1
sV\u6838\u96fb
p2038
I4
sV\u7e7c\u627f\u4eba
p2039
I1
sV\u689d\u4ef6
p2040
I2
sV\u5f85\u5728
p2041
I2
sV\u7d66
p2042
I8
sV\u8180\u80f1
p2043
I4
sV\u592a\u786c\u6642
p2044
I1
sV\u62ac\u817f
p2045
I1
sV\u8b80\u66f8
p2046
I2
sV\u5341\u4e00
p2047
I1
sV\u5341\u4e03
p2048
I2
sV\u6230\u4e14
p2049
I1
sV\u90a3\u7fa4
p2050
I1
sV\u7165\u7136\u4e00\u65b0
p2051
I1
sV\u62b1\u6b49
p2052
I1
sV\u4e00\u4e9b
p2053
I11
sV\u7de9\u89e3
p2054
I2
sV\u6563\u77b3\u5291
p2055
I1
sV\u5ba3\u7a31
p2056
I1
sV\u4e8b\u767c
p2057
I1
sV\u5927\u6613
p2058
I1
sV\u904e\u7bc0
p2059
I1
sV\u9577\u671f
p2060
I5
sV\u66f9\u4e15
p2061
I4
sV\u98a8\u5730
p2062
I1
sV\u8eca\u8f1b
p2063
I3
sV\u5176\u4e2d
p2064
I6
sV\u60f3\u6cd5
p2065
I5
sV\u5c31\u8b80
p2066
I2
sV\u81ea\u4fe1
p2067
I1
sV\u4e00\u4ef6
p2068
I2
sV\u5982\u4f9d\u6b64
p2069
I1
sVcom
p2070
I2
sV\u5feb\u6a02
p2071
I3
sV\u81ea\u4e3b
p2072
I1
sV\u9084\u8981
p2073
I2
sV\u87a2\u5149\u5e55
p2074
I2
sV\u900f\u904e
p2075
I9
sV\u9031\u5e74
p2076
I1
sV\u4f46\u7576
p2077
I1
sV\u9762\u8c8c
p2078
I1
sV\u9928
p2079
I1
sV\u898f\u7bc4
p2080
I3
sV\u672c
p2081
I51
sV\u9996\u5e74
p2082
I1
sV\u591a\u51fa
p2083
I2
sV\u9867\u554f
p2084
I3
sV\u7dca\u5be6
p2085
I1
sV\u81ea\u4e00
p2086
I1
sV\u7a81\u767c
p2087
I1
sV\u82e5\u662f
p2088
I1
sV\u6291\u5236
p2089
I1
sV\u7814\u7a76
p2090
I1
sV\u8eab\u4e0a
p2091
I3
sV\u904e
p2092
I8
sV\u7d93\u5e74\u7d2f\u6708
p2093
I1
sV\u54e1
p2094
I1
sV\u6539\u62cd\u6210
p2095
I2
sV\u904e\u7a0b
p2096
I13
sV\u8e0f\u4e0a
p2097
I1
sV\u9650\u5b9a
p2098
I1
sV\u5947\u5e7b
p2099
I1
sV\u9996\u5e2d
p2100
I1
sV\u6cd5\u7c4d
p2101
I1
sV\u8d70
p2102
I3
sV\u79fb\u5c45
p2103
I1
sV\u8eca\u8eab
p2104
I2
sV\u5fc3\u8df3
p2105
I1
sV\u8b66\u793a
p2106
I1
sV\u4e0d\u9069
p2107
I2
sV\u591a\u5143
p2108
I1
sV\u4e0d\u9075
p2109
I1
sV\u4fdd\u5bc6
p2110
I1
sV\u8a71\u4f86
p2111
I2
sV\u6216\u8a31
p2112
I2
sV\u4e0d\u904e
p2113
I10
sV\u4eba\u8a00
p2114
I1
sV\u571f\u5730
p2115
I2
sV\u5927\u6703
p2116
I1
sV\u5951\u7d04
p2117
I3
sV\u5973\u4e3b\u89d2
p2118
I1
sV\u4fee\u7df4
p2119
I1
sV\u5c0e\u5f15
p2120
I14
sV\u8eab\u4efd
p2121
I2
sV\u76ee\u7684
p2122
I5
sV\u4e09\u5206\u4e4b\u4e00
p2123
I1
sV\u81f3\u4eca
p2124
I2
sV\u5289\u748b
p2125
I2
sV\u9ad4\u6eab
p2126
I3
sV\u9053\u8def
p2127
I2
sV\u5370\u8c61\u6df1\u523b
p2128
I1
sV\u4fdd\u5b88
p2129
I1
sVBurberry
p2130
I1
sV\u6df7\u6fc1
p2131
I3
sV\u91cd\u91cd
p2132
I1
sV1600
p2133
I1
sV1970
p2134
I1
sV\u9ec3\u66fc\u7469
p2135
I1
sV\u6c92\u95dc\u4fc2
p2136
I1
sV\u98fe
p2137
I4
sV\u8b8a\u6210
p2138
I3
sV\u9685
p2139
I1
sV\u5929\u6c23
p2140
I2
sV\u914d\u4e0a
p2141
I3
sV\u8a08\u8207
p2142
I1
sV\u9577\u6587
p2143
I1
sV\u7d55\u5c0d
p2144
I4
sV\u85a9\u54c8\u723e
p2145
I6
sV\u592a
p2146
I11
sV\u9806\u66a2
p2147
I3
sV\u57fa\u7763\u6559
p2148
I5
sV\u9084\u8acb
p2149
I2
sV\u6307\u6a19
p2150
I1
sV\u885d\u7a81
p2151
I10
sV\u7f8e\u597d
p2152
I2
sV\u53e6\u4e00\u4f4d
p2153
I1
sV\u767e\u5b98
p2154
I1
sV\u6158\u906d
p2155
I1
sV\u5ea7\u8259
p2156
I1
sV\u5c4d\u9ad4
p2157
I2
sV\u91ab\u5b78\u7cfb
p2158
I2
sV\u7a46\u590f\u62c9\u592b
p2159
I1
sV\u827e\u7f8e
p2160
I2
sV\u6a02\u89c0\u5176\u6210
p2161
I1
sV\u7c21\u55ae
p2162
I1
sV\u975e\u66b4\u529b
p2163
I1
sV\u66f9\u6cbb\u90a6
p2164
I1
sV\u8340\u5f67
p2165
I5
sV\u6575\u4eba
p2166
I1
sV\u54c1\u5473
p2167
I1
sV/
p2168
I24
sV\u6578\u64da
p2169
I1
sV\u5e73\u7d20
p2170
I1
sV\u52d5\u614b
p2171
I5
sV\u76f8\u9023
p2172
I1
sV\u4e0d\u932f
p2173
I2
sV\u56de\u61c9
p2174
I1
sV\u73fe\u8eab
p2175
I2
sV\u518d\u65bc
p2176
I1
sV\u660e\u5e74
p2177
I3
sV\u5e74\u70ba
p2178
I1
sV\u70e4
p2179
I2
sV\u6709\u7528
p2180
I1
sV\u6975\u7aef
p2181
I3
sV\u6975
p2182
I1
sV\u4e2a
p2183
I9
sV\u5f15\u767c
p2184
I9
sV\u5927\u65b9
p2185
I1
sV\u81fa\u7063
p2186
I3
sV\u71b1\u91cf
p2187
I1
sV\u8a72\u4e0d\u8a72
p2188
I1
sV\u5496\u5561
p2189
I1
sV\u53cb\u5584
p2190
I1
sV\u6d89\u7375
p2191
I1
sV\u529b\u6c23
p2192
I3
sV\u5b89\u5168
p2193
I3
sV\u62dc
p2194
I1
sV\u694a\u60e0\u9f8d
p2195
I1
sV\u5177\u5099
p2196
I1
sV\u5c0b\u5922
p2197
I1
sV\u66a2\u6240\u6b32\u8a00
p2198
I1
sV\u7528\u5230
p2199
I1
sV\u5f35\u4e09
p2200
I1
sV\u8fdb
p2201
I1
sV\u5b6b\u6625\u9f8d
p2202
I4
sV\u7aa9\u5728
p2203
I1
sV\u662f\u4e0d\u662f
p2204
I3
sV\u5e7b\u6ec5
p2205
I1
sV\u62b5\u79a6
p2206
I1
sV\u6587\u5b57
p2207
I5
sV\u8005
p2208
I15
sV\u591a\u534a
p2209
I4
sV\u65b9\u9762
p2210
I14
sV\u9f13\u52f5
p2211
I3
sV\u6578\u65e5
p2212
I1
sV\u91d1\u79a7\u5728
p2213
I1
sV\u7136\u6b64
p2214
I1
sV\u6392\u51fa\u91cf
p2215
I1
sV\u6587\u5b78
p2216
I2
sV\u8056\u6230
p2217
I16
sV\u66f4\u986f
p2218
I1
sV\u9192\u4f86
p2219
I4
sV\u8a5e\u4e2d
p2220
I1
sV\u65e5\u7dda
p2221
I1
sV\u70ba
p2222
I63
sV\u61c9\u4ed8
p2223
I1
sV\u97ff\u61c9
p2224
I2
sV\u8b8a\u63db
p2225
I1
sV\u8e64\u8de1
p2226
I1
sV\u540c\u76df
p2227
I1
sV\u4f5b
p2228
I1
sV\u65bd\u5c0f\u8a08
p2229
I1
sV\u4e3b\u6f14
p2230
I3
sV\u6613\u7d93
p2231
I1
sV\u5175\u63f4
p2232
I1
sV\u6587\u5b78\u5bb6
p2233
I2
sV\u7528\u528d
p2234
I1
sV\u7279
p2235
I2
sV\u5967\u85a9\u746a
p2236
I2
sV\u3010
p2237
I27
sV\u9f4a\u9f4a
p2238
I1
sV\u4f1a
p2239
I10
sV\u66dd\u5149
p2240
I7
sV\u66f4\u63db
p2241
I1
sV\u7f8e\u570b
p2242
I19
sV\u77ad\u89e3
p2243
I6
sV\u901a\u77e5
p2244
I1
sV\u5fc3\u80ba
p2245
I1
sVchinatimes
p2246
I1
sV\u963f\u6a02\u4f86
p2247
I1
sV\u840c\u751f
p2248
I3
sV\u670d\u52d9
p2249
I14
sV\u52f8\u8aaa
p2250
I1
sV\u7f77\u5de5
p2251
I1
sV\u6fc3\u70c8
p2252
I1
sV\u518d\u6b21
p2253
I1
sV\u674e\u6cbb\u5ef7
p2254
I2
sV\u9762\u81e8
p2255
I3
sV\u6253\u7f75
p2256
I1
sV\u6587\u548c
p2257
I1
sV\u5ba3\u544a
p2258
I1
sV\u8f49\u5316\u7387
p2259
I1
sV\u7a7a\u529b
p2260
I2
sV\u58eb\u5b98\u9577
p2261
I1
sV\u8208\u8d77
p2262
I1
sV\u592a\u786c
p2263
I1
sV\u9a5a\u8a1d
p2264
I1
sV\u9080\u8acb\u5230
p2265
I1
sV\u6587\u544a
p2266
I1
sV\u9802\u7d1a
p2267
I1
sV\u6709\u9451\u65bc
p2268
I1
sV\u5927\u6a13
p2269
I1
sV\u5bb6\u9109
p2270
I4
sV\u963b\u585e
p2271
I1
sV\u671f\u8a31
p2272
I1
sV\u8a2a\u554f
p2273
I2
sV\u963f
p2274
I2
sV\u8996\u795e\u7d93
p2275
I1
sV\u9810\u8cfc
p2276
I2
sV\u58eb\u5927\u592b
p2277
I1
sV\u5206\u985e
p2278
I2
sV\u591a\u5c11
p2279
I1
sV\u53ee\u54ac
p2280
I3
sV\u5f15\u9818
p2281
I1
sV\u60f3\u60f3
p2282
I1
sV\u51fa\u4f86
p2283
I3
sV\u548c\u695a\u5b89
p2284
I1
sV\u725b\u8c6c
p2285
I2
sV\u7121\u6240\u4e8b\u4e8b
p2286
I1
sV\u5fc3\u8072
p2287
I1
sV\u77db\u76fe
p2288
I1
sV\u6709\u6642\u5019
p2289
I1
sV\u9593
p2290
I5
sV\u865b\u5047
p2291
I1
sV\u9732\u6c34
p2292
I1
sV\u9577\u5f97
p2293
I2
sV\u6307\u6578
p2294
I1
sV\u9650\u91cf\u7248
p2295
I1
sVF
p2296
I1
sV\u4f9d\u64da
p2297
I5
sV\u9078\u5230
p2298
I1
sV\u632b\u6298
p2299
I3
sV\u6253\u91dd
p2300
I2
sV\u4f46\u4e09\u4eba
p2301
I1
sV\u624b\u8853
p2302
I11
sV\u8ddf\u96a8
p2303
I2
sV\u5b98\u7db2
p2304
I1
sV\u51fa\u4e16
p2305
I2
sV\u5947\u529f
p2306
I1
sV\u5f0f
p2307
I5
sV\u4e8c\u5341\u4e00\u4e16\u7d00
p2308
I1
sV\u8f15\u6613
p2309
I1
sV\u51fa\u4efb
p2310
I2
sV\u5de8\u661f
p2311
I2
sV\u4e8c\u7528\u820c
p2312
I1
sV\u8eca\u8272
p2313
I1
sV\u5085\u99ff
p2314
I1
sV\u984d\u5916
p2315
I2
sV\u8fd4\u8001\u9084\u7ae5
p2316
I1
sV\u52d5\u4e82
p2317
I1
sV\u89c0
p2318
I2
sV\u5275\u59cb\u4eba
p2319
I2
sVView
p2320
I1
sV\u5178\u578b
p2321
I4
sV\u7cbe\u795e
p2322
I3
sV\u51fa\u4e86
p2323
I2
sV\u8edf\u5f31
p2324
I1
sV\u98ef\u7cf0
p2325
I2
sV\u9996\u5148
p2326
I2
sV\u4e82\u670d
p2327
I1
sV\uff0e
p2328
I6
sV\u5317\u6297
p2329
I1
sV\u7be1\u6539
p2330
I1
sV\u8d85\u4e4e
p2331
I2
sV\u7238\u5abd
p2332
I1
sV\u6843\u5712
p2333
I1
sV\u5305\u62ec
p2334
I27
sV\u9752\u9752
p2335
I1
sV\u70ba\u738b
p2336
I1
sV\u62cb\u958b
p2337
I1
sV\u5927\u689d
p2338
I1
sV\u7522\u696d\u754c
p2339
I1
sV\u6230
p2340
I3
sV\u6148\u5584
p2341
I4
sV\u9031\u5167
p2342
I1
sV\u4f5c\u7528
p2343
I4
sV\u9326\u4e0a\u6dfb\u82b1
p2344
I1
sV\u56de\u6d41
p2345
I2
sV\u7d04\u9054
p2346
I1
sV\u7279\u8272
p2347
I2
sV\u521d\u8449
p2348
I1
sV\u756a
p2349
I2
sV\u9760\u8457
p2350
I2
sV\u7ac4\u6539
p2351
I1
sV\u5403\u5230
p2352
I1
sV\u4e4b\u4f5c
p2353
I1
sV\u4e03
p2354
I4
sV\u63aa\u65bd
p2355
I5
sV\u5175\u6e90
p2356
I1
sV\u6700\u5f8c
p2357
I9
sV\u53ee\u56d1
p2358
I2
sV\u5e74\u4e4b\u969b
p2359
I1
sV\u4e3b\u6253
p2360
I2
sV\u8d85\u4e56
p2361
I1
sV\u731b\u653b
p2362
I1
sV\u53ea\u5f97
p2363
I1
sV\u6545\u61c9\u4ee5
p2364
I1
sV\u591a\u5e74
p2365
I1
sV\u4f9d\u672c
p2366
I3
sV\u87f9\u8089
p2367
I1
sV\u64ad\u9001
p2368
I2
sV\u5230\u9054
p2369
I1
sV\u53ee\u5680
p2370
I4
sV\u552f\u4e00
p2371
I8
sV\u62f3\u64ca
p2372
I2
sV\u52a0\u6536
p2373
I1
sV\u6b66\u5668
p2374
I5
sV\u6c11\u773e
p2375
I19
sV\u7e3d\u7d50
p2376
I1
sV\u6700\u5feb
p2377
I1
sV\u81ea\u8a00\u81ea\u8a9e
p2378
I1
sV\u91ab\u5b78\u6703
p2379
I1
sV\u696d
p2380
I11
sV\u6c34\u716e
p2381
I1
sV\u5c11\u5c07
p2382
I1
sV\u975a\u9177
p2383
I1
sV\u7269\u50f9
p2384
I1
sV\u8f83
p2385
I1
sV\u79fb\u5230
p2386
I1
sV\u7ba1\u63a7
p2387
I2
sV\u4e4b\u4e2d
p2388
I2
sV\u5291
p2389
I1
sV\u5f90\u5982\u5100
p2390
I1
sV\u800c\u7a31
p2391
I1
sV\u6b63\u7576
p2392
I1
sV\u4e4b\u4e0b
p2393
I5
sV\u4e4b\u4e0a
p2394
I2
sV\u95dc\u65bc
p2395
I9
sV\u60a3\u8005
p2396
I13
sV\u82b1
p2397
I8
sV\u7cd6\u5c3f\u75c5
p2398
I1
sV\u5927\u6982
p2399
I2
sV\u53bb
p2400
I13
sV\u505c\u7528
p2401
I1
sV\u57ce\u6b63
p2402
I1
sV\u906d\u53d7
p2403
I2
sV\u505c\u7559
p2404
I1
sV\u8c6a\u83ef
p2405
I1
sV\u5ee0\u5546
p2406
I4
sV\u8868\u8c61
p2407
I1
sV\u8001\u5e74\u4eba
p2408
I1
sV\u5e74\u7d00
p2409
I1
sV\u9080\u8acb\u51fd
p2410
I1
sV\u662f\u975e
p2411
I1
sV\u96c4\u6027
p2412
I1
sV\u7a81\u7834
p2413
I5
sV\u58eb\u5175
p2414
I3
sV\u91c7\u6d01
p2415
I1
sVMail
p2416
I1
sV\u6536\u5165
p2417
I1
sV\u8fb2\u7530
p2418
I2
sV\u9752\u6625\u671f
p2419
I1
sV\u684c\u524d
p2420
I1
sV\u96c6\u5718
p2421
I5
sV\u5de6\u53f3\u624b
p2422
I1
sV\u7248\u5716
p2423
I1
sV\u7121\u5984\u5366
p2424
I3
sV\u9867\u5ba2
p2425
I2
sV\u896f\u6258
p2426
I1
sV]
p2427
I1
sV\u4fbf\u662f
p2428
I3
sV\u5167
p2429
I15
sV\u653f\u6b0a
p2430
I5
sV\u7522\u751f
p2431
I12
sV\u83ef\u661f
p2432
I1
sV\u6700\u591a
p2433
I2
sV\u5152\u5b50
p2434
I7
sV\u6700\u5927
p2435
I3
sV\u53ea\u591a
p2436
I1
sV\u53eb\u904e\u4f86
p2437
I1
sV\u599d\u5bb9
p2438
I1
sV\u6234
p2439
I3
sV\u8edf\u5ae9
p2440
I1
sV\u5929\u660e
p2441
I1
sV\u6e05\u723d\u6e6f
p2442
I1
sV\u64da\u7a31
p2443
I1
sV\u53ea\u597d
p2444
I1
sV\u8932\u5b50
p2445
I3
sV\u61c9
p2446
I15
sV\u7336\u8c6b
p2447
I1
sV\u56de\u6b78
p2448
I1
sV\u57fa\u790e
p2449
I3
sV\u60f3
p2450
I23
sV\u67ef\u7279
p2451
I1
sV\u9ad4\u6703
p2452
I1
sV\u5fc3\u7518\u60c5\u9858
p2453
I1
sV\u6700\u597d
p2454
I7
sV\u52a9\u653b
p2455
I1
sV\u904e\u73ed
p2456
I1
sV\u9023\u9023
p2457
I1
sV\u8aaa\u51fa\u53e3
p2458
I1
sV\u5165\u5b78
p2459
I3
sV\u4f8d\u61c9\u751f
p2460
I1
sV\u5ba3\u50b3
p2461
I1
sV\u751f\u7406
p2462
I5
sV\u8b9a
p2463
I1
sV\u671d
p2464
I1
sV\u578b\u614b
p2465
I2
sV\u65bd\u4f5c
p2466
I1
sV3
p2467
I27
sV\u8f5f\u70b8\u6a5f
p2468
I2
sV\u4fc2
p2469
I2
sV\u9650\u5236
p2470
I5
sV\u5373\u70ba
p2471
I4
sV\u5229\u591a
p2472
I1
sV\u5bb6\u9577
p2473
I6
sV\u4e00\u76d2
p2474
I1
sV\u6b0a\u70ba
p2475
I1
sV\u5c07\u4f86
p2476
I4
sV\u4e0a\u7576
p2477
I1
sV\u4eec
p2478
I8
sV\u9f8d\u8d8a
p2479
I1
sV\u53ef\u80fd\u6027
p2480
I2
sV\u4e0a\u5e1d
p2481
I1
sV\u65bd\u4ee5
p2482
I2
sV\u53ef\u7528
p2483
I1
sV\u5341\u4e09\u4e16\u7d00
p2484
I2
sV\u900f\u9732\u51fa
p2485
I1
sV\u522a
p2486
I1
sV\u4e09\u73ed
p2487
I1
sV\u5fb7
p2488
I2
sV\u773c
p2489
I5
sV\u5317\u65b9
p2490
I2
sV\u540d\u5eda
p2491
I1
sV\u7cbe\u7dfb
p2492
I1
sV\u5c0d\u4e0d\u8d77
p2493
I1
sV\u592a\u6975\u62f3
p2494
I2
sV\u8f6c
p2495
I2
sV\u770b\u6210
p2496
I2
sV\u504f\u5411
p2497
I1
sV\u751f\u5b58
p2498
I1
sV\u8a3b\u518a
p2499
I3
sV\u5438\u53d6
p2500
I1
sV\u8c01
p2501
I1
sV\u4e0d\u9867
p2502
I1
sV\u767c\u51fd
p2503
I1
sV\u5fc5\u8981
p2504
I5
sV\u6a5f\u69cb
p2505
I1
sV\u6240\u8a2d
p2506
I1
sV\u5e74\u7bc0
p2507
I1
sV\u4e2d
p2508
I69
sV\u4e26\u975e
p2509
I3
sV\u7f8e\u5287
p2510
I1
sV\u6d69\u6d69\u8569\u8569
p2511
I1
sV\u526f\u98df\u54c1
p2512
I1
sV\u99ac\u65af\u767b
p2513
I1
sV\u4e0d\u9858
p2514
I1
sV\u90ed\u70c8\u6210
p2515
I2
sV\u4e00\u76f4
p2516
I12
sV\u969c\u7919
p2517
I8
sV\u64f4\u5927
p2518
I4
sV\u8a34\u6c42
p2519
I2
sV\u5435\u67b6
p2520
I1
sV\u71df\u5e33
p2521
I1
sV\u628a\u63e1
p2522
I6
sV\u9806\u52e2
p2523
I1
sV\u6c11\u6b0a
p2524
I2
sV\u767d
p2525
I1
sV\u4e94\u5343
p2526
I1
sV\u4e94\u5341
p2527
I1
sV\u7f8e\u5473
p2528
I1
sV\u5feb\u610f
p2529
I1
sV\u5e02
p2530
I2
sV\u98db\u864e\u968a
p2531
I1
sV\u3014
p2532
I2
sV\u5f15\u64ce\u84cb
p2533
I1
sV\u5e6b\u5fd9
p2534
I3
sV\u96b1\u85cf
p2535
I1
sV\u6b66\u529b
p2536
I2
sV\u4fdd\u5065
p2537
I1
sV\u8a2a\u53cb
p2538
I1
sV\u9810\u8a08
p2539
I4
sV\u63c9
p2540
I1
sV\u7642\u7a0b
p2541
I1
sV\u85e5
p2542
I1
sV4000rpm
p2543
I1
sV\u7d44\u88dd\u6210
p2544
I1
sV\u7d0d\u667a\u6377
p2545
I7
sV\u529b\u6575
p2546
I1
sV\u5b0c\u984f
p2547
I1
sV\u505c\u706b
p2548
I2
sV\u9580\u4e0a
p2549
I1
sV\u91d1\u79a7\u5e36
p2550
I1
sV\u632b\u6557
p2551
I1
sV\u9ad8\u5c04\u7832
p2552
I1
sVE
p2553
I2
sV\u518d\u6dfb
p2554
I1
sV\uff21
p2555
I2
sV\u767c\u52d5
p2556
I4
sV\u9673\u963f\u88d5
p2557
I1
sV\u52a8
p2558
I2
sV\u56db\u5206\u4e4b\u4e00
p2559
I1
sV\u504f\u8892
p2560
I2
sV\u6309\u7167
p2561
I1
sV\u6709\u7d19
p2562
I1
sV\u8ca1\u653f\u90e8\u9577
p2563
I1
sV\u67d3\u8272
p2564
I1
sV\u7b2c\u516b
p2565
I1
sV\u4fe1\u7bb1
p2566
I3
sV\u5927\u53cd\u5f48
p2567
I1
sV\u756b\u5c55
p2568
I2
sV\u65c5\u6cd5
p2569
I1
sV\u91d1\u7403\u734e
p2570
I1
sV\u4e2d\u6a1e\u795e\u7d93
p2571
I1
sV\u5118\u7ba1
p2572
I2
sV\u6c42\u6cbb
p2573
I1
sV\u7f3a\u9435
p2574
I1
sV\u9b54\u5e7b
p2575
I3
sV\u6aa2\u9644
p2576
I1
sV\u9f20
p2577
I1
sV\u5ffd\u8996
p2578
I1
sV\u91d1\u79a7\u5f97
p2579
I2
sV\u6885\u52d2\u4e39
p2580
I1
sV\u77e5\u8b58
p2581
I2
sV\u516b\u5341\u5e74
p2582
I2
sV\u6389\u5165
p2583
I1
sV\u9577\u6c99
p2584
I1
sV\u6548\u529b
p2585
I2
sV\u8607\u598d\u83c1
p2586
I1
sV\u5438\u51fa
p2587
I6
sV\u5750
p2588
I6
sV\u5154
p2589
I6
sV\u5fc3\u8840\u7ba1
p2590
I3
sV\u4f9b\u7d66
p2591
I2
sV\u52dd\u5229
p2592
I3
sV600
p2593
I5
sV\u5ef6\u7e8c
p2594
I2
sV\u65c1\u908a
p2595
I1
sV\u597d\u4e0d\u5bb9\u6613
p2596
I3
sV\u9015
p2597
I1
sV\u5f35\u5146\u8f1d
p2598
I2
sV\u96f6\u4ef6
p2599
I1
sV\u53ef\u8aaa\u662f
p2600
I3
sV\u5ba2\u89c0
p2601
I1
sV\u4f5c\u70ba
p2602
I5
sV\u6307\u63ee
p2603
I1
sV\u66f4\u9060
p2604
I1
sV\u63ed\u793a
p2605
I1
sV\u6587\u5316
p2606
I5
sV\u7ad9\u898f
p2607
I1
sV\u81c9\u66f8
p2608
I1
sV\u5b9a\u7fa9
p2609
I5
sV\u6307\u63a7
p2610
I1
sV\u4e2d\u83ef\u6c11\u570b
p2611
I6
sV\u5b89\u59ae
p2612
I1
sV\u62b1\u6028
p2613
I5
sV\u7687\u53d4
p2614
I1
sV\uff0a
p2615
I4
sV\u53db\u8ecd
p2616
I1
sV\u6b65\u69cd
p2617
I1
sV\u4e16\u4ee3
p2618
I4
sV\u63a5\u5f85
p2619
I1
sV\u722c
p2620
I1
sV\u5c4b\u9f61
p2621
I1
sV\u5e7e\u4f55\u5b78
p2622
I1
sV\u9f4a
p2623
I1
sV\u8f03\u591a
p2624
I1
sV\u7d30\u7bc0
p2625
I3
sV\u9694\u96e2
p2626
I1
sV\u7b2c\u4e09\u4eba
p2627
I3
sV\u51fa\u570b
p2628
I1
sV\u53ef\u8a66
p2629
I1
sV\u6236\u653f\u53f8
p2630
I1
sV\u4e16\u4eba
p2631
I2
sV\u6eff
p2632
I3
sV\u5403
p2633
I14
sV\u7684
p2634
I1256
sV\u8e0f\u5be6
p2635
I1
sV\u81ea\u5bb6
p2636
I1
sV\u6253\u67b6
p2637
I2
sV\u7df4\u904e
p2638
I1
sV\u722d\u8ad6
p2639
I2
sV\u6c34\u6b0a
p2640
I2
sV\u50f9\u503c
p2641
I3
sV\u56d1\u5490
p2642
I1
sV\u738b\u5141
p2643
I1
sV\u8abf\u9ad8
p2644
I1
sV\u7e23\u5e02
p2645
I2
sV\u5f35
p2646
I1
sV\u5230\u8a2a
p2647
I1
sV\u76f8\u8655
p2648
I2
sV\u9577\u9ed1
p2649
I1
sV\u679c\u771f
p2650
I1
sV\u570b\u969b\u7d1a
p2651
I1
sV\u6d41\u884c
p2652
I1
sV\u57fa\u65bc
p2653
I2
sV\u4e00\u4e5d\u4e8c
p2654
I2
sV\u9ede\u5fc3
p2655
I1
sV\u672b\u671f
p2656
I2
sV\u9ad8\u71b1\u91cf
p2657
I1
sV\u9060\u5f81\u8ecd
p2658
I1
sV\u963f\u570b
p2659
I5
sV\u6ce1\u8299
p2660
I1
sV\u7684\u8a71
p2661
I4
sV\u79ae\u8c8c
p2662
I1
sV\u7f8e\u4e2d
p2663
I1
sV\u5176\u5be6
p2664
I12
sV\u53ef\u8b02
p2665
I1
sV\u694a\u6b63\u4efb
p2666
I1
sV\u9759
p2667
I1
sV\u8ce3\u76f8
p2668
I1
sV\u4e0d\u70ba\u904e
p2669
I1
sV\u5927\u73a9
p2670
I1
sV\u7d0d\u667a\u5091
p2671
I1
sV\u5fa9\u539f
p2672
I1
sV\u95dc\u7fbd
p2673
I3
sV\u4e4b\u540d
p2674
I1
sV\u5ee3\u6cdb
p2675
I1
sV\u65e5\u5e38\u751f\u6d3b
p2676
I3
sV\u8332
p2677
I1
sV\u722d\u8b70
p2678
I6
sV\u5927\u738b
p2679
I3
sV\u4fbf
p2680
I5
sV\u904e\u6e21
p2681
I2
sV\u62cd
p2682
I3
sV\u98a8\u96aa
p2683
I2
sV\u6628\u5929
p2684
I2
sV\u89d2\u819c
p2685
I1
sV\u53cd\u5f48
p2686
I3
sV\u523a\u6fc0\u6027
p2687
I1
sV\u53f3\u5074
p2688
I1
sV\u5b98\u65b9
p2689
I3
sV\u9673\u5eb7\u5e73
p2690
I1
sV\u675c\u6668
p2691
I3
sV\u9001
p2692
I4
sV\u7b49\u591a
p2693
I1
sV\u767e\u5206\u4e4b\u767e
p2694
I1
sV\u89e3\u653e\u8ecd
p2695
I2
sV\u52d9\u5fc5
p2696
I5
sV\u8f5f\u52d5\u4e00\u6642
p2697
I1
sV\u6b98\u7559
p2698
I1
sV\u77ac\u9593
p2699
I3
sV\u5bf6\u5bf6
p2700
I10
sV\u4e00\u5b9a
p2701
I10
sV\u6709\u6240
p2702
I3
sV\u6559\u7fa9\u6d3e
p2703
I1
sV\u8208\u8da3
p2704
I1
sV\u893b
p2705
I1
sV\u6703\u4e0d\u6703
p2706
I1
sV\u964d\u96e8
p2707
I1
sV\u4e0a\u684c
p2708
I1
sV\u6642\u9593
p2709
I20
sV\u7d9c\u5408
p2710
I3
sV\u773c\u7f69
p2711
I1
sV\u6297\u65e5
p2712
I1
sV\u56db\u7528
p2713
I1
sV\u826f\u597d
p2714
I1
sV\u5927\u734e
p2715
I1
sV\u6c34\u5229\u8655
p2716
I2
sV\u4ec0\u4e48
p2717
I1
sV\u9707\u9a5a
p2718
I1
sV\u65bd\u51fa
p2719
I1
sV\u5ee2\u9435
p2720
I2
sV\u6587\u4ef6
p2721
I3
sV\u4e8b\u60c5
p2722
I7
sV\u53cd\u5c0d
p2723
I7
sV\u71e6\u721b
p2724
I1
sV\u808c\u8089
p2725
I4
sV\u8de8\u8d8a
p2726
I1
sV\u4e00\u5834
p2727
I3
sV\u9019\u53e5\u8a71
p2728
I1
sV\u57fa\u672c
p2729
I5
sVVictorias
p2730
I1
sV\u904e\u6d3b
p2731
I1
sV\u771f\u60c5
p2732
I1
sV\uff5e
p2733
I5
sV\u651c\u5e36
p2734
I2
sV\u9023\u8eca
p2735
I1
sV\u908a\u754c
p2736
I8
sV\u9000\u8272
p2737
I1
sV\u7687\u51a0
p2738
I1
sV\u6230\u58eb
p2739
I8
sV\u6d41\u8a00
p2740
I1
sV\u54c8\u9ed8
p2741
I3
sV\u5e73\u53f0
p2742
I1
sV\u8fb2\u6c11
p2743
I4
sV\u89d2\u8272
p2744
I2
sV\u80fd\u5920
p2745
I6
sV\u5718
p2746
I1
sV\u4ea8
p2747
I1
sV\u7b2c\u5341
p2748
I4
sV\u8ac7\u5224
p2749
I1
sV\u7e3d\u88c1
p2750
I3
sV7
p2751
I3
sV\u89c0\u5ff5
p2752
I2
sV\u90a3\u8f29\u4eba
p2753
I1
sV\u9019\u6bb5
p2754
I2
sV\u64d4\u5fc3
p2755
I7
sV\u9748\u611f
p2756
I1
sV\u5f35\u5b9a
p2757
I2
sV\u624b
p2758
I3
sV\u70ba\u6b62
p2759
I3
sV\u6709\u610f
p2760
I5
sV\u986f\u8457
p2761
I1
sV\u57f7\u884c\u5b98
p2762
I1
sV\u53ee\u4eba
p2763
I1
sV\u4eca\u5929
p2764
I17
sV\u96c6\u4e2d
p2765
I3
sV\u6297\u66f9
p2766
I1
sV\u6881\u5bb6\u8f1d
p2767
I2
sV\u4fee\u6b63
p2768
I1
sV\u6536\u6524
p2769
I1
sV\u5632\u7b11
p2770
I1
sV\u660e
p2771
I4
sV\u7167\u9867
p2772
I2
sV\u7d71\u4e00
p2773
I2
sV\u93e1\u7247
p2774
I1
sV\u9019\u6a23
p2775
I14
sV\u4e00\u5929
p2776
I1
sV\u559c\u6b61
p2777
I8
sV5200rpm
p2778
I1
sV\u808c\u819a
p2779
I1
sV\u5340
p2780
I3
sV\u5341\u4e00\u6708
p2781
I1
sV\u8eab\u4e0d\u7531\u5df1
p2782
I1
sV\u6bb7\u742a
p2783
I1
sV\u25cf
p2784
I4
sV\u6cd5
p2785
I3
sV\u80a1\u4efd
p2786
I3
sV\u8ac7\u53ca
p2787
I1
sV\u5ba3\u4f48
p2788
I1
sV\u59ca\u59b9
p2789
I2
sV\u6536\u6548
p2790
I1
sV\u6aa2\u8a0e
p2791
I1
sV\u800c\u624b
p2792
I1
sV\u9593\u9694
p2793
I1
sV\u61f7
p2794
I1
sV\u63a1\u53d6
p2795
I3
sV\u4e00\u5982
p2796
I2
sV\u8cb7\u85e5
p2797
I1
sV\u5907
p2798
I2
sV\u8006\u90a3\u6559
p2799
I1
sV\u96d9\u91c7
p2800
I3
sV\u9748\u9b42
p2801
I1
sV\u522a\u9664
p2802
I1
sV\u7a69\u5065
p2803
I1
sV\u8521\u798f\u8b9a
p2804
I1
sV\u6642\u4e8b
p2805
I1
sV\u51fa\u54c1
p2806
I1
sV\u8a31\u8afe
p2807
I1
sVliu
p2808
I1
sV\u5206\u6b0a
p2809
I1
sV\u7d93\u5e38
p2810
I7
sVThe
p2811
I5
sV\u5931\u53bb
p2812
I1
sV\u5b88\u8b77
p2813
I1
sV\u8010\u5fc3
p2814
I1
sV\u5df4
p2815
I1
sVx100
p2816
I1
sV\u4e0d\u81f4
p2817
I3
sV\u53ea\u4e0d\u904e
p2818
I3
sV\u25a1
p2819
I5
sV\u8eab\u5f62
p2820
I1
sV\u6216\u4ee5
p2821
I1
sV\u6d77\u9f8d
p2822
I2
sV\u6c23\u5019
p2823
I1
sV\u8eab\u5f71
p2824
I1
sV\u91ab\u5b78\u79d1
p2825
I1
sV\u77e5\u9053
p2826
I14
sV\u521d\u9a57
p2827
I1
sV\u5634\u89d2
p2828
I2
sV\u4eca\u5f8c
p2829
I1
sV\u8840\u7ba1
p2830
I1
sV\u540c\u597d
p2831
I1
sV\u5927\u632a\u79fb
p2832
I1
sV\u4e4b\u5149
p2833
I1
sV\u6750\u6599
p2834
I1
sVx
p2835
I1
sV\u8eab\u5fc3
p2836
I1
sV\u767c\u4f5c
p2837
I1
sV\u6771\u5f81
p2838
I5
sVVerne
p2839
I1
sV\u51fa\u53f0
p2840
I1
sV\u4fee\u6cd5
p2841
I1
sV\u5de5\u4eba
p2842
I4
sV\u4e00\u5ea6
p2843
I2
sV\u99dd\u5cf0
p2844
I1
sV\u4e8c\u4eba
p2845
I3
sV\u771f\u662f
p2846
I2
sV\u4f48\u7f6e
p2847
I1
sV\u751f\u6c23
p2848
I1
sV\u554f\u984c\u9ede
p2849
I1
sV\u5b30\u5152
p2850
I3
sV\u7a7a\u4e2d
p2851
I1
sV\u5f8c\u9762
p2852
I1
sV\u50ac\u4fc3
p2853
I1
sV\u89d2\u843d
p2854
I1
sV\u8ca1\u7522\u6b0a
p2855
I9
sV\u898f\u6a21
p2856
I1
sV\u7d93\u5929
p2857
I1
sV\u6536\u62fe
p2858
I1
sV\u5c79\u7acb
p2859
I1
sV\u5e78\u798f
p2860
I6
sV\u4e0a\u6d77
p2861
I3
sV\u5927\u660e\u661f
p2862
I1
sV\u5f71\u97ff
p2863
I26
sV\u5341\u5e74
p2864
I2
sV\u4e0a\u6d77\u5e02
p2865
I1
sV\u5df4\u58eb
p2866
I1
sV\u5341\u5e7e
p2867
I1
sV\u7db2\u819c
p2868
I1
sV\u79c1\u4e0b
p2869
I1
sV\u6545\u969c
p2870
I1
sV\u8881\u8853
p2871
I3
sV\u61c9\u5c0d
p2872
I1
sV\u592a\u65e9
p2873
I4
sV\u4e0d\u80fd
p2874
I6
sV\u6070\u6070
p2875
I2
sV\u6708\u591c\u98a8\u9ad8
p2876
I1
sV\u898b\u76d2
p2877
I1
sV\u59b3
p2878
I12
sV\u4e0b\u8154
p2879
I2
sV\u5f37\u51a0
p2880
I2
sV\u25cb
p2881
I3
sV\u6703\u8b70\u5ba4
p2882
I1
sV\u8cfa\u9322
p2883
I1
sV\u95dc\u7bc0
p2884
I2
sV\u76e3\u7406\u7ad9
p2885
I1
sV\u8f03\u5c11
p2886
I1
sV\u6559\u5f92
p2887
I6
sV\u88dd\u4e0a
p2888
I1
sV\u5317\u7def
p2889
I1
sV\u50b3\u5230
p2890
I1
sV\u6307\u793a
p2891
I1
sV\u505c\u6b62
p2892
I3
sVmatch
p2893
I1
sV\u4eba\u9ad4
p2894
I1
sV\u4e00\u5f79
p2895
I1
sV\u73cd\u59ae\u4f5b
p2896
I1
sV\u5927\u773e
p2897
I1
sV\u8cc4\u8cc2
p2898
I1
sV\u6709\u6642
p2899
I5
sVPhotographed
p2900
I3
sV\u751f\u6d3b
p2901
I21
sV\u52d5\u529b
p2902
I6
sV\u885b\u798f\u90e8
p2903
I4
sV\u4eca\u5e74
p2904
I10
sV\u8aaa
p2905
I66
sV\u932f
p2906
I1
sV\u5c31
p2907
I99
sV\u79d1\u6280
p2908
I18
sV\u8840\u7d71
p2909
I3
sV\u79c1\u4eba
p2910
I1
sV\u5361\u5728
p2911
I1
sV\u6298\u5c04
p2912
I1
sV\u66f2\u7f8e
p2913
I1
sV\u6d17\u9762
p2914
I1
sV\u85e5\u4f86
p2915
I1
sV\u70ba\u6c42
p2916
I1
sV\u5047\u65e5
p2917
I1
sV\u9707\u64bc
p2918
I3
sV\u4eba\u99ac
p2919
I1
sV\u5185
p2920
I2
sV\u660e\u4eae
p2921
I1
sV\u5b9a\u6642
p2922
I2
sV\u6a02\u898b
p2923
I1
sV\u4e0d\u52dd\u679a\u8209
p2924
I2
sVFans
p2925
I1
sV\u8655\u65b9
p2926
I5
sV\u4e0d\u597d\u610f\u601d
p2927
I1
sV\u5ea6\u6578
p2928
I1
sV\u6297\u6230
p2929
I9
sV\u6a02\u89c0
p2930
I3
sVWaiter
p2931
I1
sV\u518d\u7528
p2932
I1
sV\u547c\u5438
p2933
I1
sV\u982d\u4e0a
p2934
I1
sV\u540d\u5e94\u8be5\u662f\u96ea\u82ac
p2935
I1
sV\u540c\u5b78
p2936
I1
sV\u6562
p2937
I2
sV\u7d30\u7dfb
p2938
I1
sV\u6c92\u843d
p2939
I1
sV\u56e0\u7070\u592a\u72fc
p2940
I1
sV\u9075\u7167
p2941
I1
sV\u4f5c\u696d
p2942
I1
sV\u4f46\u662f
p2943
I21
sV\u5c07
p2944
I45
sV\u677e\u5c71
p2945
I1
sV\u6709\u6548
p2946
I6
sV\u4f5c\u6cd5
p2947
I1
sV\u6797\u9593
p2948
I1
sV\u6230\u5c07
p2949
I1
sV\u91d1\u79a7
p2950
I20
sV\u6709\u9650\u516c\u53f8
p2951
I2
sV\u89c0\u5bdf
p2952
I6
sV\u50b3\u51fa
p2953
I5
sV\u5f81\u6230
p2954
I1
sVAMD
p2955
I2
sV\u4e0a\u6f32
p2956
I3
sV\u7db2
p2957
I3
sV\u62c6\u9664
p2958
I1
sV\u4e0d\u8350
p2959
I1
sV\u8fd1\u4f86
p2960
I1
sV\u53ef\u8cb7
p2961
I1
sV\u5168\u5fc3\u5168\u610f
p2962
I2
sV\u8a5e\u5f59
p2963
I1
sV\u6559\u5c0e
p2964
I2
sV\u6c38\u9060
p2965
I3
sV\u81ea\u5df1
p2966
I26
sV\u88d4
p2967
I1
sV\u63d0\u9192
p2968
I3
sV\u694a\u60e0\u9f8d\u82b1
p2969
I1
sV\u7a31\u8077
p2970
I1
sV\u7279\u9ed8
p2971
I2
sV\u6d88\u606f
p2972
I7
sV\u81fa
p2973
I1
sV\u8ab9\u8b17
p2974
I1
sV\u89c0\u6469
p2975
I1
sV\u800c\u662f
p2976
I4
sV\u6eff\u5834
p2977
I1
sV\u671f\u9593
p2978
I3
sV\u4e91
p2979
I1
sV\u8b93
p2980
I55
sV\u5345\u4e94
p2981
I1
sV\u7b49\u5f85
p2982
I1
sV\u7ad9\u9593
p2983
I1
sV\u6c5f\u897f
p2984
I1
sV\u962e\u7d93\u5929
p2985
I2
sV\u5982\u6b32\u65bc
p2986
I1
sV\u81ea\u8ca0\u8a00\u8cac
p2987
I1
sV\u5ed6\u932b\u5b89
p2988
I1
sV\u4e94\u4e09\u5e74
p2989
I1
sV\u4e0d\u6b62
p2990
I1
sV\u7d14\u7cb9
p2991
I1
sV\u5982\u8af8\u4f4d
p2992
I1
sV\u4e03\u4e16\u7d00
p2993
I3
sV\u652f\u63f4
p2994
I2
sV\u55ae\u8eca
p2995
I1
sV\u9aa8\u9abc
p2996
I1
sV\u5b9a\u6703
p2997
I1
sV\u904e\u6839
p2998
I1
sV\u5b9a\u671f
p2999
I2
sV\u52d9
p3000
I1
sV\u4e3b\u7fa9
p3001
I3
sV\u52a0\u78bc
p3002
I1
sV\u773c\u79d1
p3003
I8
sV\u9805\u5ea6
p3004
I1
sV\u8868\u9054
p3005
I9
sV\u655e\u7bf7
p3006
I1
sV\u806f\u59fb
p3007
I1
sV\u512a\u5f85
p3008
I1
sV\u9ad4\u7cfb
p3009
I1
sV\u53d6\u6d88
p3010
I3
sV\u7522\u696d
p3011
I1
sV\u4e0d\u826f
p3012
I2
sV\u66f2\u7dda
p3013
I2
sV\u6e1d\u6587
p3014
I7
sV\u6234\u4e0a
p3015
I1
sV\u64b0\u6587
p3016
I8
sV\u6025
p3017
I1
sVA1
p3018
I1
sVA2
p3019
I1
sVA9
p3020
I6
sVA8
p3021
I6
sV\u7b11\u7a31
p3022
I1
sV\u4e4b\u52e2
p3023
I1
sV\u9b54\u9b3c
p3024
I1
sV\u7701\u5206
p3025
I1
sV\u652f\u6301
p3026
I7
sV\u6ecb\u5473
p3027
I2
sV\u8fd1\u4ee3
p3028
I1
sV\u6027\u9060
p3029
I1
sV\u6a5f\u7387
p3030
I5
sV\u5b55\u5a66
p3031
I5
sV\u5357\u4eac
p3032
I7
sV\u596e\u9b25
p3033
I1
sV\u5f37\u5316
p3034
I3
sV\u4eba\u985e
p3035
I4
sV\u6279
p3036
I3
sV\u5171\u9ee8
p3037
I1
sV\u9152\u8089
p3038
I1
sV\u56f0\u60d1
p3039
I1
sV\u5f85
p3040
I1
sV\u8870\u6557
p3041
I1
sV\u65c5\u7a0b
p3042
I1
sV\u6230\u529b
p3043
I1
sV\u4e4b\u5d29
p3044
I1
sV\u5916
p3045
I11
sV\u4fb5\u8972
p3046
I1
sV\u66f9\u5289
p3047
I1
sV\u51fa\u9053
p3048
I1
sV\u4e00\u5230
p3049
I1
sV\u70cf\u8332\u5225\u514b\u88d4
p3050
I1
sV\u9130\u8fd1
p3051
I5
sV\u904e\u672c
p3052
I1
sV\u770b\u8d77\u4f86
p3053
I2
sV\u5708\u5b50
p3054
I1
sV\u6797\u6dfb\u9032
p3055
I1
sV\u6bcd
p3056
I1
sV\u7b97\u8d77\u4f86
p3057
I1
sVfacebook
p3058
I1
sV\u4e0d\u8db3
p3059
I7
sV\u5165\u4fb5
p3060
I2
sV\u4e2d\u570b\u4eba
p3061
I2
sV\u6d88\u6ec5
p3062
I1
sV\u5fe0\u5fc3
p3063
I1
sV\u7a69\u5b9a
p3064
I5
sV\u770b\u770b
p3065
I2
sV\u9a6c
p3066
I1
sV\u5927\u7ad9
p3067
I3
sV\u544a\u6025
p3068
I1
sV\u66ff
p3069
I1
sV\u7b49\u5019
p3070
I1
sV\u966a
p3071
I1
sV\u5341\u5206
p3072
I7
sV\u7642\u6cd5
p3073
I5
sV\u9996
p3074
I2
sV\u4ea4
p3075
I2
sV\u751f\u6027
p3076
I1
sV;
p3077
I2
sV\u6c92\u60f3\u5230
p3078
I1
sV\u7247
p3079
I4
sV\u5bb6\u4e09\u53e3
p3080
I1
sV\u6709\u6b0a
p3081
I2
sV\u6211\u6015
p3082
I1
sV\u9756
p3083
I2
sV\u9192\u904e\u4f86
p3084
I2
sV\u842c\u8d77
p3085
I1
sV\u5bd2\u820d
p3086
I2
sV\u52d5\u5fc3
p3087
I1
sV\u7642\u6cbb
p3088
I3
sV\u5831\u9a57
p3089
I2
sV\u8b66\u65b9
p3090
I2
sV\u898b
p3091
I1
sV\u5171\u901a
p3092
I1
sV\u6212
p3093
I7
sV\u8eab\u61f7\u516d\u7532
p3094
I1
sV\u6d41\u9f3b\u6c34
p3095
I1
sV\u5448\u73fe
p3096
I4
sV\u5f85\u7acb
p3097
I1
sV\u7b97\u662f
p3098
I1
sV\u8996\u7269
p3099
I1
sV\u7b2c
p3100
I3
sV\u80fd\u529b
p3101
I9
sV\u8e29\u4e0b
p3102
I1
sV\u8ca0\u64d4
p3103
I3
sV\u76f8\u8fd1
p3104
I2
sV\u4e00\u5343
p3105
I1
sV\u4e0d\u8ca0
p3106
I3
sV\u4e00\u534a
p3107
I2
sV\u7a0d
p3108
I1
sV\u76ee\u6a19
p3109
I8
sV\u6838\u96fb\u5ee0
p3110
I13
sVMITSUBISHI
p3111
I1
sV\u6109\u6085
p3112
I2
sV\u8cbb
p3113
I1
sV\u7d55\u5927\u90e8\u5206
p3114
I1
sV\u4e4b\u5c40
p3115
I1
sV\u4ee5
p3116
I61
sV\u53d6\u6368
p3117
I1
sV\u8aaa\u660e
p3118
I5
sV\u7db2\u8def
p3119
I11
sV\u5e6b
p3120
I5
sV\u63a2\u671b
p3121
I1
sV\u963f\u5e03\u90fd
p3122
I1
sV\u6b63\u5e38\u4eba
p3123
I1
sV\u751f\u610f
p3124
I2
sV\u58d3\u7e2e
p3125
I3
sV\u5f88\u58de
p3126
I1
sV\u8ca1\u52d9\u9577
p3127
I4
sVhttp://news.chinatimes.com
p3128
I1
sV\u6821
p3129
I1
sV\u5927\u7b11
p3130
I1
sV\u6df1\u523b
p3131
I2
sV\u5b55\u5410
p3132
I2
sV\u4e0b\u8dcc
p3133
I1
sV\u512a\u5148
p3134
I1
sV\u4e0a\u5ec1\u6240
p3135
I4
sV\u8ac7\u5920
p3136
I1
sV\u5371\u96aa
p3137
I3
sV\u773c\u770b
p3138
I2
sV\u9910\u5ef3
p3139
I2
sV\u5176\u532a
p3140
I1
sV\u7e41\u884d
p3141
I1
sV\u4e09\u6708
p3142
I1
sV\u85dd\u6587
p3143
I1
sV\u5b57
p3144
I2
sV\u7af9\u6771
p3145
I2
sV\u81ea\u52d5
p3146
I2
sV\u8ac7\u597d
p3147
I1
sV\u7a31\u70ba
p3148
I3
sV\u8607\u8cbb
p3149
I1
sV\u5f88\u9577
p3150
I1
sV\u5927\u7b46
p3151
I1
sV\u4e00\u53f0
p3152
I1
sV\u5927\u76e4
p3153
I1
sV\u570b\u969b
p3154
I21
sV\u771f\u6b63
p3155
I9
sV\u9808\u77e5
p3156
I1
sV\u4f30\u7b97
p3157
I1
sV\u8e0f\u5165
p3158
I1
sV\u807d\u773e
p3159
I1
sV\u8457\u624b
p3160
I1
sV\u7c97\u7377
p3161
I1
sV\u7d66\u8db3
p3162
I1
sV\u512a\u52e2
p3163
I1
sV\u591a\u4ee5
p3164
I2
sV\u7c89\u7d72
p3165
I1
sVBuffet
p3166
I1
sV\u71b1\u8ce3
p3167
I1
sV\u53cd\u5411
p3168
I1
sV\u6703\u8b70
p3169
I3
sV\u4e4b\u5f1f
p3170
I1
sV\u5f70\u986f
p3171
I1
sV\u4eba\u9593
p3172
I2
sV\u5efa\u8a2d
p3173
I1
sV\u800c\u6b64
p3174
I1
sV\u500b\u6027
p3175
I4
sV\u4e0a\u63da
p3176
I3
sV\u738b\u5ba4
p3177
I1
sV\u885b\u751f
p3178
I1
sV\u59ea\u5973
p3179
I1
sV\u525b\u6703
p3180
I1
sV\u50c5\u5b58
p3181
I1
sV\u64a4\u92b7
p3182
I1
sV\u7c89\u7d05
p3183
I5
sV\u71df\u990a\u5e2b
p3184
I1
sV\u98fc\u6599
p3185
I3
sV\u6700\u4f73
p3186
I9
sV\u5c16\u92b3
p3187
I1
sV\u5728\u610f
p3188
I1
sV\u53f8\u5f92
p3189
I1
sV\u5fc3\u614b
p3190
I1
sV\u5e03
p3191
I1
sV\u81e8\u9580
p3192
I2
sV\u8cb7\u8ce3
p3193
I4
sV\u6709\u8a71
p3194
I1
sV\u525b\u67d4
p3195
I1
sV\u9ad8\u8840\u58d3
p3196
I1
sV\u591a\u4e45
p3197
I2
sV\u8ce3\u7d66
p3198
I4
sV\u6b66\u88dd
p3199
I2
sV\u5b88\u820a
p3200
I1
sV\u4e26\u4e0d\u662f
p3201
I1
sV\u5ee3\u6771
p3202
I2
sV\u6536\u6cbb
p3203
I1
sV\u5bcc
p3204
I1
sV\u6b21
p3205
I29
sV\u2027
p3206
I7
sV\u5546\u6a19\u6b0a
p3207
I2
sV\u7b49\u5230
p3208
I3
sV\u4e4b\u5f8c
p3209
I20
sV\u5357\u65b9
p3210
I1
sV\u738b\u5b50
p3211
I1
sV\u773c\u7403
p3212
I6
sV\u653e\u4e86
p3213
I1
sV\u5f8c\u77e5\u5f8c\u89ba
p3214
I1
sV\u904e\u65bc
p3215
I1
sV\u62dc\u5340
p3216
I1
sV\u525b
p3217
I2
sV\u54ea\u88e1
p3218
I4
sV\u5f8c\u907a\u75c7
p3219
I1
sV\u95b1\u5831
p3220
I1
sV\u4e73\u9178
p3221
I1
sV\u7a2e\u7a2e
p3222
I2
sV\u800c\u6bcd
p3223
I1
sV\u53ef\u80fd
p3224
I23
sV\u6df1\u5165
p3225
I1
sV\u884c\u9032
p3226
I1
sV\u9818\u5148
p3227
I1
sV\u7206
p3228
I1
sV\u6b4c\u8def
p3229
I1
sV\u6eff\u542b
p3230
I1
sV\u4e3b\u6cbb\u91ab\u5e2b
p3231
I3
sV\u5be6\u7528
p3232
I1
sV\u5c1a
p3233
I1
sV\u5efa\u8b70
p3234
I19
sV\u8463\u4e8b\u6703
p3235
I1
sV\u88dc\u8cbc
p3236
I1
sV\u54f2\u5b78
p3237
I1
sV\u5927\u798d
p3238
I1
sV\u4e09\u65e5
p3239
I1
sV\u6df7\u8840\u5152
p3240
I1
sV\u6703\u8a08
p3241
I4
sV\u9019\u90e8
p3242
I1
sV\u89aa\u9935
p3243
I1
sVR
p3244
I2
sV\u5f9e\u800c
p3245
I1
sV\u50b3\u5c0e
p3246
I1
sV\u524d\u666f
p3247
I1
sV\u6f14\u5531\u6703
p3248
I1
sV\u4e0b\u8f09
p3249
I8
sV\u65e9\u4e0a
p3250
I1
sV\u5927\u79c0
p3251
I1
sV\u5716\u6848
p3252
I1
sV\u9839\u52e2
p3253
I1
sV\u4e8b\u696d
p3254
I4
sV\u6b50\u967d
p3255
I2
sV\u7528\u4ee5
p3256
I2
sV\u81ea\u62cd
p3257
I1
sV\u653f\u7b56
p3258
I3
sV\u6309\u6469
p3259
I1
sV\u5927\u5927
p3260
I1
sV\u5340\u5206
p3261
I1
sV\u6182\u9b31\u75c7
p3262
I1
sV\u5f8b\u5e2b
p3263
I3
sV\u4ece
p3264
I2
sV\u65b0\u4e00\u4ee3
p3265
I2
sV\u6d77\u9078
p3266
I2
sV\u600e\u9ebc\u6a23
p3267
I1
sV\u5272\u5730
p3268
I1
sV\u6700\u4ee4
p3269
I1
sV\u5341\u516b
p3270
I1
sV\u6b63\u6587
p3271
I7
sV\u56db\u6280\u4e8c\u5c08
p3272
I1
sV\u5e73\u606f
p3273
I1
sV\u773c\u754c
p3274
I1
sV\u8f15\u9b06
p3275
I2
sV\u5927\u5925
p3276
I1
sV\u57fa\u696d
p3277
I1
sV\u6c34\u679c
p3278
I2
sV\uff02
p3279
I2
sV\u5b85
p3280
I1
sV\u5fc5\u9808
p3281
I20
sV\u806f\u5289
p3282
I1
sV\u3008
p3283
I3
sV\u9ea5\u52a0
p3284
I2
sV\u6514\u622a
p3285
I1
sV\u53cb\u4eba
p3286
I2
sV\u89d2\u8cea
p3287
I1
sV(
p3288
I45
sV\u56f0\u64fe
p3289
I4
sV\u72f9\u7a84
p3290
I1
sV\u4e4b\u5916
p3291
I3
sV\u4e4b\u591a
p3292
I1
sV\u4e0d\u53ef\u601d\u8b70
p3293
I1
sV\u6558\u5229\u4e9e
p3294
I2
sV\u5fe0\u5be6
p3295
I2
sV\u62b5\u6297
p3296
I3
sV\u8457\u7f85\u5b0c
p3297
I1
sV\u5341\u56db
p3298
I2
sV\u8d70\u9032
p3299
I1
sV\u4e0d\u8981
p3300
I11
sV\u88c1\u526a
p3301
I1
sV\u71b1\u8aa0
p3302
I1
sV\u63a5\u53d7
p3303
I9
sV\u5fe0\u5fc3\u803f\u803f
p3304
I2
sV\u62ff
p3305
I4
sV\u827e\u6587
p3306
I3
sV\u7d93\u5178
p3307
I4
sV\u7a81\u5982\u5176\u4f86
p3308
I1
sV\u975e\u5e38
p3309
I9
sV\u6df1\u5733
p3310
I1
sV\u4f9d\u7136
p3311
I1
sV\u7de0\u7d04
p3312
I1
sV\u7ba1\u7406
p3313
I5
sV\u5531
p3314
I4
sV\u5341\u5b57\u8ecd
p3315
I4
sV\u6563\u88dd
p3316
I1
sV\u75c5\u4eba
p3317
I4
sV\u64fa\u52d5
p3318
I1
sVerne
p3319
I1
sV\u5403\u8c46\u8150
p3320
I1
sV\u6ea2\u65bc\u8a00\u8868
p3321
I1
sV\u5230\u8655
p3322
I1
sV\u53ca
p3323
I55
sV\u559c\u611b
p3324
I2
sV\u4e00\u5ea7
p3325
I1
sV\u4fb5\u6b0a
p3326
I1
sV\u91cd\u88fd
p3327
I4
sV\u4e4b\u59ff
p3328
I1
sV\u5931\u7720\u75c7
p3329
I3
sV\u4f9d\u7167
p3330
I1
sV\u5473\u5168
p3331
I2
sV\u653f\u8ad6
p3332
I1
sV\u627e
p3333
I4
sV\u5a5a\u5f8c
p3334
I3
sV\u61c9\u5411
p3335
I1
sV\u975e\u5f97
p3336
I1
sV\u670b\u53cb
p3337
I3
sV\u91cd\u8907
p3338
I1
sV\u611f\u89ba
p3339
I13
sV\u5916\u64e6
p3340
I1
sV\u8b39\u614e
p3341
I1
sV\u62ac\u982d
p3342
I1
sV\u97d3\u570b\u4eba
p3343
I1
sV\u81e8\u5e8a
p3344
I4
sV\u51b3
p3345
I3
sV\u60f3\u7528
p3346
I1
sV\u7af6\u722d\u529b
p3347
I4
sV\u6eff\u5206
p3348
I1
sV\u65e5\u672c
p3349
I5
sV\u50f9\u5dee
p3350
I1
sV\u5148
p3351
I8
sV\u81ed\u81c9
p3352
I1
sV\u7a2e\u985e
p3353
I1
sV\u8acb\u8af8
p3354
I1
sV\u7279\u9577
p3355
I1
sV\u90a3\u6642
p3356
I1
sV\u8aaa\u6210
p3357
I1
sV\u90a3\u665a
p3358
I1
sV\u65e5\u671f
p3359
I6
sV\u525b\u6027
p3360
I1
sV\u7acb\u9ad4
p3361
I4
sV\u751f\u65e5
p3362
I5
sV\u9009
p3363
I2
sV\u5f15\u8d77
p3364
I9
sV\u5c55\u9732
p3365
I1
sV\u63a5\u5230
p3366
I1
sV\u505c\u6389
p3367
I1
sV\u91cd\u8981
p3368
I15
sV\u63d0\u9ad8
p3369
I1
sV\u96a8\u8457
p3370
I6
sV\u5099\u8a3b
p3371
I1
sV\u91cd\u8996
p3372
I1
sV\u7537\u4f5b
p3373
I1
sV\u8cbc\u5fc3
p3374
I1
sV\u5f37\u5927
p3375
I1
sV\u73cd\u73e0
p3376
I1
sV\u6551\u52a9
p3377
I1
sV\u5d17\u4f4d
p3378
I1
sV\u5be6\u73fe
p3379
I7
sV\u65b9\u53ef
p3380
I1
sV\u806f\u8abc\u6703
p3381
I4
sV\u62d8\u675f
p3382
I1
sV\u751f\u6548
p3383
I1
sV\u5e73\u6642
p3384
I5
sV\u756b\u4f5c
p3385
I6
sV\u7c21\u4ecb
p3386
I5
sV\u76f4\u5230
p3387
I2
sV\u71df\u4e2d
p3388
I1
sV\u963f\u85a9\u745e\u4e9e
p3389
I2
sV\u4e00\u4f4d
p3390
I1
sV\u904b\u7528
p3391
I1
sV\u591c\u665a
p3392
I2
sV\u53c8\u6216\u5219\u8fd9\u4e48
p3393
I1
sV\u4e00\u540c
p3394
I4
sV\u7de3\u6545
p3395
I1
sV\u7db2\u8a8c
p3396
I1
sV\u591a
p3397
I14
sV\u50b3\u5947
p3398
I2
sV\u5340\u57df
p3399
I3
sV\u8b70\u984c
p3400
I2
sV\u89c0\u5366
p3401
I1
sV\u5eab
p3402
I5
sV\u6ef2\u900f\u5165
p3403
I1
sV\u61c9\u5c11
p3404
I1
sV\u9818\u547d
p3405
I1
sV\u7919\u96e3
p3406
I2
sV\u4e03\u5341
p3407
I1
sV\u90e8\u4efd
p3408
I1
sV\u9060\u6771
p3409
I1
sV\u90f5\u5bc4
p3410
I1
sV\u6c7a\u7b56
p3411
I2
sV\u521d\u9078
p3412
I3
sV\u78ba\u4fdd
p3413
I4
sV\u73fe\u968e\u6bb5
p3414
I1
sV\u4e0b
p3415
I25
sVU6
p3416
I22
sV\u6232\u5287
p3417
I2
sV\u4e0a\u6708
p3418
I1
sV\u52a9\u7720
p3419
I1
sV\u6de1\u51fa
p3420
I1
sV\u8cc8\u62c9\u6751
p3421
I2
sV\u5206\u6b67
p3422
I1
sV\u8010\u529b
p3423
I1
sV\u8c37
p3424
I2
sV?
p3425
I3
sV\u5728\u65bc
p3426
I3
sV\u4fdd\u8b77
p3427
I5
sV\u6253
p3428
I2
sV\u4e4b\u5bf6
p3429
I1
sV\u5df2\u65ac\u6bba
p3430
I1
sV\u76ae\u5c51
p3431
I2
sV\u5442\u8499
p3432
I1
sV\u5468\u7dda
p3433
I1
sV\u9748\u6d3b
p3434
I1
sV\u8702\u6e67
p3435
I2
sV\u5176\u540d
p3436
I1
sV\u7aef\u51fa
p3437
I2
sV\u518d\u7d93
p3438
I1
sV\u5c31\u91ab
p3439
I1
sV\u986f\u898b
p3440
I1
sV\u7c3d\u7f72
p3441
I1
sV\u5289
p3442
I1
sV\u6cd5\u662f
p3443
I2
sV\u98ef\u5f8c
p3444
I1
sV\u6771\u5433
p3445
I1
sV\u53e6\u5916
p3446
I8
sV\u5e6b\u52a9
p3447
I6
sV\u95dc
p3448
I12
sV\u60f6\u6050
p3449
I1
sV\u6709
p3450
I152
sV\u5c55\u958b
p3451
I3
sV\u5e36\u9818
p3452
I2
sV\u570b\u8853\u9928
p3453
I1
sV\u63db\u7b97\u6210
p3454
I1
sV\u7cfb\u7d71
p3455
I8
sV\u5b89\u7136
p3456
I1
sV\u96a8\u548c
p3457
I1
sV\u9019\u6642
p3458
I2
sV\u7af6\u722d
p3459
I9
sV\u6fc0\u6012
p3460
I1
sV\u6b21\u6578
p3461
I3
sV\u738b\u9038\u82af
p3462
I1
sVNAPPA
p3463
I2
sV\u79ef
p3464
I1
sV\u52a9\u76ca
p3465
I1
sV\u6df7
p3466
I1
sV\u4ecd\u5acc
p3467
I1
sV\u4f5c\u606f
p3468
I3
sV\u63d0\u524d
p3469
I1
sV\u61ff
p3470
I2
sV\u6a5f\u8eca
p3471
I6
sV\u611f\u8b1d
p3472
I2
sV\u4e5d\u4e00\u5e74
p3473
I1
sV\u9805
p3474
I10
sV\u4e0a\u6613
p3475
I1
sV\u6771\u548c
p3476
I1
sV\u65bd\u5c55
p3477
I1
sV\u80ce\u4f4d
p3478
I1
sV\u5927\u7d04
p3479
I2
sV\u5c45\u7136
p3480
I1
sV\u5fc3\u9748
p3481
I2
sV\u4fe1\u5fc3
p3482
I2
sV\u65e5\u65bc
p3483
I1
sV\u56de\u6a94
p3484
I1
sV\u9662\u5340
p3485
I1
sV\u6211\u6703
p3486
I4
sV\u90e8\u4f4d
p3487
I1
sV\u975e\u5546\u696d
p3488
I1
sV\u5b57\u5143
p3489
I1
sV\u4ea2\u9032
p3490
I2
sV\u5e7b\u89ba
p3491
I1
sV\u6d3b\u9748\u6d3b\u73fe
p3492
I1
sV\u51dd\u805a
p3493
I1
sVToledo
p3494
I1
sV\u57f7\u5c0e
p3495
I2
sVHonda
p3496
I2
sV\u822c
p3497
I2
sV\u6821\u5712
p3498
I1
sV\u6b64\u5916
p3499
I3
sV\u70ba\u9996
p3500
I1
sV\u573a
p3501
I2
sV\u592a\u967d\u7a74
p3502
I1
sV\u4e2d\u4e03
p3503
I1
sV\u6436\u596a
p3504
I1
sV\u8a18\u8005
p3505
I3
sV\u9818\u5c0e\u8005
p3506
I2
sV\u6295\u8cc7
p3507
I7
sV\u8881\u7d39
p3508
I4
sV\u57fa\u672c\u6b3e
p3509
I1
sV\u6708\u5366
p3510
I1
sV\u6a23\u6a23
p3511
I1
sV\u5546\u52d9
p3512
I5
sV\u300b
p3513
I41
sV\u63e1\u624b
p3514
I1
sV\u672c\u520a
p3515
I1
sV\u83ef\u8a9e
p3516
I1
sV\u809b\u9580
p3517
I1
sV\uff15
p3518
I2
sV\u300eDARK
p3519
I1
sV\u8b1d
p3520
I2
sV\u5168\u529b
p3521
I1
sV\u50be\u5411
p3522
I4
sV\u6210\u529f
p3523
I4
sV\u662f
p3524
I226
sV\u4ee5\u4fdd
p3525
I1
sV\u592a\u904e
p3526
I1
sV\u71b1\u7662
p3527
I1
sV\u500b\u9ad4
p3528
I2
sV\u983b\u7387
p3529
I1
sV\u6ce8\u5c04
p3530
I1
sV\u6b50\u6d32
p3531
I5
sV\u505a\u904e
p3532
I3
sV\u522a\u6539
p3533
I2
sV\u904b
p3534
I6
sV\u6d17\u624b
p3535
I1
sV\u4e0d\u7528
p3536
I8
sV\u53e3\u543b
p3537
I1
sV\u5165\u57ce
p3538
I1
sV\u6e90\u6e90\u4e0d\u7d55
p3539
I1
sV\u6559
p3540
I1
sV\u5171\u69cb
p3541
I3
sVdry
p3542
I1
sV\u8eca\u6b3e
p3543
I4
sV\u7562\u7adf
p3544
I5
sV\u4ee5\u4f86
p3545
I4
sV\u5148\u5929
p3546
I2
sV\u6d88\u9664
p3547
I2
sV\u4e2d\u4eba
p3548
I2
sV\u8a60\u6625
p3549
I2
sV\u4ed6\u5011
p3550
I33
sV\u7d93
p3551
I1
sV\u9023\u7dbf
p3552
I1
sV\u524d\u53bb
p3553
I1
sV\u4e3b\u89d2
p3554
I1
sV\u4e3b\u89c0
p3555
I3
sV\u6642\u6578
p3556
I1
sV\u706b\u4e0a\u52a0\u6cb9
p3557
I1
sV\u5305\u8986
p3558
I1
sV\u6417\u86cb
p3559
I1
sV\u8996\u7db2\u819c
p3560
I2
sV\u8b70\u6703
p3561
I1
sV\u96fb\u8166
p3562
I7
sV\u9019\u985e
p3563
I1
sV\u6e1b\u91cd
p3564
I5
sV\u4f9d\u8cf4
p3565
I2
sV\u7f85\u5229
p3566
I1
sV\u4ee5\u4e0b
p3567
I3
sV\u9686\u8d77
p3568
I1
sV\u8521\u660e\u4eae
p3569
I1
sV\u53e6
p3570
I8
sV\u8df3
p3571
I1
sV\u63d0\u6607
p3572
I1
sV\u7559\u5bbf
p3573
I1
sV\u4e3b\u898b
p3574
I1
sV\u7cbe\u91c7
p3575
I3
sV\u7576\u8af8\u4f4d
p3576
I1
sV\u7136\u4ea6\u6709
p3577
I1
sV\u5275\u4f5c\u8005
p3578
I2
sV\u627e\u4e0d\u5230
p3579
I2
sV\u708e\u71b1
p3580
I1
sV\u60f3\u8981
p3581
I5
sV\u7af6\u8cfd
p3582
I1
sV\u7247\u6bb5
p3583
I1
sV\u914d\u5408
p3584
I9
sV\u672f
p3585
I1
sV\u985e\u5225
p3586
I2
sV\u5168\u53f0
p3587
I11
sV\u5893\u5730
p3588
I1
sV\u524d
p3589
I23
sV\u7576\u5730
p3590
I2
sV\u5149\u5b78
p3591
I1
sVAll
p3592
I4
sV\u8981\u70ba
p3593
I1
sV\u95dc\u5207
p3594
I1
sV\u7b2c\u4e00\u6b65
p3595
I1
sV\u5916\u982d
p3596
I1
sV\u9069\u5408
p3597
I3
sV\u5fcd\u53d7
p3598
I1
sV\u529b\u8aeb
p3599
I1
sV879\u3011
p3600
I1
sV\u9023\u7d50
p3601
I15
sV\u4f0a\u65af\u862d
p3602
I2
sV\u53f0\u4e2d
p3603
I3
sV\u4e0d\u77e5
p3604
I2
sV\u91ab\u7642
p3605
I4
sVFAQ
p3606
I1
sV\u6642\u6642
p3607
I1
sV\u7dca\u7e43\u611f
p3608
I1
sV\u6563\u767c
p3609
I1
sV\u6d6e\u52d5
p3610
I1
sV\u5b8c\u5584
p3611
I1
sV\u9023\u7e8c
p3612
I3
sV\u6574\u6574
p3613
I1
sV\u5927\u809a
p3614
I1
sV\u6a21\u5f0f
p3615
I7
sV\u5148\u92d2
p3616
I1
sV\u6c42\u8077
p3617
I4
sV\u7684\u78ba
p3618
I2
sV\u8463\u5353
p3619
I2
sV\u534a\u591c
p3620
I4
sV\u4fdd\u7559
p3621
I1
sV\u5e02\u59d4
p3622
I1
sV\u5c0f\u5091
p3623
I3
sV\u62ef\u6551
p3624
I2
sV\u8f49\u4efb
p3625
I1
sV\u58ac\u5165
p3626
I2
sV\u5373\u80fd
p3627
I2
sV\u57f9
p3628
I1
sV\u7626\u8089
p3629
I1
sV\u627e\u4f86
p3630
I1
sV\u6545\u610f
p3631
I3
sV\u4e0d\u7766
p3632
I1
sV\u8b80\u8005
p3633
I2
sV\u90a3\u4e00\u5929
p3634
I2
sV\u5e38\u5e38
p3635
I4
sV\u65d7\u5b50
p3636
I1
sV\u63d0\u65e9
p3637
I4
sV\u7121\u4e8b
p3638
I1
sV\u52d5\u4e86\u5fc3
p3639
I1
sV\u624b\u638c
p3640
I1
sV\u624b\u6392
p3641
I1
sV\u4e0d\u6478\u982d
p3642
I1
sV\u751f\u7406\u6027
p3643
I1
sV\u5973\u5152
p3644
I10
sV\u683c\u5f0f
p3645
I1
sV\u5927\u800c
p3646
I1
sV\u300a07
p3647
I1
sV\u9023\u7e6b
p3648
I1
sV\u6539\u5949
p3649
I2
sV\u80da\u80ce
p3650
I5
sV\u5927\u8072
p3651
I1
sV\u5275\u8fa6\u4eba
p3652
I1
sV\u6838\u707d
p3653
I1
sV\u5bc7\u514b
p3654
I1
sV\u88dc
p3655
I1
sV\u5632\u8af7
p3656
I1
sV\u7565
p3657
I1
sV\u9023\u4e09\u7d05
p3658
I1
sV\u5be6
p3659
I1
sV\u624b\u63c9
p3660
I1
sV\u5176\u61c9
p3661
I1
sV\u9812\u734e
p3662
I1
sV\u62bc\u5230
p3663
I1
sV\u8089\u985e
p3664
I1
sV\u738b
p3665
I1
sV\u6ed1\u9f20
p3666
I1
sV\u8d9f
p3667
I1
sV\u5de7\u514b\u529b
p3668
I1
sV\u9810\u671f
p3669
I2
sV\u906d\u5230
p3670
I1
sV\u5236
p3671
I1
sV\u500b
p3672
I120
sV\u60f3\u6562\u5e72
p3673
I1
sV\u5927\u81f4
p3674
I2
sV\u58d3\u8feb\u5230
p3675
I1
sV\u6642\u6703
p3676
I1
sV\u6f32\u5e45
p3677
I1
sV\u9694\u65e5
p3678
I1
sV\u84cb\u66fc
p3679
I1
sV\u518d\u8005
p3680
I1
sV\u5360
p3681
I3
sVBeetles
p3682
I1
sV\u904a\u672c
p3683
I1
sV\u570b\u6c11
p3684
I2
sV\u5168\u514d
p3685
I3
sV\u50b7\u611f
p3686
I1
sV\u611f\u77e5
p3687
I1
sV\u8b49\u5be6
p3688
I3
sV\u7372\u8a55
p3689
I1
sV\u8584
p3690
I1
sV\u570b\u6cf0
p3691
I1
sV\u88fd\u9020
p3692
I1
sV\u6709\u904e
p3693
I1
sV\u5317\u6f02\u65cf
p3694
I3
sV\u76f8\u7576
p3695
I12
sV\u7279\u6b8a
p3696
I2
sV\u5927
p3697
I25
sV\u5e02\u5834
p3698
I3
sV\u56e0\u4eba\u800c\u7570
p3699
I1
sV\u69cb\u5716
p3700
I1
sV\u66f2\u89e3
p3701
I1
sV\u4eba\u6c11
p3702
I4
sV\u934b
p3703
I1
sV\u526f\u6559\u6388
p3704
I1
sV\u7269\u8cc7
p3705
I1
sV\u5927\u8166
p3706
I1
sV\u5b69\u5b50\u5011
p3707
I2
sV\u5c55
p3708
I2
sV\u73fe\u6cc1
p3709
I1
sV\u8a71
p3710
I2
sV\u4f73
p3711
I1
sV\u56fa\u5b9a
p3712
I1
sV\u7406\u4e8b\u9577
p3713
I1
sV\u6d41\u884c\u6027
p3714
I1
sV\u6f32\u591a
p3715
I1
sV\u985e\u578b
p3716
I1
sV\u8ffd\u52a0
p3717
I1
sV\u6240\u52d5
p3718
I1
sV\u4f9d
p3719
I10
sV\u8d77\u4f86
p3720
I3
sV\u90a3
p3721
I21
sV\u7d42\u6b62
p3722
I2
sVFree
p3723
I1
sV\u6bb5
p3724
I1
sV\u773a\u671b
p3725
I1
sV\u533a
p3726
I1
sV\u534a\u5f62
p3727
I1
sV\u6aa2\u7d22
p3728
I4
sV\u63db\u6a94
p3729
I1
sV\u89c9
p3730
I3
sV\u524d\u6b3e
p3731
I2
sV\u714e
p3732
I1
sV\u524d\u6240\u672a\u898b
p3733
I1
sV\u5831\u6709
p3734
I1
sV\u8cfc\u5f97
p3735
I1
sV\u6642\u6027
p3736
I1
sV17
p3737
I3
sV\u5de7\u5999
p3738
I1
sV\u64f4\u6563
p3739
I1
sVYoshi
p3740
I2
sV\u7e7c
p3741
I1
sV\u5b78\u58eb
p3742
I1
sV\u72c0\u6cc1
p3743
I9
sV\u5289\u95dc
p3744
I1
sV\u61f7\u62b1
p3745
I1
sV\u55ae\u7d14
p3746
I3
sV\u524d\u4e09\u5929
p3747
I1
sV03
p3748
I2
sV\u6a5f\u80fd
p3749
I4
sV01
p3750
I1
sV06
p3751
I3
sV07
p3752
I2
sV05
p3753
I1
sV\u8d77\u4f0f
p3754
I1
sV08
p3755
I2
sV\u660e\u986f
p3756
I4
sV\u4f01\u696d
p3757
I11
sV\u76f8\u7247
p3758
I7
sVmarimekko
p3759
I1
sV\u83f8\u9152
p3760
I1
sV\u5f8c\u671f
p3761
I4
sV\u5ef6\u7dda
p3762
I3
sV\u5408\u5ea6
p3763
I1
sV\u807d\u898b
p3764
I1
sV\u6574
p3765
I1
sVC
p3766
I1
sV\u6545\u674e
p3767
I1
sV\u767d\u99ac
p3768
I3
sV\u8ffd\u527f
p3769
I1
sV\u4f48\u5c40
p3770
I1
sV\u4e09\u7528\u624b
p3771
I1
sV\u6210\u56e0
p3772
I1
sV383
p3773
I2
sV\u5b55
p3774
I11
sV\u55ce
p3775
I7
sV\u8abf\u9ad8\u81f3
p3776
I1
sV\u9ad4\u91cd
p3777
I10
sV\u746a\u7459
p3778
I1
sV\u4e0d\u53ef\u80fd
p3779
I2
sV\u5de6
p3780
I1
sV\u6821\u53cb
p3781
I1
sV\u96e3\u6539
p3782
I1
sV\u4ee3\u540d\u8a5e
p3783
I1
sV\u7576\u521d
p3784
I1
sV\u8ff7\u60d8
p3785
I3
sV\u7d93\u7406\u4eba
p3786
I3
sV\u8ad6\u8005
p3787
I1
sV\u8ca7\u5f31
p3788
I1
sV\u7e2e\u5c0f
p3789
I1
sV\u559c\u7f8a\u7f8a
p3790
I6
sV\u82f1\u6587
p3791
I3
sV\u96f7\u5c04
p3792
I2
sV\u9298\u724c
p3793
I1
sV\u534a\u5e74
p3794
I4
sV\u5fae\u5c0f
p3795
I2
sV\u6b61\u8fce
p3796
I5
sV\u8ca8\u8eca
p3797
I2
sV\u70b9
p3798
I2
sV\u914d\u5099
p3799
I4
sV\u5c0d\u4ed8
p3800
I1
sVCI
p3801
I1
sV\u7bc4\u570d
p3802
I5
sVCC
p3803
I1
sV\u632f\u5143
p3804
I1
sV\u7591\u4f3c
p3805
I2
sV\u5371\u6a5f
p3806
I1
sV\u7570\u9109
p3807
I1
sV\u4f5c
p3808
I2
sV\u4f7f\u76e1
p3809
I1
sV\u9662
p3810
I1
sVCentrale
p3811
I2
sV\u6a21\u584a
p3812
I1
sV\u83ef
p3813
I2
sV\u986f\u73fe
p3814
I1
sV\u93ae\u4e0a
p3815
I1
sV\u671f\u671b
p3816
I1
sV\u9bae\u660e
p3817
I2
sV\u6709\u9650
p3818
I4
sV\u65b9\u7565
p3819
I1
sVit
p3820
I1
sV\u559c\u9858
p3821
I1
sV\u5ee3\u544a\u4e3b
p3822
I2
sV\u90a3\u9ebc
p3823
I5
sV\u9818\u5c0e
p3824
I5
sV\u5171\u6cbb
p3825
I1
sV\u7136\u5f8c
p3826
I6
sV\u904e\u9ad8
p3827
I2
sV\u6539\u982d\u63db\u9762
p3828
I1
sV\u5206\u5b50
p3829
I2
sV\u6069\u6028
p3830
I1
sV\u5e7b\u8c61
p3831
I1
sV\u5f15\u7528
p3832
I1
sV\u4e5d\u6708
p3833
I1
sV\u8a02\u5a5a
p3834
I1
sV\u7f8a
p3835
I1
sV\u7e41\u7463
p3836
I1
sV\u6f14\u85dd
p3837
I1
sV\u592a\u5e73\u6d0b
p3838
I2
sV\u8a0a\u606f
p3839
I4
sV\u53d7\u5230
p3840
I11
sV800
p3841
I1
sV\u4e5d\u4e94\u5e74
p3842
I1
sV\u6642\u6240
p3843
I2
sV\u6709\u95dc
p3844
I6
sV\u540c
p3845
I1
sV\u5169\u54e1
p3846
I1
sV\u4f4d\u65bc
p3847
I9
sV\u4fe1\u4e0d\u4fe1
p3848
I1
sV\u6f02\u4eae
p3849
I4
sV\u842c
p3850
I5
sV\u6e96\u5099\u597d
p3851
I1
sV\u8df3\u812b
p3852
I1
sV\u7d42\u6975
p3853
I2
sV\u5c31\u696d
p3854
I1
sV\u8bc9
p3855
I1
sV\u528d
p3856
I2
sV\u7a0d\u5fae
p3857
I1
sV\u91cd\u7269
p3858
I1
sV\u5317\u8eca
p3859
I3
sV\u50cf
p3860
I6
sV\u4f7f\u547d\u611f
p3861
I1
sV\u9593\u63a5
p3862
I2
sV\u904a\u6232
p3863
I1
sV\u4fbf\u6703
p3864
I1
sV\u4fc4\u70cf
p3865
I1
sV\u4e00\u751f\u4e00\u4e16
p3866
I1
sV\u4f86
p3867
I16
sV\u672c\u540d
p3868
I1
sV\u300f
p3869
I4
sV\u793e\u6703\u5b78
p3870
I1
sV\u5546\u54c1
p3871
I4
sV\u4f7f\u7528
p3872
I29
sV\u7d13\u89e3
p3873
I1
sV\u5207\u5fcc
p3874
I1
sV\u5c0f\u5e03\u5e0c
p3875
I2
sV\u6b64\u5f8c
p3876
I1
sVCourteney
p3877
I1
sVKUSO
p3878
I1
sV\u4e09\u7fc5
p3879
I1
sV\u6536\u908a
p3880
I1
sV\u76e3\u6e2c
p3881
I1
sV\u5c11\u6578
p3882
I3
sV\u8853\u5f8c
p3883
I6
sV\u760b\u5a46\u5cf6
p3884
I1
sV\u4e03\u842c\u516d\u5343
p3885
I1
sV\u7a0b\u5ea6
p3886
I5
sV\u5b8c\u5168
p3887
I8
sV\u6210\u54e1
p3888
I4
sV\u6392\u653e\u91cf
p3889
I1
sV\u518d\u751f
p3890
I1
sV\u5730\u4f4d
p3891
I1
sV\u7761
p3892
I2
sV\u96a8\u5fc3\u6240\u6b32
p3893
I1
sV\u90a3\u9ebc\u591a
p3894
I1
sV\u770b\u898b
p3895
I1
sV\u7a0b\u5e8f
p3896
I1
sV\u672c\u5468
p3897
I1
sV\u6210\u54c1
p3898
I1
sV\u8077\u52d9
p3899
I1
sV\u5e7b
p3900
I1
sV\u5927\u8449
p3901
I1
sV\u767d\u958b\u6c34
p3902
I1
sV\u7e3d\u7d71
p3903
I3
sV\u5e38\u5ba2
p3904
I1
sV\u548c\u89aa
p3905
I1
sVSUV
p3906
I1
sV\u4e94\u5341\u842c
p3907
I1
sV\u6200\u611b
p3908
I4
sV\u6253\u9020
p3909
I2
sV\u62bd\u53d6
p3910
I1
sV22K
p3911
I1
sV\u66f9\u4e15\u5e9c
p3912
I1
sV\u64ad
p3913
I1
sV\u52a0\u88dd
p3914
I1
sV\u807d\u8a71
p3915
I2
sV\u72d0\u7334
p3916
I1
sV\u9ed1
p3917
I3
sV\u4e3b\u8fa6
p3918
I1
sV\u97f3\u6a02\u7d44
p3919
I1
sV\u8a5e
p3920
I1
sV\u7a0b\u5f0f
p3921
I2
sV\u5730\u4ee5
p3922
I1
sV\u6b63\u9910
p3923
I1
sV\u7cbe\u795e\u79d1
p3924
I5
sV\u9748\u654f
p3925
I1
sV\u4e0b\u4e00\u4ee3
p3926
I2
sV\u51f8\u986f
p3927
I1
sV\u4e86
p3928
I133
sV\u5168\u65b9\u4f4d
p3929
I2
sV\u73cd\u59ae\u4f5b\u5b89\u59ae\u7d72\u9813
p3930
I4
sV\u9ad4\u8cea
p3931
I3
sV\u7576\u5175
p3932
I2
sV\u5730\u4e0b
p3933
I1
sV\u9808\u8981
p3934
I1
sV\u672b
p3935
I1
sV\u5c0f\u5152\u79d1
p3936
I1
sV\u9019\u9ebc
p3937
I3
sV\u5e8f\u5e55
p3938
I1
sV\u8cfc\u5c4b
p3939
I19
sV\u64cd\u4e4b\u904e\u6025
p3940
I1
sV\u9812\u767c
p3941
I2
sV\u4e09\u9910
p3942
I2
sVCICPA
p3943
I1
sV\u4e0d\u723d
p3944
I1
sV\u4e73\u6c41
p3945
I2
sV\u91cd\u73fe
p3946
I2
sV\u6c38\u6176
p3947
I3
sV\u6848\u4f8b
p3948
I2
sV\u7533\u5831
p3949
I1
sV\u846d
p3950
I1
sV\u6539\u5584
p3951
I1
sV\u96d9\u65b9
p3952
I3
sV\u5f7b
p3953
I1
sV\u6bd4\u5982
p3954
I1
sV\u7dec\u7538
p3955
I2
sV\u8868\u60c5
p3956
I1
sV\u8b02
p3957
I1
sV\u83ef\u8208
p3958
I1
sV\u7279\u6027
p3959
I1
sV\u53f0\u5317\u5e02
p3960
I1
sV\u9020\u5047
p3961
I1
sV\u53d6\u4e4b\u4e0d\u76e1
p3962
I1
sV\u85c9\u7531
p3963
I3
sV\u521d\u6625
p3964
I1
sV0
p3965
I11
sV\u5f3a
p3966
I2
sV\u89c1
p3967
I2
sV\u7f85\u5b0c
p3968
I2
sV\u67b6
p3969
I3
sV\u868a\u5b50
p3970
I11
sV\u904e\u4e0d\u53bb
p3971
I1
sV\u5fc3\u60c5
p3972
I7
sV\u58d3\u8feb
p3973
I5
sV\u70ba\u6f14
p3974
I1
sV1992
p3975
I1
sV\u4f46\u9808
p3976
I1
sV\u6055\u96e3
p3977
I1
sV\u70ba\u91cd
p3978
I1
sV\u53bb\u4e16
p3979
I5
sV\u526f\u90e8
p3980
I1
sV\u5468
p3981
I1
sV\u800d\u5bf6
p3982
I2
sV\u4e0d\u7d93
p3983
I1
sV\u5fc3\u60f3
p3984
I1
sV\u8001\u4eba
p3985
I2
sV\u8521\u6b63\u5143
p3986
I1
sV\u7576\u5e74
p3987
I1
sV\u5de5\u4f5c\u72c2
p3988
I1
sV\u5ba2\u6eff
p3989
I1
sV\u66a2\u65fa
p3990
I1
sV\u9b4f\u738b
p3991
I1
sV\u8a66\u5716
p3992
I2
sV\u6253\u9b27
p3993
I2
sV\u898b\u8b49
p3994
I1
sV\u56de\u71df
p3995
I1
sV\u5ef6\u71d2
p3996
I3
sV\u98f2\u98df\u7537\u5973
p3997
I1
sV\u95dc\u9375\u5b57
p3998
I2
sV\u5927\u8a08
p3999
I1
sV\u60bc\u5ff5
p4000
I1
sV\u6399\u624e
p4001
I2
sV\u993f\u6c34
p4002
I5
sV\u5e74\u5c11\u8f15\u72c2
p4003
I2
sV\u7d44\u6210
p4004
I2
sV\u5531\u6b4c
p4005
I2
sV\u63a8\u5012
p4006
I1
sV\u4e0a\u9177
p4007
I1
sV\u8463\u5b5f\u90ce
p4008
I1
sV\u6297\u62d2
p4009
I1
sV\u63a8\u51fa
p4010
I6
sV\u8655\u65bc
p4011
I3
sV\u91cf\u8eab
p4012
I1
sV\u72c0\u614b
p4013
I5
sV\u521d\u671f
p4014
I9
sV\u6c42\u8b49
p4015
I1
sV\u539f\u540d
p4016
I2
sV\u5b89\u7a69
p4017
I2
sV\u7db2\u7db2
p4018
I1
sV\u8a18\u8005\u6703
p4019
I1
sV\u7528
p4020
I11
sV\u8acb\u7e93
p4021
I1
sV\u5b58\u6d3b
p4022
I2
sV\u5e74\u9f61
p4023
I5
sV\u679c\u7136
p4024
I4
sV\u59cb
p4025
I1
sV\u8463\u4e8b\u9577
p4026
I3
sV\u9f8d\u6839
p4027
I1
sV\u958b\u4e86
p4028
I1
sV\u56db\u4eba
p4029
I1
sV\u5316\u8eab
p4030
I1
sV\u534a\u5230
p4031
I2
sV\u8c37\u5e95
p4032
I1
sV\u5c31\u662f
p4033
I23
sV\u8457\u91cd
p4034
I2
sV\u5168\u5bb6
p4035
I1
sV\u60c5\u5883
p4036
I1
sV\u8df3\u8e8d
p4037
I1
sV\u5982\u7d93
p4038
I1
sV\u96fb\u8996
p4039
I2
sV\u8840\u8165
p4040
I2
sV\u5373\u6307
p4041
I1
sV\u4e0a\u9031
p4042
I2
sV\u8089\u5713
p4043
I4
sV\u5c3f\u5c3f
p4044
I2
sV\u9023\u756a
p4045
I1
sV\u4e45
p4046
I2
sV\u51a0
p4047
I3
sV4885
p4048
I1
sV\u54e5\u502b\u6bd4\u4e9e
p4049
I1
sV\u7fa4\u843d
p4050
I1
sV\u4e08\u91cf
p4051
I1
sV\u76e3\u7406\u8655
p4052
I1
sV\u7f8e\u4eba\u5152
p4053
I1
sV\u6578\u767e\u842c
p4054
I1
sV\u504f\u6fc0
p4055
I1
sV\u5967\u65af\u66fc
p4056
I1
sV\u7db2\u7d61
p4057
I1
sV\u517b
p4058
I1
sV\u8aaa\u5230\u5e95
p4059
I1
sV\u898b\u89e3
p4060
I1
sV\u71c8\u5149
p4061
I2
sV\u64cd\u4f5c\u6027
p4062
I1
sV\u70f9\u8abf
p4063
I3
sV\u7406\u4e8b
p4064
I1
sV\u9810\u6e2c
p4065
I3
sV\u82e6\u5316
p4066
I2
sV\u5f37\u6709\u529b
p4067
I2
sV\u8102\u80aa
p4068
I2
sV\u63a8\u52d5
p4069
I1
sV\u4e2d\u4e16\u7d00
p4070
I1
sV\u611f\u53d7\u5668
p4071
I1
sV\u903c
p4072
I1
sV\u8bc1
p4073
I1
sV\u65c5\u884c
p4074
I1
sV\u96fb\u8a71
p4075
I2
sV\u7406\u4ed6
p4076
I1
sV\u675c\u9d51
p4077
I1
sV\u6c23\u52e2
p4078
I3
sV\u9ec3\u6fc1
p4079
I1
sV\u4e0d\u7fa9
p4080
I1
sV\u50bb\u773c
p4081
I1
sV\u666e\u4ec0\u5716\u65cf
p4082
I2
sV\u6b77\u53f2
p4083
I8
sV\u5c3c\u53ef
p4084
I1
sV\u5378\u4e0b
p4085
I3
sV\u5546\u5834
p4086
I1
sVSimple
p4087
I1
sV\u7cbe\u9ad3
p4088
I1
sV\u9020\u6210
p4089
I19
sV\u5438\u5f15
p4090
I3
sV\u8ca0\u9762
p4091
I1
sV\u5c55\u89bd\u6703
p4092
I1
sV\u932b\u514b
p4093
I1
sV\u6170\u52de
p4094
I1
sV\u5287\u7d44
p4095
I4
sV\u8209\u884c
p4096
I2
sV\u624b\u6bb5
p4097
I1
sV\u5225\u4eba
p4098
I2
sV\u7576\u5c40
p4099
I1
sV\u9084\u662f
p4100
I10
sV\u6d3b\u6f51
p4101
I1
sV\u5efa\u7acb
p4102
I3
sV\u6240\u5c6c
p4103
I1
sV\u6536\u85cf\u5bb6
p4104
I2
sV\u5207\u53e3
p4105
I1
sV\u98df\u7269
p4106
I8
sV\u6599\u5230
p4107
I1
sV\u6574\u9ad4\u6027
p4108
I1
sV\u8ffd\u5c0b
p4109
I2
sVG
p4110
I1
sV\u6253\u96f6\u5de5
p4111
I1
sV\u5805\u6301
p4112
I3
sV\u5f77\u5f7f
p4113
I2
sV\u7dad\u751f
p4114
I1
sV\u4e0d\u7f3a
p4115
I1
sV\u4e8b\u9805
p4116
I4
sV\u90a3\u91cc
p4117
I1
sV\u4efb\u52d9
p4118
I3
sV\u4e26
p4119
I50
sV\u518d\u898b
p4120
I1
sV\u56c2\u5f35
p4121
I1
sV\u8de8\u754c
p4122
I2
sV\u7d42\u65bc
p4123
I5
sV\u63db\u8a00\u4e4b
p4124
I1
sV\u897f\u4eba
p4125
I1
sV\u98db\u56de
p4126
I1
sV\u96e3\u4ee5
p4127
I9
sV\u5df2\u4e45
p4128
I1
sV\u6f6e\u5dde
p4129
I1
sV\u98a8\u6ce2
p4130
I1
sV\u7d93\u6fdf\u90e8
p4131
I2
sV\u5c41\u80a1
p4132
I1
sV\u6f14\u8b1b
p4133
I2
sV\u884c\u52d5
p4134
I3
sV\u5a36
p4135
I2
sV\u7c3d\u8b49
p4136
I1
sV\u8c50\u5bcc
p4137
I3
sV\u8907\u96dc
p4138
I3
sV\u7d30\u80de
p4139
I3
sV\u5169\u65c1
p4140
I1
sV\u4e09\u9580
p4141
I2
sV\u63db
p4142
I1
sV\u68b3\u7406
p4143
I1
sV\u9069\u5ea6
p4144
I1
sV11
p4145
I6
sV10
p4146
I37
sV13
p4147
I2
sV12
p4148
I2
sV15
p4149
I3
sV\u65b0\u5e74
p4150
I2
sV16
p4151
I2
sV19
p4152
I2
sV18
p4153
I2
sV\u975e\u7403\u9762
p4154
I1
sV\u81c9\u8272
p4155
I1
sV\u8def
p4156
I4
sV\u62c9\u7968
p4157
I1
sV\u653f\u8b8a
p4158
I2
sV\u5c0f\u670b\u53cb
p4159
I3
sV\u514d\u9ede
p4160
I1
sV\u624b\u6a5f
p4161
I1
sV\u8b80
p4162
I2
sV\u6a02\u7406
p4163
I1
sV\u62b1\u8457
p4164
I1
sV\u9084\u6709
p4165
I10
sV\u6436\u52ab
p4166
I1
sV\u9084\u6703
p4167
I3
sV\u99d5\u99ad
p4168
I1
sV\u5bb6\u7236
p4169
I1
sV\u7387\u5148
p4170
I1
sV\u771f\u76f8\u5927\u767d
p4171
I1
sV\u7387\u5175
p4172
I2
sV\u9001\u7d66
p4173
I1
sV\u6559\u68b5\u514b\u96c5\u5bf6
p4174
I1
sV\u96be
p4175
I2
sV200
p4176
I3
sV\u9ad4\u80b2
p4177
I1
sV\u8fd8
p4178
I3
sV\u77da\u76ee
p4179
I1
sV\u99d5\u99db
p4180
I1
sV\u9700\u4ee5
p4181
I1
sV\u54ea
p4182
I2
sV\u7e69\u5b50
p4183
I1
sV\u537b
p4184
I36
sV\u5c3f\u5e03
p4185
I11
sV\u539f\u56e0
p4186
I13
sV\u7fa4\u81e3
p4187
I1
sV\u5fc3\u7406\u5b78
p4188
I1
sV\u7f8e\u570b\u4eba
p4189
I1
sV\u7de9\u6162
p4190
I1
sV\u8b39\u9075
p4191
I1
sV\u77ed\u6642\u9593
p4192
I1
sV\u98a8\u5c1a
p4193
I1
sV\u6728\u6750
p4194
I1
sVSPORTBACK
p4195
I3
sVStudio
p4196
I1
sV\u819a\u8272
p4197
I1
sV\u6212\u5f8b
p4198
I1
sV\u570b\u9632\u90e8\u9577
p4199
I1
sV\u81c9
p4200
I2
sV\u4e00\u96bb\u96bb
p4201
I1
sV\u4eab\u6709
p4202
I2
sV\u4efb\u547d
p4203
I2
sV\u884c\u92b7\u90e8
p4204
I1
sV\u8aaa\u932f
p4205
I1
sV\u5b8c\u6574\u6027
p4206
I2
sV\u7626\u8eab
p4207
I1
sV\u5c0f\u5b69\u5b50
p4208
I1
sV\u4f8b\u5982
p4209
I14
sV\u5236\u4f5c
p4210
I1
sV927
p4211
I1
sV\u64ca\u6557
p4212
I1
sV\uff0d
p4213
I7
sV\u9577\u8f29
p4214
I2
sV\u5e06\u5e03
p4215
I6
sV\u4e4b\u524d
p4216
I8
sV\u7e3d\u76e3
p4217
I4
sVStanislas
p4218
I1
sV\u5c08\u4eba
p4219
I1
sV\u7838\u4e0b
p4220
I1
sV\u9ad8\u4e2d
p4221
I2
sV\u6309\u9375
p4222
I4
sV\u597d\u4e86
p4223
I1
sV\u5206\u5225
p4224
I3
sV\u7dbf\u5bc6
p4225
I1
sV\u7acb\u6b63
p4226
I1
sV\u5355
p4227
I2
sV\u96fb\u5f71\u611f
p4228
I2
sV\u5c08\u4efb
p4229
I1
sV\u5c1a\u672a
p4230
I1
sV\u90e8
p4231
I4
sV\u53ea
p4232
I8
sV\u4f8b\u5916
p4233
I1
sV\u5e73\u9762
p4234
I4
sV\u820a
p4235
I1
sV\u623f\u4ef2
p4236
I2
sV\u56de\u6536
p4237
I1
sV\u7e3d\u7763
p4238
I1
sV\u56de\u8a3a
p4239
I2
sV\u6b64\u540d
p4240
I1
sV\u524d\u5f80
p4241
I3
sV\u524d\u5f8c
p4242
I3
sV\u5ea7\u6905
p4243
I3
sV\u98fd\u6eff
p4244
I1
sV\u6200\u6b4c
p4245
I1
sV\u7576\u5bb6
p4246
I1
sV\u5168
p4247
I15
sV\u4e86\u897f
p4248
I1
sV\u6570
p4249
I1
sV\u81f3
p4250
I9
sV\u56fd
p4251
I1
sV\u8209\u8fa6
p4252
I1
sV\u7b11\u8072
p4253
I2
sV\u65b0\u589e
p4254
I1
sV\u4f17
p4255
I7
sV\u8abf\u67e5
p4256
I4
sV\u82f1\u570b
p4257
I5
sV\u4f4e\u6536\u5165\u6236
p4258
I7
sV\u7ea2
p4259
I1
sV\u9673\u7e3d
p4260
I1
sV\u5c55\u6703
p4261
I1
sV\u9ad8\u4f4e
p4262
I2
sV\u591c\u9593
p4263
I2
sV\u8077\u696d
p4264
I2
sV\u74b0\u4fdd
p4265
I6
sV\u767c\u708e
p4266
I6
sV\u50b3\u67d3\u75c5
p4267
I1
sV\u6ce8\u5165
p4268
I2
sV\u54e6
p4269
I4
sV\u751f\u9577
p4270
I2
sV\u53ef\u77e5
p4271
I1
sV\u4e86\u89e3
p4272
I6
sV\u624b\u6cd5
p4273
I2
sV\u98df\u7528
p4274
I7
sV\u5168\u5fc3
p4275
I1
sV\u4e8c\u5ea6
p4276
I1
sV\u4e00
p4277
I116
sV\u9020\u666f
p4278
I1
sV\u985b\u4e09\u5012\u56db
p4279
I1
sV\u6642\u6a5f
p4280
I3
sV\u66d9\u5149
p4281
I1
sV\u51e0\u7387
p4282
I1
sV\u53c3\u52a0
p4283
I4
sV4
p4284
I13
sV\u75a4\u75d5
p4285
I1
sV\u6253\u778c\u7761
p4286
I1
sV\u5275\u4f5c
p4287
I1
sV\u4e0d\u7ba1
p4288
I4
sV\u7db2\u7ad9
p4289
I52
sV\u6cd5\u65b0\u793e
p4290
I1
sV\u4e0b\u7a31
p4291
I1
sV\u7fa9\u8ce3
p4292
I6
sV\u671b\u65cf
p4293
I1
sV\u6709\u6548\u6027
p4294
I3
sV\u5bc4\u60c5\u65bc
p4295
I1
sV\u9069\u5b9c
p4296
I1
sV\u60c5\u5f62
p4297
I9
sV\u6df7\u8457
p4298
I1
sV\u4e0d\u7b97
p4299
I3
sV\u7e3d\u7406
p4300
I1
sV\u642d\u5230
p4301
I3
sV\u5168\u5c40
p4302
I1
sV\u9ec3\u6b0a
p4303
I2
sV\u6309
p4304
I2
sV\u62b5\u9054
p4305
I2
sVNew
p4306
I4
sV\u4e00\u822c\u800c\u8a00
p4307
I2
sV\u904e\u91cd
p4308
I2
sV\u5427
p4309
I12
sVMen
p4310
I1
sV\u5426\u5247
p4311
I2
sV\u672c\u5c46
p4312
I1
sV\u4e0d\u7b26
p4313
I1
sV\u5ee2\u68c4
p4314
I1
sV\u6c42\u8ca1
p4315
I1
sV\u82e5\u8d8a
p4316
I1
sV\u7167\u6599
p4317
I2
sV\u5b78\u529b
p4318
I1
sV\u986f\u51fa
p4319
I1
sV\u73fe
p4320
I1
sV\u7cd6\u5403
p4321
I1
sV\u6587
p4322
I15
sV\u8abf\u6574
p4323
I1
sV\u7a31\u865f
p4324
I1
sV\u9580\u5165\u57ce
p4325
I1
sV\u9ad8\u8ac7\u95ca\u8ad6
p4326
I1
sV\u904a\u6b77
p4327
I1
sV\u5371\u6025
p4328
I1
sV\u82e6\u5606
p4329
I1
sV\u5e36
p4330
I3
sV\u4ed6\u5e38
p4331
I1
sV\u641e\u4e0d\u597d
p4332
I1
sV\u4e92\u52a9
p4333
I1
sV\u8eca\u5c3e
p4334
I1
sV\u6bcd\u5976
p4335
I1
sV\u6bcd\u5973
p4336
I1
sV\u5c0f\u6642\u5019
p4337
I1
sV\u539f\u5247
p4338
I3
sV\u6587\u85dd\u7247
p4339
I2
sV\u66f4\u70ba
p4340
I1
sVDoutzen
p4341
I1
sV\u7d04\u7565
p4342
I2
sV\u73fe\u6709
p4343
I1
sV\u53ef\u7576
p4344
I1
sV\u8db3\u5920
p4345
I2
sV\u901a\u904e
p4346
I6
sV\u5831\u6cd5
p4347
I1
sV\u5883\u754c
p4348
I1
sV\u5b6b\u6b0a
p4349
I3
sV\u75db\u5fc3\u75be\u9996
p4350
I1
sV\u4eba\u6027
p4351
I2
sVBlog
p4352
I1
sV\u4e39\u9cf3
p4353
I1
sV\u4f9d\u820a
p4354
I4
sV\u6f2b
p4355
I1
sV2400
p4356
I1
sV\u986f\u793a
p4357
I4
sV\u596a\u4e0b
p4358
I3
sVPharrell
p4359
I1
sV\u7576\u5929
p4360
I2
sV\u4ed6
p4361
I94
sV480
p4362
I1
sV\u704c\u5340
p4363
I1
sV\u8cfd\u9053
p4364
I1
sV\u7269
p4365
I1
sV\u8cc0\u79ae
p4366
I1
sVYear
p4367
I1
sV\u6dd8\u6c70
p4368
I4
sV\u7b11\u7b11
p4369
I1
sV\u6176\u751f
p4370
I1
sV\u5916\u89c0
p4371
I2
sV\u53ef\u6a02
p4372
I1
sV\u4e14
p4373
I19
sV\u5c4d\u6cb9
p4374
I5
sV\u4e00\u5207
p4375
I5
sV\u5c31\u7f70
p4376
I1
sV\u547d\u7a0b\u6631\u4ee3
p4377
I1
sV\u4e3b\u98df
p4378
I2
sV\u958b\u57ce
p4379
I1
sV\u5c08\u5229
p4380
I2
sV\u6e1b\u80a5
p4381
I2
sV\u65b9
p4382
I1
sV\u5206\u4eab
p4383
I6
sV\u5f9e\u6b64
p4384
I1
sV\u7d93\u8af8\u4f4d
p4385
I1
sV\u4e0d\u65b7
p4386
I10
sV\u963f\u62c9\u4f2f\u6587
p4387
I1
sV\u975a
p4388
I1
sV\u6f14\u904e
p4389
I1
sV\u4e2d\u570b\u5927\u9678
p4390
I2
sV\u6478
p4391
I1
sV\u4e0d\u6599
p4392
I2
sV\u75be\u75c5
p4393
I6
sV\u6d3e\u5154
p4394
I1
sV\u9ad8\u5206
p4395
I2
sV\u9519
p4396
I3
sV\u6545
p4397
I3
sV\u7761\u5e7e
p4398
I1
sV\u8f3e\u8f49
p4399
I1
sV\u516c\u5dee
p4400
I1
sV\u514b\u91cc\u65af
p4401
I1
sV\u5de5\u696d\u7528
p4402
I1
sV\u5c0d\u5b55
p4403
I1
sV\u6cd5\u898f
p4404
I1
sV\u9060\u8996
p4405
I1
sV\u6b0a\u5229
p4406
I16
sV\u4e3b\u984c
p4407
I5
sV\u5287\u8ff7
p4408
I1
sV\u5206\u4e58
p4409
I1
sV\u5167\u5bb9
p4410
I20
sV\u25ce
p4411
I1
sV\u62c9\u62c9
p4412
I1
sV\u516c\u958b\u8cfd
p4413
I2
sV\u6e96\u5099
p4414
I8
sV\u4e0d\u653e
p4415
I1
sVPatty
p4416
I2
sV\u597d\u52d5
p4417
I2
sV\u4ee5\u5f8c
p4418
I5
sV\u53f2\u5bb6
p4419
I1
sVHolyWar
p4420
I1
sV\u6765
p4421
I12
sV\u4e00\u8f29\u5b50
p4422
I1
sV\u4eba\u5747\u6613
p4423
I1
sV\u610f\u5883
p4424
I1
sV\u4ee5\u5f80
p4425
I4
sV\u76f8\u63d0\u4e26\u8ad6
p4426
I1
sV\u5287\u672c
p4427
I1
sV\u63a7\u5236
p4428
I13
sV\u88e1\u9762
p4429
I2
sV\u6625\u5929
p4430
I2
sV\u771f\u5be6\u6027
p4431
I1
sV\u672a\u77e5
p4432
I1
sV\u6625\u590f
p4433
I2
sV\u6771\u5357\u90e8
p4434
I1
sV\u9ad4\u9a57
p4435
I3
sV\u56ca\u62ec
p4436
I1
sV\u675c\u862d
p4437
I2
sV\u5229\u7a7a
p4438
I1
sV\u62cd\u7167
p4439
I1
sV\u9019\u884c
p4440
I2
sV\u6bd2\u5bb3
p4441
I2
sV\u5d29\u6f70
p4442
I1
sV\u8ca0\u8cac
p4443
I9
sV\u91cd\u6574
p4444
I1
sV\u5f71\u7247
p4445
I3
sV\u8d70\u7d05
p4446
I2
sV\u79ae\u6cd5
p4447
I1
sV\u6bd4\u4e00\u5929
p4448
I1
sV\u89e3\u91cb\u70ba
p4449
I1
sV\u77a0\u76ee\u7d50\u820c
p4450
I2
sV\u5152\u7ae5
p4451
I13
sV\u6211\u8981
p4452
I4
sV\u8a08\u756b
p4453
I2
sV\u8521\u4f9d\u73ca
p4454
I16
sV\u7761\u5f97
p4455
I1
sV\u6232\u4efd
p4456
I1
sV\u610f\u5916
p4457
I3
sV\u4f0a\u65af\u5766\u5821
p4458
I1
sV\u8cfd\u8eca
p4459
I1
sV\u666e\u904d
p4460
I1
sV\u4e2d\u5fc3
p4461
I11
sV\u8868\u76ae
p4462
I1
sV\u91cd\u65b0
p4463
I2
sV\u5317
p4464
I1
sV\u514b\u91cc\u59c6\u6797\u5bae
p4465
I1
sV\u500b\u4eba\u5316
p4466
I1
sV\u5916\u8863
p4467
I2
sV\u5916\u8868
p4468
I1
sV\u5154\u5b50
p4469
I16
sV\u679c
p4470
I7
sV\u5982\u65bc
p4471
I1
sV\u8abf\u7bc0
p4472
I1
sV\u9817\u5bcc
p4473
I1
sV\u9ad8\u5347
p4474
I1
sV\u666e\u901a
p4475
I4
sV\u638c\u9580\u4eba
p4476
I1
sVLisa
p4477
I1
sV\u4e0b\u65b9
p4478
I1
sV\u9019\u88e1
p4479
I2
sV\u516b
p4480
I1
sV\u5834\u666f
p4481
I1
sV\u6bd4\u4f8b
p4482
I6
sV\u9032\u53e3
p4483
I7
sV\u5927\u934b
p4484
I1
sV\u5236\u52dd
p4485
I1
sV\u597d\u53cb
p4486
I5
sV\u5404
p4487
I26
sV\u6e96\u5247
p4488
I1
sV\u96b1\u79c1
p4489
I2
sV\u798f\u5cf6
p4490
I1
sV24
p4491
I1
sV25
p4492
I3
sV26
p4493
I4
sV27
p4494
I4
sV20
p4495
I5
sV21
p4496
I1
sV23
p4497
I1
sV\u76f8\u64c1
p4498
I1
sV28
p4499
I4
sV29
p4500
I2
sV\u706b\u71b1
p4501
I2
sV\u5abd\u54aa
p4502
I22
sV\u7b46
p4503
I2
sV\u674e
p4504
I4
sV2D
p4505
I1
sV\u4e2d\u63a7\u53f0
p4506
I1
sV\u98db\u4f86
p4507
I1
sV2L
p4508
I2
sV\u6578\u9031
p4509
I1
sV\u8cfd\u8dd1
p4510
I1
sV\u544a\u8a34
p4511
I6
sV\u4e2d\u7db2\u516c
p4512
I1
sV\u5fa9\u6d3b\u5cf6
p4513
I1
sV\u5730\u5beb
p4514
I1
sV\uff09
p4515
I67
sV\u81ea\u5351
p4516
I1
sV\u6c11\u8abf
p4517
I3
sV\u539f\u4f86
p4518
I4
sV\u6eff\u8154\u71b1\u8840
p4519
I2
sV\u65b9\u624d
p4520
I1
sV\u9003\u96e2
p4521
I1
sV\u8ddd\u96e2
p4522
I2
sV\u958b\u555f
p4523
I1
sV\u5341
p4524
I3
sV\u4ecb\u5165
p4525
I1
sV\u5b88
p4526
I1
sV\u7565\u593e
p4527
I1
sV\u7cbe\u826f
p4528
I1
sV\u7fa9\u52d9\u5f79
p4529
I1
sV\u7c97\u7cd9
p4530
I2
sV\u5927\u9053
p4531
I2
sV\u4e0d\u6703
p4532
I10
sV\u6eab\u99a8
p4533
I1
sV\u610f\u8b58\u5230
p4534
I1
sV\u5ec2\u578b\u8eca
p4535
I1
sV\u9752\u6f80
p4536
I1
sV\u8acb\u6559
p4537
I3
sV\u6cb9\u5916
p4538
I2
sV\u623f\u50f9
p4539
I11
sV\u9010\u6f38
p4540
I8
sV\u6168\u7136
p4541
I1
sV\u5982\u6709
p4542
I1
sV\u8f49\u5f80
p4543
I4
sV\u9053\u5225
p4544
I1
sV\u4f86\u5230
p4545
I4
sV\u2022
p4546
I2
sV\u5b78\u4f4d
p4547
I3
sV\u4e0a\u8ab2
p4548
I1
sV\u516c\u5e73
p4549
I8
sV\u9060\u8fd1
p4550
I1
sV189
p4551
I1
sV\u4fe1\u865f
p4552
I1
sV\u76f8\u95dc
p4553
I21
sV\u7a46
p4554
I3
sV\u611f\u67d3
p4555
I5
sV\u8a18\u9304
p4556
I2
sV\u80fd\u4e0d\u80fd
p4557
I1
sV\u78a9\u58eb
p4558
I3
sV\u6574\u7406
p4559
I1
sV\u9673\u60c5
p4560
I2
sV\u6c11\u9593
p4561
I2
sVb
p4562
I1
sV\u8a66
p4563
I1
sV860
p4564
I1
sV\u9ad8\u51fa
p4565
I2
sV\u9032\u5165
p4566
I12
sV\u8b8a\u9769
p4567
I1
sV\u5927\u91cf
p4568
I6
sV\u5c55\u793a
p4569
I4
sV\u672b\u8449
p4570
I1
sVCustom
p4571
I1
sV\u5982\u679c
p4572
I14
sVorders
p4573
I1
sV\u5c40\u9762
p4574
I2
sV\u4e0d\u6642
p4575
I2
sV\u8e29
p4576
I1
sV\u5be9\u67e5
p4577
I1
sV\u90a3\u88e1
p4578
I2
sV\u554f\u984c
p4579
I20
sV\u8655\u7f70
p4580
I1
sV\u6797\u5fd7\u9d3b
p4581
I1
sV\u5ffd\u7565
p4582
I2
sV\u5e73\u884c
p4583
I2
sV\u4e82\u9ede
p4584
I1
sV\u906d
p4585
I4
sV\u9032\u51fa
p4586
I1
sV\u76ee
p4587
I6
sV\u9ed1\u5fc3
p4588
I2
sV\u4e0d\u6613
p4589
I1
sV\u5e73\u8861
p4590
I4
sV\u64fa
p4591
I1
sV\u4fc4\u65b0
p4592
I1
sV\u8a8d\u5b9a
p4593
I1
sV\u85dd\u8853
p4594
I11
sV\u4ea4\u4ee3
p4595
I1
sV\u53f8\u7a7a\u898b\u6163
p4596
I1
sV\u6a5f\u9047
p4597
I1
sV\u87a2\u5e55
p4598
I1
sV\u9f5f\u9f6c
p4599
I1
sV8
p4600
I11
sV\u7e2b\u88fd
p4601
I1
sV\u72fc\u85c9
p4602
I1
sV\u8dd1
p4603
I2
sV\u5408\u4e4e
p4604
I1
sV\u611f\u60c5
p4605
I2
sV\u8cbb\u7528
p4606
I6
sV\u7adf
p4607
I2
sV\u671f\u76fc
p4608
I1
sV\u6bba\u8cca
p4609
I1
sV\u5167\u5f1f
p4610
I1
sV\u63a2\u8a0e
p4611
I1
sV\u651d\u5f71\u68da
p4612
I2
sV\u670b\u53cb\u5011
p4613
I2
sV\u766c
p4614
I1
sV\u4e0a\u8def
p4615
I1
sV\u4ea4\u4e92
p4616
I1
sV\u8ca1\u7522
p4617
I1
sV\u5154\u5e74
p4618
I1
sV\u666e\u4ec0\u5716
p4619
I3
sV\u670d
p4620
I1
sV\u5f97\u5f88
p4621
I1
sV\u7d44\u7e54
p4622
I5
sV\u6258\u96f7\u591a
p4623
I1
sV\u4e0d\u614e
p4624
I1
sV\u6b4c\u624b
p4625
I4
sV\u5167\u5fc3
p4626
I1
sV\u570d\u7e5e
p4627
I2
sV\u5230\u6e2f
p4628
I1
sV\u70ba\u4ec0\u9ebc
p4629
I7
sV\u7559\u4e0b
p4630
I1
sV\u8868\u73fe
p4631
I3
sV\u5c31\u7b97
p4632
I1
sV\u5949
p4633
I1
sV\u56db\u842c\u516d\u5343
p4634
I1
sV\u8fd4\u9109
p4635
I1
sV\u5faa\u74b0
p4636
I1
sV\u5927\u9678
p4637
I8
sV\u8853
p4638
I3
sV\u8377\u862d\u7c4d
p4639
I1
sV\u8072\u52e2
p4640
I1
sV\u5eff\u4e94\u65e5
p4641
I1
sV\u6649\u5347
p4642
I1
sV\u5df2\u4e0d\u7a31
p4643
I1
sV\u4e00\u4e5d\u4e5d\u516d\u5e74
p4644
I1
sV\u88c1\u7e2b\u5e97
p4645
I1
sV\u522e\u76ee\u76f8\u770b
p4646
I1
sV\u9577\u9752
p4647
I1
sV\u65f6
p4648
I1
sV\u897f\u5143
p4649
I1
sV\u6538\u5f80
p4650
I1
sV\u4e0d\u611b
p4651
I1
sV\u803f\u7d00
p4652
I3
sV\u8aaa\u8a71
p4653
I1
sV\u8c46\u985e
p4654
I1
sV\u7070\u592a\u72fc
p4655
I4
sV\u4e0d\u60f3
p4656
I1
sV\u7f79\u60a3\u7387
p4657
I1
sV\u93ae\u5e97
p4658
I1
sV\u8d77\u5e8a
p4659
I3
sV\u63e1\u8457
p4660
I1
sV\u63db\u7b97
p4661
I1
sV\u5408\u4f5c
p4662
I7
sV\u52df\u5f97
p4663
I1
sV\u5916\u8c8c
p4664
I1
sV\u8490\u8cfc
p4665
I2
sV35mm
p4666
I1
sV\u611f\u61c9
p4667
I1
sV\u5f8c\u76fe
p4668
I1
sV\u6d41\u6dda
p4669
I1
sV\u985e
p4670
I2
sV\u7121\u5948
p4671
I2
sV\u5c0f\u5403
p4672
I1
sV\u5408\u4f75
p4673
I1
sV\u6b50\u746a\u723e
p4674
I3
sV\u59ff\u614b
p4675
I2
sV\u96d9\u773c
p4676
I2
sV\u6e1b\u85e5
p4677
I1
sV\u8208\u696d
p4678
I1
sV\u4efd
p4679
I1
sV\u5854\u91cc\u73ed
p4680
I3
sV\u9580
p4681
I2
sV\u9752\u5c11\u5e74
p4682
I2
sV\u7559\u4f4f
p4683
I1
sV\u8d70\u79c0
p4684
I2
sV\u5149\u4f0f
p4685
I2
sV\u9019
p4686
I85
sV\u731c\u5fcc
p4687
I1
sV\u5718\u9ad4
p4688
I5
sV\u7121\u5984
p4689
I1
sV\u5f62\u540c
p4690
I1
sV\u9015\u884c
p4691
I1
sV\u6d3b
p4692
I1
sV\u516b\u5341
p4693
I1
sV\u9054\u5230
p4694
I7
sV\u80a1\u5e02
p4695
I2
sV\u6bd4
p4696
I9
sV\u6e26\u8f2a
p4697
I1
sV\u5f35\u6674\u5b9c
p4698
I1
sV\u958b\u5200
p4699
I1
sV\u52aa\u529b
p4700
I7
sV\u611f\u6168
p4701
I1
sV\u660f\u6697
p4702
I1
sV\u7cd6\u4efd
p4703
I1
sV\u696d\u8005
p4704
I4
sV\u6905\u80cc
p4705
I1
sV\u96fb\u5f71\u7bc0
p4706
I1
sV\u6b77\u7a0b
p4707
I1
sV\u65d7\u4fca
p4708
I1
sV\u56de\u9109
p4709
I1
sV\u71b1\u60c5
p4710
I1
sV\u9673\u6587
p4711
I1
sV\u674e\u6d77\u6cc9
p4712
I6
sV\u4e0d\u63d0
p4713
I1
sV\u597d\u5403
p4714
I2
sV\u63d0\u7149
p4715
I2
sV\u773c\u77bc
p4716
I1
sV\u795e\u5b78\u9662
p4717
I1
sV\u4ee5\u5927
p4718
I1
sV\u968e\u5c64
p4719
I1
sV\u8fd1
p4720
I2
sV\u659f\u914c
p4721
I3
sV\u7db2\u969b\u7db2\u8def
p4722
I1
sV\u5354\u52a9
p4723
I2
sV\u65b9\u529b\u7533
p4724
I1
sV\u9ede\u9ede\u982d
p4725
I1
sV\u963f\u5b0c
p4726
I2
sV\u4e0a\u8ff0
p4727
I5
sV\u4ee5\u5916
p4728
I2
sV\u5df2\u6687\u5730
p4729
I1
sVManagement
p4730
I1
sV\u9084
p4731
I21
sV\u4e0d\u6368
p4732
I1
sV\u4e0a\u8f09
p4733
I2
sV\u5417
p4734
I1
sV\u884c\u4f7f
p4735
I4
sV\u90ca\u5340
p4736
I1
sV\u91d1\u99ac
p4737
I2
sV\u5750\u5750
p4738
I1
sV\u6cd5\u8f9b
p4739
I1
sV\u897f\u5317
p4740
I4
sV\u8a79\u59c6\u65af
p4741
I1
sV\u54ac
p4742
I2
sV\u93ae
p4743
I1
sV\u9e7d\u5df4
p4744
I1
sV300
p4745
I5
sVSyndication
p4746
I1
sV\u884c\u60c5
p4747
I1
sV\u6392\u64e0
p4748
I1
sV\u5747\u4fc2
p4749
I2
sV\u6761
p4750
I2
sV\u63a5\u89f8\u6027
p4751
I1
sV\u5949\u547d
p4752
I1
sV\u4e00\u500b\u500b
p4753
I1
sV\u651d\u5f71\u6a5f
p4754
I1
sV\u5f88\u7a69
p4755
I1
sV\u589e\u52a0
p4756
I7
sV\u521d\u8a66\u557c\u8072
p4757
I1
sV\u616b\u607f
p4758
I1
sV\u516c\u5a46
p4759
I1
sV\u7455\u75b5
p4760
I1
sV\u8f3e\u8f49\u53cd\u5074
p4761
I1
sV\u5973\u738b
p4762
I1
sV\u5287\u60c5
p4763
I1
sV\u62c9\u650f
p4764
I1
sVAngelababy
p4765
I1
sV\u7576\u982d\u68d2\u559d
p4766
I1
sV\u6124
p4767
I1
sV\u63c6\u8af8
p4768
I1
sV\u6182\u9b31
p4769
I2
sV\u9072\u65e9
p4770
I1
sV\u6709\u81f4
p4771
I1
sV\u6301\u7e8c
p4772
I9
sV\u932f\u7d9c
p4773
I2
sV\u9010\u6b65
p4774
I2
sV\u4e09\u8981
p4775
I2
sV09
p4776
I13
sV\u5c0d\u5cb8
p4777
I1
sVPAJERO
p4778
I3
sV\u4efb\u4f55
p4779
I24
sV\u4e2d\u592e
p4780
I2
sV\u54ed
p4781
I1
sV\u884c\u4e8b
p4782
I1
sV\u4ed8\u51fa
p4783
I1
sV\u7f70
p4784
I1
sV\u86cb\u7cd5
p4785
I1
sV\u53f0\u5851
p4786
I8
sV\u5165\u4eac
p4787
I1
sV\u517c\u4efb
p4788
I2
sV\u8eab\u5206
p4789
I5
sV%
p4790
I31
sV\u8001\u516c
p4791
I5
sV\u751a\u81f3\u65bc
p4792
I1
sV\u8001\u5175
p4793
I28
sV\u731c\u731c
p4794
I1
sV\u65d7\u4e0b
p4795
I1
sV\u5df4\u570b
p4796
I4
sV\u5152\u79d1
p4797
I1
sV\u5a92\u9ad4
p4798
I6
sV\u570b\u9632
p4799
I1
sV\u6293\u4e0d\u5230
p4800
I1
sV2002
p4801
I2
sV\u56e0\u5b50
p4802
I2
sVAsian
p4803
I1
sV2004
p4804
I1
sV2005
p4805
I1
sV\u7d50\u5408
p4806
I3
sV\u796d\u51fa
p4807
I1
sV\u7576\u4ee3
p4808
I2
sV\u53bb\u5e74
p4809
I3
sV\u5408
p4810
I1
sV\u99ac\u4e0a
p4811
I3
sV\u958b\u5fc3
p4812
I2
sV\u6240\u4ee5
p4813
I15
sV\u52dd
p4814
I2
sV\u7d05\u773c\u75c7
p4815
I1
sV\u53e4\u8a9e
p4816
I1
sV\u53e5\u9ede
p4817
I1
sV\u90c1\u7b71\u60e0
p4818
I1
sV\u771f\u8aa0
p4819
I2
sV\u88e1
p4820
I15
sV\u5c0f\u5929
p4821
I3
sV\u6bcd\u4e73
p4822
I1
sV\u907a\u50b3
p4823
I2
sV\u897f\u5ddd
p4824
I2
sV\u7576\u4e86
p4825
I1
sV\u5317\u90e8
p4826
I1
sV\u6253\u8f49
p4827
I1
sV\u958b\u5f9e
p4828
I2
sV\u5c0d\u5149\u4f0f
p4829
I1
sV\u8f49\u5411
p4830
I2
sV\u6240\u5728\u5730
p4831
I1
sV3C
p4832
I1
sV\u9ee8\u653f\u8ecd
p4833
I1
sV\u6b0a\u5a01
p4834
I1
sV3D
p4835
I6
sV\u6392\u6a94
p4836
I1
sV\u6cd5\u723e\u5be8
p4837
I1
sV\u5be6\u969b
p4838
I5
sV\u73ed\u5e2b
p4839
I1
sV\u623f\u5b50
p4840
I1
sV\u4e00\u64ca
p4841
I1
sV\u8001\u5e74
p4842
I1
sV\u5236\u5b9a
p4843
I1
sV\u8db3\u4ee5
p4844
I1
sV\u9435\u5291
p4845
I1
sV\u958b\u5f35
p4846
I1
sV\u66f4\u6703
p4847
I1
sV\u7576\u4e0a
p4848
I1
sV30
p4849
I14
sV\u76f8\u4ea4
p4850
I1
sV\u5927\u9a5a
p4851
I1
sV35
p4852
I3
sVJennifer
p4853
I1
sV\u5206\u6ccc\u7269
p4854
I1
sV\u96a8\u610f
p4855
I2
sV\u7d00\u5ff5\u7ae0
p4856
I3
sV\u9451\u5b9a
p4857
I1
sVFU
p4858
I1
sV\u7387
p4859
I4
sV\u8840\u91cf
p4860
I1
sV\u2026
p4861
I20
sV\u5317\u91ab
p4862
I3
sV\u7167\u7247
p4863
I3
sV\u9130
p4864
I1
sV\u5f97\u5230
p4865
I2
sV\u6cb9
p4866
I8
sV\u653b\u64ca
p4867
I3
sV\u4e3a
p4868
I3
sV\u5c55\u73fe
p4869
I1
sV\u5e74\u8f15
p4870
I6
sV\u93e1\u982d
p4871
I1
sV\u4e2d\u570b
p4872
I22
sV\u5d84\u9732\u982d\u89d2
p4873
I1
sV\u4e3b\u88ab\u52d5
p4874
I1
sV\u85dd\u8853\u5c55
p4875
I2
sV\u597d\u5b55
p4876
I1
sV\u8d85\u503c
p4877
I2
sV\u7406\u5de5
p4878
I1
sV\u8bf7
p4879
I1
sV\u81fb
p4880
I1
sV\u6642\u597d\u6642\u58de
p4881
I1
sV\u81e8\u6642\u5de5
p4882
I2
sV\u6ce2\u65af
p4883
I1
sV\u50b3\u627f\u7d66
p4884
I1
sV\u77f3\u6cb9
p4885
I1
sV\u64a4\u5175
p4886
I1
sV\u4f86\u4fe1
p4887
I1
sV\u9019\u80a1
p4888
I1
sV\u5c08\u5bb6
p4889
I1
sV\u5957\u4ef6
p4890
I2
sV\u958b\u5e55
p4891
I8
sV\u7576\u4f5c
p4892
I1
sV\u652f\u8d70
p4893
I1
sV\u5718\u968a
p4894
I5
sV\u4e2d\u578b
p4895
I1
sV\u5189\u5189
p4896
I3
sV\u6bd4\u5982\u8aaa
p4897
I2
sV\u9eb5\u5305
p4898
I2
sV\u805a\u9928
p4899
I1
sV\u82db\u523b
p4900
I1
sVOttoman
p4901
I1
sV\u8001\u5f35
p4902
I2
sV\u5c0f\u5b69
p4903
I2
sV\u7bc0\u594f
p4904
I1
sV\u8fd1\u5e74\u4f86
p4905
I2
sV\u6eab\u9152
p4906
I1
sV\u4ea6\u5373
p4907
I1
sV\u5c0f\u5b78
p4908
I1
sV\u5f62\u5bb9
p4909
I1
sV\u9032\u5834
p4910
I1
sV\u6ce2\u6602
p4911
I2
sV\u6628
p4912
I1
sV\u5eda\u623f
p4913
I1
sV\u6211\u82b1
p4914
I1
sV\u570b\u7522
p4915
I1
sV\u5012\u53f0
p4916
I1
sV\u6b72\u5b9a
p4917
I1
sV\u5927\u90e8\u5206
p4918
I2
sV\u9ad8\u58d3
p4919
I1
sV\u975e
p4920
I1
sV\u6280\u5de7
p4921
I3
sV\u63a5\u4e0b\u4f86
p4922
I1
sV\u66f4\u65b0
p4923
I2
sV\u96e3\u5f97
p4924
I1
sV\u6258\u7dad\u65af\u57fa
p4925
I3
sV\u90fd\u8fd9\u4e48
p4926
I1
sV\u5982
p4927
I9
sV\u7d05
p4928
I2
sV\u7b2c\u5341\u4e00
p4929
I1
sV\u91cd\u6eab
p4930
I1
sV\u74b0\u5883
p4931
I12
sV\u7f3a\u61be
p4932
I1
sV\u5c0f\u5bf6
p4933
I2
sV\u8d85\u53e3
p4934
I1
sV\u897f\u5f0f
p4935
I1
sV\u91d1\u9580
p4936
I4
sV\u4eba\u751f
p4937
I5
sV\u6709\u9053\u662f
p4938
I1
sV\u6837
p4939
I1
sV\u73fe\u72c0
p4940
I1
sV\u500b\u80a1
p4941
I1
sV580
p4942
I1
sV\u96c0\u8e8d
p4943
I1
sV\u91d1\u99ac\u734e
p4944
I3
sV\u7b2c\u5341\u4e5d
p4945
I1
sV\u5730\u5340
p4946
I10
sV\u6797\u9cf3\u73b2
p4947
I1
sV\u529b\u91cf
p4948
I2
sV\u529f\u80fd
p4949
I7
sV\u71b1\u6c34
p4950
I1
sV\u4f86\u5bf6
p4951
I1
sV\u7d1a\u5225
p4952
I1
sV\u8da8\u5411
p4953
I1
sV\u967d\u79d8
p4954
I1
sV\u6c34\u816b
p4955
I1
sV\u50b7\u5bb3
p4956
I1
sV\u92c1\u5708
p4957
I1
sV\u8f49\u578b
p4958
I1
sV\u63d2\u79e7
p4959
I1
sV\u53ef\u611b
p4960
I3
sV\u5366\u8fad
p4961
I1
sV\u4e0d\u6eff
p4962
I1
sV\u610f\u5373
p4963
I1
sV\u904b\u9001
p4964
I1
sV\u800c\u8a00
p4965
I6
sV\u6b50\u76df
p4966
I1
sV\u5bb6\u990a\u80ce
p4967
I1
sV\u675f\u624b\u7121\u7b56
p4968
I1
sV\u529b\u9053
p4969
I1
sV\u5fc3
p4970
I2
sV\u751f\u83dc
p4971
I3
sV\u597d\u597d
p4972
I4
sV\u9752\u6625
p4973
I1
sV\u6dda\u7051
p4974
I1
sV\u5916\u96fb
p4975
I3
sV\u66fe\u5411
p4976
I2
sV\u589e\u5f37
p4977
I3
sV\u554f\u865f
p4978
I2
sV\u597d\u5947
p4979
I1
sV\u633a\u8457
p4980
I1
sV\u6211\u611b
p4981
I1
sV\u5bec\u5bb9
p4982
I1
sV\u4e8e
p4983
I1
sV\u6211
p4984
I104
sV\u5976\u5976
p4985
I1
sV\u96aa\u60e1
p4986
I1
sV\u53ef\u6190
p4987
I1
sV\u5927\u9910
p4988
I2
sV\u6297\u8faf
p4989
I1
sV\u5b69\u5b50
p4990
I42
sV\u96e2\u958b
p4991
I3
sV\u96e2\u9593
p4992
I1
sV\u898b\u5206\u66c9
p4993
I1
sV\u9ec3\u8212\u885b
p4994
I4
sV\u63d0
p4995
I1
sV\u9069\u4e2d
p4996
I1
sV\u7325
p4997
I1
sV\u56db\u5c0f
p4998
I1
sV\u56de
p4999
I2
sV\u4e92\u52d5
p5000
I5
sV\u520a\u767b
p5001
I5
sV\u5b78\u5e74\u5ea6
p5002
I5
sV\u505c\u85e5
p5003
I2
sV\u807d
p5004
I6
sV\u897f\u73ed\u7259
p5005
I1
sV\u66fe
p5006
I11
sV\u516c\u5143
p5007
I1
sV\u6709\u8fd1
p5008
I1
sV\u7d50\u675f
p5009
I3
sV\u9015\u81ea
p5010
I1
sV\u8da8\u52e2
p5011
I4
sV\u652f\u88d4
p5012
I1
sV\u610f\u5473
p5013
I1
sV\u53ef\u662f
p5014
I4
sV\u524d\u4e8c
p5015
I2
sV\u9ad8\u5ea6
p5016
I4
sV\u8ca1\u7d93
p5017
I4
sV\u516c\u5171
p5018
I1
sV\u65b9\u6cd5
p5019
I7
sV\u800c\u8d77
p5020
I1
sV\u5f9e\u83ef\u65e5
p5021
I1
sV\u91dd\u5c0d
p5022
I9
sV\u9b5a
p5023
I1
sV\u65fa\u8eca\u7db2
p5024
I1
sV\u7be1\u653f
p5025
I1
sV\u5167\u5728
p5026
I1
sV\u5b63\u520a
p5027
I1
sV\u9000\u8a13
p5028
I1
sV\u8a8d\u540c
p5029
I1
sV\u5bb6\u65cf
p5030
I3
sV\u5f9e\u672a
p5031
I1
sV\u5e95\u4e0b
p5032
I1
sV\u7ad9\u7acb
p5033
I1
sV\u4e00\u4e5d\u4e03\u4e00\u5e74
p5034
I1
sV\u8001\u5a46
p5035
I1
sV\u6210\u4eba
p5036
I1
sV\u9b06\u5f1b
p5037
I1
sV\u5fc3\u7406
p5038
I10
sV\u986f\u793a\u5668
p5039
I1
sV\u5c3a\u78bc
p5040
I1
sV\u6210\u4ea4
p5041
I1
sV\u4e3b\u5c0e\u6027
p5042
I1
sV\u985e\u4f3c
p5043
I1
sV\u64da\u8aaa
p5044
I1
sV\u4ee5\u53ca
p5045
I24
sV\u5409\u7c73
p5046
I2
sV\u7761\u524d
p5047
I2
sV\u56db\u5b63
p5048
I1
sV\u76f8\u6a5f
p5049
I1
sV\u90fd\u6703
p5050
I5
sV\u8bba
p5051
I1
sV\u5834\u6b21
p5052
I2
sV\u908f\u8f2f
p5053
I1
sV\u60e1\u52a3
p5054
I2
sV\u4fef\u885d\u5230
p5055
I1
sV\u7dad\u6301
p5056
I4
sV\u53f0\u5317
p5057
I7
sV\u5149
p5058
I1
sV\u70c8
p5059
I1
sV\u4f4d\u7f6e
p5060
I2
sV\u4f4d
p5061
I17
sV\u5929\u96f7
p5062
I4
sV\u8abf\u76ae
p5063
I1
sV\u6a02\u6350
p5064
I2
sV\u5076\u7136
p5065
I1
sV\u6bcf\u7576
p5066
I1
sV\u5927\u8dcc
p5067
I1
sV\u5438\u5f15\u529b
p5068
I1
sV\u57fa\u91d1\u6703
p5069
I1
sV\u672c\u4f86
p5070
I2
sV\u53ef\u671b
p5071
I2
sV\u6750\u8cea
p5072
I1
sV\u4ee5\u524d
p5073
I10
sV\u5e78\u904b
p5074
I1
sV\u524d\u4f86
p5075
I1
sV\u5c0f\u5c4b
p5076
I1
sV\u5f8c\u7e8c
p5077
I1
sV\u62ff\u4e0b
p5078
I1
sV\u6539\u4f5c
p5079
I4
sV\u5e2d\u6372
p5080
I1
sV\u300aVOGUE\u300b
p5081
I2
sV\u6027\u683c
p5082
I2
sV\u4ee5\u5229
p5083
I1
sV\u8ecd
p5084
I2
sV\u59b9\u59b9
p5085
I2
sV\u773c\u93e1
p5086
I1
sV\u4fdd\u96aa\u696d
p5087
I1
sV\u75db
p5088
I1
sV\u6ef2\u6f0f
p5089
I1
sV\u9055\u53cd
p5090
I6
sV\u4f46\u5fc3
p5091
I1
sV\u5df4\u723e\u5e79\u534a\u5cf6
p5092
I1
sV\u60e1\u5316
p5093
I2
sV\u690d\u5165
p5094
I6
sV\u5236\u5ea6
p5095
I1
sV\u5c0f\u5cf6
p5096
I1
sV\u57fa\u672c\u76e4
p5097
I1
sV)
p5098
I46
sV\u5f35\u827e\u5609
p5099
I1
sV\u7b26\u865f
p5100
I1
sV\u5175\u99ac
p5101
I1
sV\u6708\u4eae
p5102
I1
sV\u4e0d\u8fc7\u6709\u4eba\u8bf4\u5979\u6ca1\u91c7\u6d01
p5103
I1
sV\u7d50\u5e33
p5104
I1
sV\u6708\u4ed8
p5105
I1
sV\u4eba\u7269
p5106
I3
sV\u71c8
p5107
I1
sV\u5cf0\u6703
p5108
I5
sV\u5c08\u5fc3
p5109
I1
sV\u9686\u91cd
p5110
I1
sV\u50de
p5111
I1
sV\u5927\u9152\u5e97
p5112
I3
sV\u6885\u65af
p5113
I2
sV\u95dc\u9375
p5114
I1
sV\u6975\u81f4
p5115
I1
sV\u5173
p5116
I4
sV\u623f\u5e02
p5117
I1
sV\u8868\u793a
p5118
I37
sV\u5e02\u4e2d\u5fc3
p5119
I1
sV\u67e5\u8a62
p5120
I4
sV\u5229\u7528
p5121
I4
sV\u6293
p5122
I1
sV\u653f\u9ee8
p5123
I1
sV\u5c24\u5176
p5124
I6
sV\u559d
p5125
I6
sV\u4ee5\u514d
p5126
I3
sV\u8001\u4e00\u8f29
p5127
I2
sV\u958b\u59cb
p5128
I19
sV\u6b7b\u4e86
p5129
I1
sV\u9813\u6642
p5130
I1
sV\u5d84\u65b0
p5131
I1
sV\u7981\u5403
p5132
I1
sV\u4e8c\u4ee3
p5133
I1
sV\u5831\u7d19
p5134
I1
sVChang\u3011
p5135
I1
sV\u8cb7\u4e0d\u8d77
p5136
I1
sV\u6642\u7a0b
p5137
I1
sV\u91cf\u5316
p5138
I1
sV\u6d1b\u6749\u78ef
p5139
I1
sV\u600e\u9ebc\u8fa6
p5140
I1
sV\u59d4\u8a17
p5141
I1
sV\u7d17\u8cea
p5142
I1
sV\u5c0f\u5f1f
p5143
I3
sV\u5c08\u5c6c
p5144
I3
sV\u4e00\u842c\u4e94\u5343
p5145
I1
sV\u6709\u8da3
p5146
I2
sV\uff01
p5147
I63
sV\u6aa2\u67e5
p5148
I5
sV\u570b\u5167\u5916
p5149
I1
sV\u821e\u8e48
p5150
I1
sV\u7b49\u4e00\u4e0b
p5151
I1
sV\u561b
p5152
I3
sV\u9023\u6230
p5153
I1
sV\u98a8\u683c
p5154
I3
sV\u5f62\u5f0f
p5155
I2
sV\u5c0f\u5fc3
p5156
I1
sV\u9023\u7720
p5157
I1
sV\u966a\u540c
p5158
I1
sV\u59d3\u540d
p5159
I1
sV\u60c5\u4fb6
p5160
I1
sV\u9707\u76ea
p5161
I3
sV\u516c\u53f8
p5162
I50
sV\u983b\u983b
p5163
I1
sV\u9ad8
p5164
I10
sV\u859b\u60e0\u73cd
p5165
I2
sV\u7d30\u9577
p5166
I1
sV\u6280\u8853
p5167
I7
sV\u64a5\u7247
p5168
I1
sV\u54c1\u8cea
p5169
I7
sV\u5ee3\u544a\u5546
p5170
I1
sV\u9ad8\u5c64
p5171
I1
sV\u56e0\u524d
p5172
I2
sV\u5468\u6770\u502b
p5173
I1
sV\u5b89\u5371
p5174
I2
sV\u75c5\u6bd2\u6027
p5175
I1
sV\u54c0\u50b7
p5176
I1
sV\u5a01\u8105\u6027
p5177
I1
sV\u50bb\u6389
p5178
I1
sV\u5f00
p5179
I2
sV\u770b\u9060
p5180
I2
sV\u7e3d\u6578
p5181
I3
sV\u57fa\u58a8\u79c0
p5182
I1
sV\u5feb\u901f
p5183
I7
sV\u751c
p5184
I1
sV\u555f\u767c
p5185
I1
sV\u67e5\u8b49
p5186
I2
sV1980
p5187
I1
sV\u6cb9\u54c1
p5188
I4
sV\u806f\u5408
p5189
I2
sV\u770b\u904d
p5190
I1
sV1989
p5191
I1
sV\u4e00\u908a
p5192
I6
sV\u4e2d\u5171
p5193
I1
sV\u901f\u5ea6
p5194
I3
sV\u793e\u6703
p5195
I1
sV\u56e0\u539f
p5196
I1
sV\u7591\u554f
p5197
I1
sV\u516c\u5206
p5198
I2
sV\u5bb6\u66f8
p5199
I1
sV\u8a31\u660c
p5200
I1
sV\u67ef\u6797\u9813
p5201
I1
sV\u5982\u6b64
p5202
I7
sV\u4f60
p5203
I44
sV\u5e7d\u9ed8\u611f
p5204
I1
sV\u8cbc\u4e0a
p5205
I1
sV\u6d17\u7df4
p5206
I1
sV\u6392\u6d41
p5207
I1
sV\u5973\u5b69\u5152
p5208
I1
sV\u610f\u5716
p5209
I1
sV\u56de\u9867
p5210
I1
sV\u4f46\u8fd1
p5211
I1
sV\u6e1b\u8f15
p5212
I2
sV\u96fb\u5f71\u7248
p5213
I1
sVcrusade
p5214
I1
sV\u9a19
p5215
I1
sV\u653b\u6253
p5216
I1
sV\u65b0\u6d88\u606f
p5217
I1
sV\u9810\u7b97
p5218
I7
sV\u8863\u6ac3
p5219
I1
sV\u5831\u7cfb
p5220
I1
sV45
p5221
I1
sV42
p5222
I5
sV40
p5223
I2
sV\u624b\u7e8c
p5224
I1
sV\u91ab\u9662\u7ad9
p5225
I3
sV\u96a8\u6642
p5226
I5
sV\u4ed6\u4eba
p5227
I7
sV\u8ce0\u511f
p5228
I6
sV\u906d\u4eba
p5229
I1
sV\u60c5\u4ec7
p5230
I1
sV\u73ed\u5948
p5231
I1
sV\u67d0
p5232
I3
sV\u5317\u975e
p5233
I3
sV\u79d8\u7ac5
p5234
I2
sV\u5c55\u73fe\u51fa
p5235
I1
sV\u5076\u723e
p5236
I1
sV\u8463\u4e8b
p5237
I6
sV\u8001\u5927
p5238
I1
sV\u5275\u5efa
p5239
I1
sV\u662f\u5426
p5240
I10
sV\u516c\u5171\u885b\u751f
p5241
I1
sVCEO
p5242
I1
sV\u5373
p5243
I13
sV\u8271\u5de8
p5244
I1
sV\u52a0\u901f
p5245
I3
sV\u7d42\u70ba
p5246
I1
sV\u897f\u65b9
p5247
I9
sV\u5275\u610f
p5248
I1
sV\u600e\u9ebc
p5249
I4
sV\u6599
p5250
I1
sV\u91ab\u7642\u6cd5
p5251
I1
sV\u745e\u5fb7
p5252
I2
sV\u5c0d\u6bd4
p5253
I1
sV\u7f8e\u806f\u793e
p5254
I1
sV\u6b32
p5255
I1
sV\u7136
p5256
I2
sV\u5e95\u7247
p5257
I1
sV\u5bbd
p5258
I1
sV\u808c\u529b
p5259
I1
sV\u4e00\u9ede\u4e00\u6ef4
p5260
I1
sV@
p5261
I2
sV\u9673\u5049\u5f37
p5262
I1
sVGQ
p5263
I4
sV\u8a31\u591a
p5264
I12
sV\u7662
p5265
I1
sV\u852c\u83dc\u985e
p5266
I1
sV\u852c\u98df
p5267
I1
sV\u8bdd
p5268
I2
sV\u63a5\u529b\u8cfd
p5269
I1
sV\u5168\u7247
p5270
I2
sV\u5c0d\u6b64
p5271
I1
sVWu\u3011
p5272
I1
sVKroes
p5273
I1
sV\u6986
p5274
I2
sV\u75ca\u7652
p5275
I1
sV\u61c9\u8996
p5276
I1
sV\u9130\u570b
p5277
I1
sV\u8840\u6db2
p5278
I1
sV\u81f4\u547d
p5279
I1
sV\u5403\u98ef
p5280
I2
sV\u8fd1\u8ddd\u96e2
p5281
I1
sV\u6309\u5716\u7d22\u9a65
p5282
I1
sV\u64c1\u62b1
p5283
I1
sV\u516d\u767e\u591a
p5284
I1
sV\u80f8\u8154
p5285
I1
sV\u96f2\u7aef
p5286
I2
sV\u672c\u7247
p5287
I3
sV\u4e8c\u5104\u516d\u5343\u842c
p5288
I1
sV\u89c6
p5289
I1
sV\u9069\u7528
p5290
I1
sV\u7206\u767c\u529b
p5291
I1
sV\u63db\u4e0a
p5292
I1
sV\u885b
p5293
I1
sV\u527f\u8463
p5294
I1
sV\u8853\u79d1
p5295
I3
sV\u8001\u662f
p5296
I1
sV\u7121\u6cd5
p5297
I26
sV\u56db\u672c
p5298
I1
sV\u5f80\u5f80
p5299
I1
sV\u9673\u529f
p5300
I3
sV\u5f92\u773e
p5301
I1
sV\u591a\u6a23\u5316
p5302
I1
sV\u7f85\u6c38\u6b3d
p5303
I3
sV\u7981\u6b62
p5304
I1
sV\u5fb7\u6240
p5305
I1
sV\u8db3
p5306
I1
sV\u5f7c\u6642
p5307
I1
sV\u89ba\u5f97
p5308
I19
sV\u81ea\u8a02
p5309
I3
sV\u6838\u53ef
p5310
I1
sV\u81ea\u8a71
p5311
I1
sV\u570b\u4e2d
p5312
I1
sV\u9ad8\u63da
p5313
I1
sVphone
p5314
I1
sV\u8003\u751f
p5315
I6
sV\u516c\u6c11
p5316
I1
sV\u51b7\u843d
p5317
I1
sV\u9000\u5316\u6027
p5318
I1
sV\u66ab\u5225
p5319
I1
sV\u9664\u8349
p5320
I1
sV\u61f7\u5ff5
p5321
I1
sV\u8a72
p5322
I23
sV\u6b23\u8cde
p5323
I1
sV\u5df7\u5b50
p5324
I1
sV\u7531\u7f85\u8fea
p5325
I1
sV\u96f2\u9704\u98db\u8eca
p5326
I1
sV\u7cdc\u721b
p5327
I1
sV\u5e15
p5328
I1
sV\u81ea\u8aaa
p5329
I1
sV\u89c0\u8cde
p5330
I1
sV\u968e\u6bb5
p5331
I7
sV\u6e05\u6668
p5332
I1
sV\u5354\u8abf\u6027
p5333
I1
sV\u76e1\u91cf
p5334
I1
sV\u5167\u653f\u90e8
p5335
I2
sV\u6e05\u6670
p5336
I1
sV\u7f8e\u9e97
p5337
I4
sV\u5f0f\u5fae
p5338
I1
sV\u8eca
p5339
I3
sV\u5410\u69fd
p5340
I1
sV\u5c0d\u7acb\u9762
p5341
I1
sV\u4e0d\u540c
p5342
I12
sV\u871a\u8a9e
p5343
I1
sV\u7fa9\u8ce3\u50f9
p5344
I1
sV\u96e3\u641e
p5345
I1
sV\u5433\u6167\u654f
p5346
I1
sV\u8cac\u4efb
p5347
I10
sV\u56de\u6559\u5f92
p5348
I8
sV\u7fa8\u6155
p5349
I1
sV\u795d\u798f
p5350
I2
sV\u5341\u4e5d\u4e16\u7d00
p5351
I1
sV\u8a73\u95b1
p5352
I2
sV\u653b\u5fc3
p5353
I1
sV\u6b77\u5e74\u4f86
p5354
I1
sV400
p5355
I1
sV\u518d\u5305
p5356
I1
sV\u8a71\u8853
p5357
I1
sV\u4f7f\u51fa
p5358
I1
sV\u4e94\u9cf3
p5359
I1
sV\u7ed3
p5360
I2
sV\u5df2\u6703
p5361
I1
sV\u8d70\u4e0a
p5362
I1
sV\u9055\u6cd5
p5363
I2
sV\u6771\u897f
p5364
I4
sV\u6771\u4eac
p5365
I1
sV\u7387\u8ecd\u9032
p5366
I1
sV\u611b\u7b11
p5367
I2
sV\u81ea\u89ba
p5368
I5
sV\u6210\u70ba
p5369
I11
sV\u778e
p5370
I1
sV\u91ab\u56d1
p5371
I2
sV\u81f3\u8981
p5372
I1
sV\u9023\u5e36
p5373
I1
sV\u5230\u5834
p5374
I1
sV\u5fa9\u8015
p5375
I1
sV\u8521\u8000\u6587
p5376
I1
sV\u8d35
p5377
I5
sV\u4ee5\u6dda
p5378
I1
sV\u65e5\u8a18
p5379
I1
sV\u576a\u6578
p5380
I3
sV\u963f\u91cc\u5df4\u5df4
p5381
I1
sV\u80b2\u5152
p5382
I2
sV\u4f7f\u5176
p5383
I1
sV\u597d\u60f9
p5384
I1
sV\u6539\u70ba
p5385
I1
sV\u9673\u5143
p5386
I2
sV\u9818\u8896
p5387
I6
sV\u958b\u653e
p5388
I4
sV\u5361
p5389
I1
sV\u5982\u56e0
p5390
I1
sV\u76f8\u540c
p5391
I2
sV\u8dcb\u6248
p5392
I2
sV\u91cd\u56de
p5393
I1
sV\u4ec0\u9ebc
p5394
I10
sV\u9752\u5e74
p5395
I2
sV\u54c8\u4f5b
p5396
I1
sV\u8349\u539f
p5397
I2
sV\u5e74\u8f15\u5316
p5398
I2
sV\u91cc\u9577
p5399
I1
sV\u76ae\u819a
p5400
I5
sV\u9000\u5316
p5401
I3
sV\u53ef\u591a
p5402
I1
sV\u689d
p5403
I3
sV\u4ee5\u6c42
p5404
I1
sV\u4ee5\u70ba
p5405
I3
sV\u597d\u610f
p5406
I1
sV\u4e73\u5316\u8853
p5407
I4
sV\u9996\u9801
p5408
I1
sV\u8cc7\u91d1
p5409
I2
sV\u88dd
p5410
I1
sV\u8a17\u4ed8
p5411
I2
sV\u9996\u5ea6
p5412
I4
sV\u79c9\u627f
p5413
I1
sV\u61c9\u8a72
p5414
I4
sV\u8d85\u6a21
p5415
I3
sV\u6551\u6fdf
p5416
I1
sV\u9078\u9805
p5417
I1
sV\u81ea\u884c
p5418
I6
sV\u651d\u88fd
p5419
I1
sV\u56f0\u96e3\u91cd\u91cd
p5420
I1
sV\u4efb\u7b49
p5421
I1
sV\u937e\u9e97\u7df9
p5422
I2
sV\u4e94
p5423
I4
sV\u4e09
p5424
I12
sV\u71b1\u6c7d\u7403
p5425
I1
sV\u65ac\u9996
p5426
I2
sV\u5834\u5408
p5427
I1
sV-
p5428
I95
sV\u6210\u719f
p5429
I7
sV\u91cd\u578b
p5430
I6
sV\u5426\u5b9a\u6389
p5431
I1
sV\u5f62\u6210
p5432
I4
sV\u50c5\u6b21\u65bc
p5433
I1
sV\u5b78\u7fd2
p5434
I9
sV\u5bb6\u55bb\u6236\u66c9
p5435
I2
sV\u53d7\u7406
p5436
I1
sV\u6392\u51fa
p5437
I2
sV\u7a4d\u6975
p5438
I3
sV\u8209\u5bb6
p5439
I2
sV\u5167\u5206\u6ccc
p5440
I1
sV\u6b4c\u5531
p5441
I2
sV\u751c\u7f8e
p5442
I2
sV\u8212\u9069
p5443
I2
sV\u6240\u7522
p5444
I1
sV\u4e03\u516b\u5206
p5445
I1
sV\u6cb9\u70b8
p5446
I2
sV\u7adf\u7136
p5447
I5
sV\u884c\u7a0b
p5448
I4
sV\u5354\u6703
p5449
I7
sV\u7ce7\u9909
p5450
I2
sV\u71df\u9020
p5451
I2
sV\u4e0d\u51e1
p5452
I1
sV\u5230\u5e95
p5453
I7
sV\u512a\u8cea
p5454
I1
sV\u7d05\u9ed1
p5455
I2
sV\u53f0
p5456
I2
sV\u53f2\u5be6
p5457
I1
sV\u6d17\u548c\u66ec
p5458
I1
sV\u5c0f\u6524
p5459
I1
sV\u6f02\u6cca
p5460
I1
sV\u5e03\u862d\u767b
p5461
I2
sV\u8cb7\u5230
p5462
I1
sV\u5065\u5eb7
p5463
I10
sV\u5099\u53d7
p5464
I1
sV\u7406\u60f3
p5465
I5
sV\u4e0d\u518d
p5466
I5
sV\u7d50\u679c
p5467
I5
sV\u5e03\u723e
p5468
I1
sV\u5b78\u6703
p5469
I1
sV\u52e2\u529b
p5470
I3
sV\u5f37\u51a0\u5f8c
p5471
I2
sV\u6558\u4e8b
p5472
I3
sV\u98f2\u98df
p5473
I10
sV\u4e01\u5b88\u4e2d
p5474
I1
sV\u900f\u51fa
p5475
I1
sV\u6176\u5e78
p5476
I1
sV\u5e95\u76e4
p5477
I3
sV\u65e9\u65bc
p5478
I1
sV\u5f62\u5bb9\u70ba
p5479
I1
sV\u6293\u7f8a
p5480
I1
sV\u7a7a\u7121\u4e00\u7269
p5481
I1
sV\u5275\u65b0
p5482
I6
sV\u7b54\u6848
p5483
I1
sV\u7406\u6027
p5484
I1
sV\u8523\u5b5d\u6b66
p5485
I1
sV\u842c\u5143
p5486
I1
sV\u7e2e\u77ed\u70ba
p5487
I1
sV\u9a5a\u53c8\u559c
p5488
I1
sV\u86cb\u767d\u8cea
p5489
I2
sV\u666e\u83ef\u6c38\u9053
p5490
I1
sV\u518d\u4e00\u6b21
p5491
I1
sV\u796d\u62dc
p5492
I1
sV\u767e\u9918
p5493
I2
sV\u5168\u76db
p5494
I1
sV\u5f37\u8005
p5495
I1
sV\u65e9\u9192
p5496
I1
sV\u56ca\u5728
p5497
I1
sV\u65b9\u5411
p5498
I1
sV\u7a7f
p5499
I1
sV\u706b\u7bad\u7b52
p5500
I1
sV\u65a5\u8cac
p5501
I1
sV\u64c1\u6709
p5502
I6
sV\u611f\u5192
p5503
I1
sV\u300e
p5504
I3
sV\u5c08\u6709
p5505
I1
sV\u51fa\u8272
p5506
I1
sV\u4e0d\u50c5
p5507
I7
sV\u6563\u5149
p5508
I4
sV\u76f8\u53cd
p5509
I1
sV\u4e0d\u50cf
p5510
I1
sV\u5347\u683c
p5511
I1
sV\u958b\u62d3
p5512
I1
sV\u8ddf\u8457
p5513
I3
sV\u7528\u904e
p5514
I1
sV\u9678\u905c
p5515
I1
sV\u9752\u5149\u773c
p5516
I7
sV\u6eff\u8eab\u5305
p5517
I1
sV\u8af8\u4faf
p5518
I2
sV\u6ce1\u5728
p5519
I1
sV\u5dee\u6703
p5520
I1
sV900
p5521
I1
sV\u6392\u540d
p5522
I1
sV\u5d1b\u8d77
p5523
I1
sV\u4e00\u518d
p5524
I1
sV\u6f5c
p5525
I4
sV\u6700\u9060
p5526
I1
sV\u77ed\u77ed
p5527
I2
sV\u77ef\u6b63
p5528
I4
sV\u7de8\u8f2f\u90e8
p5529
I5
sV\u89ba\u5bdf
p5530
I1
sV\u8208\u596e
p5531
I1
sV\u738b\u8463
p5532
I2
sV\u5229\u4eba
p5533
I1
sV\u5c11
p5534
I2
sV\u7591\u96e3\u96dc\u75c7
p5535
I2
sV\u81ea\u8eab
p5536
I2
sV\u5bec\u655e
p5537
I1
sV\u8cbc\u8eab
p5538
I1
sV\u8af8\u4f4d
p5539
I54
sV\u6703\u54e1
p5540
I3
sV\u958b\u6253
p5541
I1
sV\u61c9\u8ca0
p5542
I1
sV\u5b78\u79d1
p5543
I5
sV\u4e00\u822c\u6027
p5544
I1
sV\u641e\u7b11
p5545
I1
sV\u90e8\u9577
p5546
I2
sV\u611f\u5149
p5547
I1
sV\u9802\u5471\u5471
p5548
I1
sV\u4ee3\u8868\u5718
p5549
I1
sV\u8d5b
p5550
I11
sV\u4e5d
p5551
I1
sV\u756b\u9762
p5552
I4
sV\u5bb6\u5c45
p5553
I4
sV\u9cf3\u51f0
p5554
I1
sV\u9054\u6210
p5555
I2
sV\u627e\u5c0b
p5556
I2
sV\u8bf4
p5557
I6
sV\u96c6\u9ad4
p5558
I2
sV\u72c4\u514b
p5559
I1
sV\u4e0d\u53ef
p5560
I3
sV\u806f\u8882
p5561
I1
sV\u4e0d\u53ea
p5562
I2
sV\u6258
p5563
I1
sV\u975c\u8108
p5564
I2
sV\u516c\u6b63
p5565
I3
sV\u54fa\u4e73
p5566
I1
sV\u54ea\u5412
p5567
I1
sV\u90e8\u968a
p5568
I2
sV\u75db\u75db
p5569
I1
sV\u4f60\u5011
p5570
I2
sV\u7099\u71b1
p5571
I1
sV\u5168\u7403
p5572
I11
sV\u96e3\u63a9
p5573
I1
sVD
p5574
I1
sV\u4f46
p5575
I76
sV\u70cf
p5576
I1
sV\u76f8\u5c0d\u65bc
p5577
I1
sV\u541b\u54c1
p5578
I1
sV\u7368\u4e00\u7121\u4e8c
p5579
I1
sV\u63a5\u89f8
p5580
I1
sV\u6e90\u81ea
p5581
I2
sV\u8acb\u51fa
p5582
I1
sV\u8ddd
p5583
I1
sVVOGUE
p5584
I1
sV\u51fa\u767c
p5585
I1
sV\u540d\u9580
p5586
I1
sV55
p5587
I2
sV50
p5588
I8
sV\u4e0b\u5217
p5589
I1
sV\u96a8\u5f8c
p5590
I1
sV\u7684\u6e1d\u6587
p5591
I1
sV\u7d00\u5ff5\u91ab\u9662
p5592
I1
sV\u5c4f\u6771\u5e02
p5593
I1
sV\u7d2f\u7a4d
p5594
I1
sV\u73fe\u4efb
p5595
I2
sV\u88dc\u511f
p5596
I2
sV\u6c11\u653f\u90e8
p5597
I1
sV\u9ec3\u6591\u90e8
p5598
I9
sV\u5fc3\u4e2d
p5599
I3
sV\u611f\u5230
p5600
I5
sV\u73fe\u4eca
p5601
I1
sV\u9650\u984d
p5602
I1
sV\u66f4\u591a
p5603
I14
sV\u5766\u767d
p5604
I2
sV\u7f51
p5605
I1
sV\u88dc\u5145
p5606
I3
sV\u8457
p5607
I21
sV\u59ff\u52e2
p5608
I1
sV\u8aaa\u4e0d\u51fa
p5609
I2
sV\u64c1\u64e0
p5610
I1
sV\u9b06\u6563
p5611
I1
sV\u9ebb\u9189
p5612
I1
sV\u51fa
p5613
I5
sV\u7279\u4ed5
p5614
I5
sV\u5bf6\u8c9d
p5615
I2
sV\u6700
p5616
I29
sV\u50b3\u805e
p5617
I1
sV\u578b
p5618
I6
sV\u5bb6\u5ead
p5619
I3
sV\u7a4d\u6db2
p5620
I1
sV\u6708\u7403
p5621
I3
sV\u9023\u5bb6
p5622
I1
sV\u5c0f\u6642
p5623
I4
sV\u5341\u8db3
p5624
I2
sV\u76ae\u5957
p5625
I1
sV\u7f3a\u5c11
p5626
I1
sV\u672c\u75c7
p5627
I1
sV\u6a02\u58c7
p5628
I1
sV\u611f\u53d7
p5629
I3
sV\u8036
p5630
I2
sV\u55aa\u5931
p5631
I2
sV\u5f9e\u5c0f
p5632
I4
sV\u5b78\u7ae5
p5633
I1
sV\u4fdd\u990a
p5634
I1
sV\u76e5\u800c
p5635
I1
sV\u4e00\u8d77
p5636
I7
sV\u842c\u5206
p5637
I2
sV\u81ea\u8cbb
p5638
I1
sV\u667a\u6167
p5639
I11
sV\u540d
p5640
I7
sV\u81ea\u8cac
p5641
I1
sV\u6dfb\u52a0
p5642
I1
sV\u6b72\u6642
p5643
I1
sV\u4e8c\u773c
p5644
I2
sV\u53cd\u8986
p5645
I1
sV\u6210\u9577\u5230
p5646
I1
sV\u6982\u5ff5
p5647
I1
sV\u5351\u9119
p5648
I1
sV\u65ac
p5649
I1
sV\u5537
p5650
I2
sV\u5bb3\u7f9e
p5651
I2
sV\u56e0\u6b64
p5652
I24
sV\u7bc4\u7587
p5653
I1
sV\u5b9a\u7fa9\u70ba
p5654
I1
sV\u8fad\u4e16
p5655
I1
sV\u5fb7\u5229
p5656
I1
sV\u7576\u7136
p5657
I4
sV\u7e6a\u756b
p5658
I1
sV\u4e0b\u53bb
p5659
I1
sV\u8996\u70ba
p5660
I6
sV\u809a\u76ae
p5661
I1
sV\u4e0d\u5206
p5662
I1
sV\u83ab\u54c8\u683c
p5663
I1
sV\u4e00\u8def
p5664
I1
sV\u5df4\u6731
p5665
I1
sV\u7121\u6bd4
p5666
I1
sV\u79e9\u5e8f
p5667
I1
sV\u7f8e\u98df
p5668
I2
sV\u516d\u842c\u4e94\u5343
p5669
I1
sV\u8981
p5670
I67
sV\u7709\u6bdb
p5671
I2
sV\u5403\u904e
p5672
I1
sV\u4e2d\u6642
p5673
I3
sV\u4e0d\u5dee
p5674
I1
sV\u6a6b\u798d
p5675
I1
sV\u9019\u7fa4
p5676
I3
sV\u4e2d\u6587\u5b57
p5677
I1
sV\u737b\u5e1d
p5678
I1
sV\u4e0d\u5df2
p5679
I1
sV\u9ad8\u6a94
p5680
I2
sV\u5169\u7ad9
p5681
I6
sV\u9670\u5f71
p5682
I5
sV\u5b8c\u7f8e
p5683
I3
sV1940
p5684
I2
sV\u98a8\u4fd7
p5685
I1
sV\u4e00\u822c
p5686
I5
sV1945
p5687
I1
sV\u5931\u8861
p5688
I3
sV\u82f1\u6587\u540d
p5689
I1
sV\u6b6a\u6389
p5690
I1
sV\u6d1b\u65af
p5691
I3
sV\u9078\u932f
p5692
I1
sV\u6b64\u884c
p5693
I1
sV\u7ecf
p5694
I2
sV\u672c\u7ad9
p5695
I1
sV\u7526\u9192
p5696
I1
sV\u50b3\u8f38
p5697
I2
sV\u4e00\u8272
p5698
I1
sV\u8207
p5699
I110
sV\u83ab\u62c9
p5700
I1
sV\u6a02\u5712
p5701
I5
sV\u6a02\u5718
p5702
I1
sV\u5e36\u4f86
p5703
I4
sV\u5f9e\u53f0
p5704
I3
sV\u982d\u90e8
p5705
I3
sV\u5178\u96c5
p5706
I1
sV\u6574\u4fee
p5707
I1
sV\u8de8\u570b
p5708
I1
sV\u9905\u4e7e
p5709
I1
sV\u7562\u696d
p5710
I5
sV\u4fc3\u9032
p5711
I1
sV\u55ae\u5143
p5712
I2
sV\u4e4b\u8def
p5713
I1
sV\u6234\u9ad8\u6a02
p5714
I1
sV\u524d\u83dc
p5715
I2
sV[
p5716
I1
sV\u5ba2\u4eba
p5717
I2
sV\u6b7b\u786c
p5718
I1
sV\u516c\u65a4
p5719
I4
sV\u6b63\u78ba
p5720
I7
sV\u63d0\u4f9b
p5721
I30
sV\u6e6f
p5722
I1
sV\u6c38\u4e45
p5723
I2
sV\u6210\u7acb
p5724
I1
sV\u66c9\u4ee5
p5725
I1
sV\u81f3\u4e00\u4e8c
p5726
I1
sV\u66f4\u540d\u70ba
p5727
I1
sV\u6062\u5fa9
p5728
I5
sV\u85e9\u7c6c
p5729
I1
sV\u986f\u5f97
p5730
I1
sV\u539f\u7406
p5731
I2
sV\u66f8\u8ff7
p5732
I1
sV\u5920
p5733
I3
sV\u8ff8\u88c2
p5734
I1
sV\u6232
p5735
I1
sV\u4e2d\u6771
p5736
I2
sV\u9700\u6c42
p5737
I7
sV\u751c\u751c
p5738
I1
sV\u599d\u9ede
p5739
I2
sV\u4e2d\u6709
p5740
I2
sV\u7ffb\u627e
p5741
I1
sV\u95b1\u8b80
p5742
I5
sV\u907a\u61be
p5743
I1
sV\u592a\u967d
p5744
I1
sV\u7121\u6578
p5745
I2
sV\u4e2d\u671f
p5746
I4
sV\u884c\u70ba
p5747
I9
sV\u767c\u8a00\u4eba
p5748
I1
sV\u504f\u4f4e
p5749
I2
sV\u8584\u5ae9
p5750
I1
sV\u4e2d\u672b
p5751
I1
sV\u5c0d\u6297
p5752
I2
sV\u5b78\u751f
p5753
I1
sV\u672a\u4f86
p5754
I11
sV\u5e38\u7528
p5755
I2
sV\u52df\u6350
p5756
I3
sV\u5011
p5757
I9
sV\u722d\u53d6
p5758
I2
sV\u4e0b\u5df4
p5759
I2
sV\u611b
p5760
I10
sV\u671f
p5761
I1
sV\u8cfc\u7269
p5762
I1
sV\u589e\u6dfb
p5763
I2
sV1
p5764
I36
sV\u7a60\u7e96
p5765
I1
sV\u9e79\u9165\u96de
p5766
I3
sV\u5357\u90fd
p5767
I1
sV\u5403\u918b
p5768
I1
sV\u51fa\u8eab
p5769
I2
sV\u591a\u529f\u80fd
p5770
I1
sV\u98a8\u4e2d
p5771
I1
sV\u4e00\u4e8c\u4e5d
p5772
I1
sV\u597d\u6bd4
p5773
I1
sV\u9152\u5e97
p5774
I3
sV\u4f11\u8015
p5775
I4
sV\u56e0\u6545
p5776
I1
sV\u57ce\u5e02
p5777
I2
sV\u4e0d\u5c11
p5778
I10
sV\u534a\u6708
p5779
I1
sV\u7d71\u6cbb
p5780
I1
sV\u63a8\u7ffb
p5781
I2
sV\u4e0d\u5fc5
p5782
I1
sV\u5169\u5343\u842c
p5783
I1
sV\u4e0d\u5fd8
p5784
I1
sV\u8ac7\u8ad6
p5785
I1
sV\u9102\u5716\u66fc
p5786
I9
sV\u5c08\u6848
p5787
I1
sV\u6ce8\u76ee
p5788
I2
sV\u8fd9
p5789
I5
sVVogue
p5790
I2
sV\u53ef\u4fe1\u5ea6
p5791
I1
sV\u5ee3
p5792
I1
sV\u91ab\u5e2b
p5793
I24
sV\u4e0d\u5f97
p5794
I2
sV\u8c50\u6c9b
p5795
I1
sV\u6559\u80b2
p5796
I5
sV\u5f37\u51a0\u518d
p5797
I2
sV\u9664\u6b64\u4e4b\u5916
p5798
I1
sV\u6fc0\u76ea\u51fa
p5799
I1
sV\u96a8\u5373
p5800
I2
sV\u7236\u89aa
p5801
I16
sV\u63a1\u8a2a
p5802
I6
sV\u7e3d\u50f9
p5803
I2
sV\u7f8e
p5804
I3
sV\u6d6a\u6f2b
p5805
I2
sV\u5e73\u5747\u70ba
p5806
I1
sV\u56db\u6d77
p5807
I1
sV\u731c\u60f3
p5808
I1
sV\u6642\u4ee3
p5809
I11
sV\u6551\u661f
p5810
I1
sV\u89c2
p5811
I7
sV\u56ca\u5916
p5812
I1
sV\u9673\u5950
p5813
I2
sV\u8056\u6bcd\u9662
p5814
I1
sV\u62ec\u7d04\u808c
p5815
I2
sV\u4e0d\u5f37
p5816
I1
sV\u71df\u990a
p5817
I1
sV\u8857
p5818
I2
sV\u6e05\u6d17
p5819
I2
sV\u8ac7\u8a71
p5820
I1
sV\u76f8\u5c0d
p5821
I1
sV\u9280\u7d72
p5822
I1
sV\u9ede\u85e5
p5823
I1
sV1000
p5824
I2
sV\u7a2e\u4e0b
p5825
I1
sV\u7e3d\u5171
p5826
I1
sV\u53ea\u5f85
p5827
I1
sV\u4e0d\u50c5\u50c5
p5828
I5
sV\u8cea\u611f
p5829
I1
sV\u7ca5
p5830
I1
sV\u5728
p5831
I259
sV\u5750\u4e0b\u4f86
p5832
I1
sV\u5fe0\u8c9e
p5833
I1
sV\u4e94\u9580
p5834
I2
sV\u5bd2\u51b7
p5835
I1
sV\u53ef\u5148
p5836
I2
sV\u6dcb\u4e0a
p5837
I1
sV\u4e16\u9593
p5838
I2
sV\u6bd4\u7528
p5839
I1
sV\u6280\u6cd5
p5840
I2
sV\u5df2\u5c6c
p5841
I1
sV\u9ce5
p5842
I1
sV\u5230\u51fa
p5843
I1
sV\u95b1\u89bd
p5844
I3
sV\u5c08\u696d
p5845
I12
sVM19
p5846
I1
sV\u517c
p5847
I2
sV\u8f03
p5848
I12
sV\u8336\u5ba4
p5849
I2
sV\u597d\u6574
p5850
I1
sV\u9738\u6c23
p5851
I1
sV\u5bf6\u81ea
p5852
I1
sV\u6388\u6b0a
p5853
I5
sV\u4f55\u7a2e
p5854
I1
sV\u201d
p5855
I2
sV\u819c
p5856
I1
sV\u5883\u5167
p5857
I1
sV\u9694\u5929
p5858
I2
sV\u70ba\u83ef\u8abc
p5859
I1
sV\u6cb9\u7136\u800c\u751f
p5860
I1
sV\u4e2d\u6587
p5861
I1
sV\u627e\u5230
p5862
I4
sV\u9069\u7576
p5863
I2
sV\u9ece
p5864
I1
sV\u958b\u6c34
p5865
I1
sV\u91cd\u5fc3
p5866
I1
sV\u8f5f\u70b8
p5867
I1
sV\u8077\u4f4d
p5868
I1
sV\u5750\u6a19
p5869
I1
sV\u4e2d\u65b7
p5870
I6
sV\u4f7f
p5871
I4
sV\u4e00\u81f4
p5872
I1
sV\u8d0f\u5f97
p5873
I3
sV\u63a5\u8457
p5874
I2
sV\u5149\u7167
p5875
I1
sV\u8d81
p5876
I1
sV\u4e2d\u6240
p5877
I1
sV\u8edf\u9ad4
p5878
I6
sV\u6210\u7e3e
p5879
I1
sV\u4e00\u9846\u9846
p5880
I1
sV\u98df\u54c1
p5881
I3
sV\u5f8c\u4f86
p5882
I6
sV\u9019\u65b9
p5883
I1
sV\u9130\u5bb6
p5884
I1
sV\u55ae\u55ae
p5885
I1
sV\u4f7f\u5f97
p5886
I4
sV\u5730\u65b9
p5887
I2
sV\u4f3a\u6700
p5888
I1
sV\u7db2\u53cb
p5889
I5
sV\u5e2b\u5085
p5890
I1
sV\u638c\u63e1
p5891
I3
sVH
p5892
I1
sV\u5916\u6577
p5893
I1
sV\u7121\u606f
p5894
I1
sV\u4e16\u754c\u5927\u6230
p5895
I2
sV\u8c61\u5fb5
p5896
I1
sV\u4e92\u656c
p5897
I1
sV\u6797\u4f5c
p5898
I1
sV\u754f\u5149
p5899
I1
sV\u4e0d\u5982
p5900
I1
sV\u65e9\u9910
p5901
I1
sV\u7528\u9910
p5902
I1
sV\u80a5\u80d6\u75c7
p5903
I1
sV\u57ae\u53f0
p5904
I1
sV\u53e3\u7891
p5905
I1
sV\u9080\u7d04
p5906
I2
sV\u8b1b\u8b1b
p5907
I1
sV\u5f31\u9ede
p5908
I1
sV\u9677\u9631
p5909
I2
sV\u4e0d\u597d
p5910
I2
sV\u722d\u56de
p5911
I1
sV\u5f71\u50cf
p5912
I1
sV\u7e3d\u7d93\u7406
p5913
I1
sV\u4ed6\u7db2
p5914
I1
sV\u55bb\u70ba
p5915
I1
sV\u60c5\u7db2
p5916
I2
sV\u9ede\u83dc
p5917
I1
sV\u5148\u751f
p5918
I17
sV\u5154\u662f
p5919
I2
sV\u4e0d\u5931
p5920
I1
sV\u98c4\u9999
p5921
I1
sV\u8001\u82b1\u773c\u93e1
p5922
I1
sV\u694a\u9580
p5923
I1
sV\u60c5\u7dd2
p5924
I4
sVMonte
p5925
I1
sV\u9577\u6642\u9593
p5926
I1
sV\u5169
p5927
I35
sV\u4e3b\u9ad4
p5928
I1
sV\u5fd7\u5728
p5929
I1
sV\u2571
p5930
I1
sV\u9650\u5b9a\u7248
p5931
I3
sV\u8de8\u5340
p5932
I7
sV\u4e0b\u589c
p5933
I1
sV\u91cd\u5927
p5934
I6
sV\u5730\u4e2d\u6d77
p5935
I2
sV\u6545\u4e8b
p5936
I5
sV\uff0c
p5937
I2019
sV\u5b8f
p5938
I4
sVVOLVO
p5939
I2
sV60
p5940
I3
sV62
p5941
I1
sV65
p5942
I2
sV\u5a46\u5a46
p5943
I3
sV\u597d\u6f22
p5944
I2
sV69
p5945
I1
sV\u52dd\u904e
p5946
I1
sV\u5438\u7968\u6a5f
p5947
I1
sVTurbo
p5948
I21
sV\u53ef\u5728
p5949
I1
sV\u8aee\u8a62
p5950
I1
sV\u591a\u5e74\u4f86
p5951
I1
sV\u6176\u57ce
p5952
I2
sV\u6c89\u7a69
p5953
I1
sV\u5de5\u4f5c
p5954
I35
sV500
p5955
I2
sV1213
p5956
I1
sV\u5f8c\u4ee3
p5957
I1
sV\u6f02\u65cf
p5958
I1
sV\u7dad\u529b
p5959
I2
sV\u75db\u89ba
p5960
I1
sV\u56e0\u61c9
p5961
I1
sV\u878d\u5408
p5962
I1
sVCrossover
p5963
I1
sV\u7729\u5149
p5964
I1
sV\u7ae5\u661f
p5965
I2
sV\u8fa6\u7406
p5966
I1
sV\u4e0d\u589c
p5967
I1
sV\u66f4\u52a0
p5968
I5
sV\u628a
p5969
I15
sV\u5411
p5970
I11
sV\u7d93\u7d00\u4eba
p5971
I2
sV\u5831\u4ec7
p5972
I1
sVZucca
p5973
I1
sV\u905c\u738b
p5974
I3
sV\u516b\u6b21
p5975
I1
sV\u4ee5\u62c9
p5976
I1
sV\u65b0
p5977
I16
sV\u722d\u57f7
p5978
I1
sVJihad
p5979
I1
sV\u716e\u597d
p5980
I1
sV\u5f37
p5981
I1
sV\u6084\u7136
p5982
I1
sVLuxgen
p5983
I3
sV\u62dc\u8449
p5984
I2
sV\u6210\u7fd2
p5985
I1
sV\u51c6\u8a31
p5986
I1
sV\u8b1b\u8a71
p5987
I1
sV\u5ea6
p5988
I5
sV\u82e6\u74dc
p5989
I3
sV\u82f1\u5c6c
p5990
I1
sV\u5eb7\u67cf
p5991
I1
sV\u5cf6
p5992
I1
sV\u6bd4\u7387
p5993
I1
sV\u66f4\u5225
p5994
I2
sV\u5c71\u8def
p5995
I1
sV\u8f49\u6298
p5996
I2
sV\u4e0d\u5be7
p5997
I4
sV\u4e0d\u5be6
p5998
I2
sV\u52d5\u756b
p5999
I2
sV\u5408\u7406
p6000
I1
sV\u653b\u53d6
p6001
I2
sV\u8cd3\u62c9\u767b
p6002
I6
sV\u53cd\u800c
p6003
I4
sV\u8eab
p6004
I3
sV\u4e00\u842c
p6005
I2
sV\u80a5\u7682
p6006
I1
sV\u5931\u8e64
p6007
I2
sV\u7d10\u7d04
p6008
I4
sV\u89f8\u89d2
p6009
I1
sV\u96bb
p6010
I8
sV\u793a
p6011
I1
sV\u55bd
p6012
I1
sV\u89d2\u5ea6
p6013
I4
sV\u9054
p6014
I2
sV\u5f37\u8abf
p6015
I2
sV\u5c0d\u65bc
p6016
I32
sV\u73a9\u5bb6
p6017
I1
sV\u6df1\u85cf
p6018
I1
sV\u76ae\u8cea
p6019
I1
sV\u65e9\u671f
p6020
I3
sV\u67f4\u6cb9
p6021
I3
sV\u4e0d\u5b89
p6022
I2
sV\u4e0d\u5b88
p6023
I1
sV\u751a\u9ebc
p6024
I1
sV\u649e\u5230
p6025
I1
sV\u9023\u52dd
p6026
I12
sV\u4e0d\u5b9c
p6027
I1
sV\u7de8\u8f2f
p6028
I3
sV\u95d6\u4e86
p6029
I1
sV\u6458\u8981
p6030
I3
sV\u5929\u8863\u7121\u7e2b
p6031
I1
sV\u6e05\u695a
p6032
I5
sVInternational
p6033
I1
sV\u8178\u80c3
p6034
I1
sV\u6a21\u738b
p6035
I1
sV\u5341\u842c
p6036
I1
sV\u5141\u8a31
p6037
I1
sV\u73fe\u5be6\u9762
p6038
I1
sV\u4fbf\u4fbf
p6039
I1
sV\u4ec0
p6040
I1
sV\u6f22\u4e2d
p6041
I1
sV\u985e\u7d44
p6042
I1
sV_
p6043
I2
sVHTC
p6044
I1
sV\u674e\u632f\u85e9
p6045
I2
sV\u897f\u6b50
p6046
I1
sV\u5167\u6587
p6047
I1
sV\u6ce2\u52d5
p6048
I1
sV\u5c08\u6ce8
p6049
I2
sV\u5099\u597d
p6050
I1
sV\u5167\u6582
p6051
I1
sV\u767b
p6052
I2
sV\u4e0d\u5230
p6053
I4
sV\u7533\u5831\u4eba
p6054
I1
sV\u611f\u5b98
p6055
I1
sV\u8aa4\u89e3
p6056
I1
sV\u7834\u788e
p6057
I1
sV\u6bcf\u65e5
p6058
I6
sV\u6bd4\u7167
p6059
I1
sV\u5f37\u51a0\u5411
p6060
I2
sV\u821e
p6061
I2
sV\u5f20
p6062
I1
sV\u627e\u56de
p6063
I1
sV\u9215\u627f\u6fa4
p6064
I1
sV\u51fa\u8840
p6065
I1
sV\u91ab\u5b78
p6066
I2
sV\u9650\u91cf
p6067
I4
sV\u653e\u9b06
p6068
I1
sV\u53ef\u554f
p6069
I1
sV\u722d\u8b70\u6027
p6070
I2
sV\u8f49\u63db
p6071
I2
sV\u64fa\u812b
p6072
I1
sV\u8eab\u8ca0
p6073
I1
sV\u82f1\u4fc4
p6074
I1
sV\u75c7\u72c0
p6075
I13
sV\u77ed\u7dda
p6076
I1
sVmatch\u3011
p6077
I1
sV\u8f29\u5b50
p6078
I1
sV\u5b78
p6079
I1
sV\u987a
p6080
I1
sV\u7a7a\u9593
p6081
I7
sV\u4f86\u6e90
p6082
I4
sV\u822a\u7a7a
p6083
I2
sV\u8c9d\u6bd4
p6084
I1
sV\u5c0d
p6085
I57
sV\u8a55\u4f30
p6086
I3
sV\u611f
p6087
I1
sV\u4ea4\u754c
p6088
I1
sV\u592f\u516d\u5b57
p6089
I1
sV\u8c6a\u83ef\u578b
p6090
I1
sV\u5c0b\u91ab
p6091
I1
sV\u6c92\u80fd
p6092
I1
sV\u523a\u75db
p6093
I1
sV\u516c\u6295
p6094
I1
sV\u8d85\u97f3\u6ce2
p6095
I5
sV\u5fd7\u5411
p6096
I1
sV\u5eab\u7d0d\u723e
p6097
I1
sV\u65b9\u5f0f
p6098
I30
sV\u5269
p6099
I1
sV\u65b0\u7af9
p6100
I2
sV\u4e00\u8005
p6101
I2
sV\u8fd1\u96c6
p6102
I2
sV\u6c7d\u8eca
p6103
I2
sV\u878d\u5165
p6104
I1
sV\u903c\u4e0d\u5f97\u5df2
p6105
I1
sV\u5fc3\u5883
p6106
I2
sV\u804a\u8457
p6107
I4
sV\u5347\u7d1a
p6108
I3
sV\u51fa\u9762
p6109
I2
sV\u60c5\u611f
p6110
I2
sV\u6fd5\u6027
p6111
I2
sV\u60c5\u612b
p6112
I1
sV\u514d\u75ab\u7cfb\u7d71
p6113
I2
sV\u9700\u7528
p6114
I1
sV\u9b6f\u83bd
p6115
I1
sV\u8b92\u8a00
p6116
I1
sV\u540d\u83dc
p6117
I1
sV\u6212\u6389
p6118
I1
sV\u6d3e
p6119
I1
sV\u5168\u7a31
p6120
I1
sV\u73fe\u5834
p6121
I7
sV\u653b\u64ca\u6027
p6122
I2
sV\u6b64
p6123
I15
sV\u77e5\u540d
p6124
I3
sV\u52d5\u975c
p6125
I1
sVE1
p6126
I1
sV\u83dc\u7cfb
p6127
I1
sV\u8fce\u4f86
p6128
I1
sV\u4eba\u5fc3
p6129
I1
sV\u5e74
p6130
I55
sV\u9664\u4f9d\u672c
p6131
I1
sV\u6ab8\u6aac
p6132
I1
sV\u66f8\u9662
p6133
I1
sV\u5229\u5bb3
p6134
I1
sV\u884c\u696d
p6135
I13
sV\u9ecf\u7a20
p6136
I1
sV\u6377\u904b\u7dda
p6137
I3
sV\u7528\u85e5
p6138
I2
sV\u7576\u6642
p6139
I3
sV\u4f55\u611b
p6140
I2
sV\u8fd1\u8996
p6141
I3
sV\u624b\u518a
p6142
I1
sV\u6fc0\u6230
p6143
I1
sV\u4e4b\u9593
p6144
I4
sV\u78b0
p6145
I1
sV\u5c0d\u7b56
p6146
I1
sV\u7576\u665a
p6147
I1
sV\u672c\u6240
p6148
I2
sV\u900f\u8996\u5b78
p6149
I1
sV\u795e\u8056
p6150
I1
sV\u4ed4
p6151
I2
sV\u5976\u7238
p6152
I1
sV\u8ac7\u904e
p6153
I1
sV\u9818\u5730
p6154
I1
sV\u4e0d\u81ea\u89ba
p6155
I1
sV\u6797\u53e3
p6156
I6
sV\u656c\u79ae
p6157
I3
sV1942
p6158
I2
sV\u5370\u5ea6
p6159
I11
sV\u88ab
p6160
I40
sV\u767c\u8d77
p6161
I2
sVStyle
p6162
I1
sV\u5f80\u4f86
p6163
I1
sV\u6377\u70ba
p6164
I1
sV\u5bb6\u5883
p6165
I1
sV\u5fc3\u59b9
p6166
I1
sV\u9ed1\u7d05
p6167
I1
sV\u7dca\u8feb
p6168
I1
sV\u6574\u9ad4
p6169
I1
sV\u9673\u5bae
p6170
I1
sV\u5f8c\u52e2
p6171
I1
sV\u7bc7
p6172
I1
sV\u589e\u751f
p6173
I1
sV\u524d\u63ed
p6174
I1
sV\u767e\u8ca8
p6175
I1
sV\u53d7
p6176
I6
sV\u4fae\u8fb1
p6177
I1
sV\u5e03\u6717
p6178
I1
sV\u5831\u5230
p6179
I1
sV\u83ef\u96c4
p6180
I3
sV\u9078\u8a02
p6181
I1
sV\u6458\u9664
p6182
I1
sV\u524d\u63d0
p6183
I2
sV\u89e3\u6790
p6184
I1
sV\u56e0\u7d20
p6185
I6
sV\u50b7\u53e3
p6186
I6
sV\u5f35\u98db
p6187
I1
sV\u66f8\u9762
p6188
I2
sV\u4f0a\u6717
p6189
I1
sV\u805e\u8a0a
p6190
I1
sV\u5f8c\u5230
p6191
I1
sV\u8eab\u9ad4
p6192
I4
sV\u4e2d\u4e09\u81f3
p6193
I1
sV\u8eab\u9ad8
p6194
I2
sV\uff1f
p6195
I56
sV\u56de\u61b6
p6196
I1
sV\u7406\u7531
p6197
I2
sV\u539f\u6cb9
p6198
I1
sV\u4f86\u70ba
p6199
I1
sV\u6f22\u514b
p6200
I2
sV\u89aa\u53cb
p6201
I1
sV\u75c5\u83cc
p6202
I2
sV\u75be\u547c
p6203
I1
sV\u6240\u6709
p6204
I3
sV\u624d
p6205
I21
sV\u63ee\u63ee\u624b
p6206
I1
sV\u4e16\u754c\u53f2
p6207
I1
sV\u7f88\u7d46
p6208
I2
sV\u597d\u50cf
p6209
I7
sV\u5b8c\u6642
p6210
I1
sV\u7f8e\u8ecd
p6211
I1
sV\u77ed\u6377
p6212
I1
sV\u4fd7\u7a31
p6213
I2
sV\u7d81\u67b6
p6214
I1
sV\u8b77\u885b
p6215
I1
sV\u8207\u5b55
p6216
I1
sV\u98fd\u8db3\u611f
p6217
I1
sV\u6c14
p6218
I1
sV\u901f\u7387
p6219
I1
sV\u63a1
p6220
I1
sV\u7247\u5834
p6221
I2
sV\u4e8c\u6280
p6222
I1
sV\u6e3e\u5713
p6223
I1
sV\u5f35\u9b6f
p6224
I7
sV\u7a69\u91cd
p6225
I2
sV\u670d\u88dd
p6226
I1
sV\u8881\u885b\u6771
p6227
I1
sV\u63d0\u554f
p6228
I1
sV\u5145\u8db3
p6229
I2
sV\u7d93\u904e
p6230
I4
sV\u5e74\u4e4b\u4e45
p6231
I1
sV\u5805\u5b88
p6232
I1
sV\u52d5\u4f5c
p6233
I1
sV\u4eba\u5de5
p6234
I10
sV\u4e58\u5750
p6235
I1
sV\u5206\u6ccc
p6236
I3
sV\u8a71\u984c
p6237
I2
sV\u9ec3\u57d4
p6238
I2
sV\u651d\u5f71
p6239
I1
sV\u5206\u5d29\u96e2\u6790
p6240
I1
sV\u5370\u5c3c
p6241
I1
sV\u64da\u4e86\u89e3
p6242
I1
sVSport
p6243
I18
sV\u967d\u5149
p6244
I2
sV\u81a8\u8139
p6245
I1
sV\u7e3d\u52d5\u54e1
p6246
I1
sVSporty
p6247
I2
sV\u6d77\u5929
p6248
I1
sV\u6240\u6709\u6b0a
p6249
I1
sV\u9ebb\u85e5
p6250
I1
sV\u8a55\u5224
p6251
I1
sV\u5f9e
p6252
I35
sV\u81ea\u4f4f
p6253
I1
sV\u522b
p6254
I3
sV\u591a\u8667
p6255
I1
sV\u8b70\u54e1
p6256
I1
sV\u737b\u8a08
p6257
I1
sV\u4e94\u9cf3\u6a13
p6258
I1
sV\u59b9\u7f85\u5b0c
p6259
I1
sV\u9996\u898b
p6260
I1
sV\u5b8c\u6574
p6261
I2
sV\u89d2
p6262
I1
sV\u8001\u5bb6
p6263
I1
sV\u66fe\u7d93
p6264
I4
sV\u51fa\u9580
p6265
I4
sV\u5409\u5229
p6266
I1
sV\u9762\u5b50
p6267
I2
sV\u5361\u901a
p6268
I2
sV\u7cb5\u83dc
p6269
I2
sV\u3002
p6270
I630
sV\uff08
p6271
I71
sV\u9b6f\u8085
p6272
I1
sV\u8da8\u7de9
p6273
I1
sV\u9084\u5f97
p6274
I2
sV\u4ee5\u7c73
p6275
I1
sV\u5b58\u5728
p6276
I3
sV"
p6277
I31
sVModels
p6278
I1
sV\u7126\u9ede
p6279
I4
sV\u6b78
p6280
I1
sV\u5e8a\u982d
p6281
I1
sV\u7d42\u5c01
p6282
I1
sV\u674e\u5b89
p6283
I1
sV\u5c4a
p6284
I1
sV\u4fbf\u5229
p6285
I1
sV\u554f\u4e16
p6286
I1
sV\u96d9
p6287
I4
sV\u7121\u795e\u8ad6
p6288
I1
sV\u81ea\u9858
p6289
I1
sV\u524d\u61c9
p6290
I1
sV\u9451\u8cde
p6291
I1
sV\u6210\u4ea4\u91cf
p6292
I1
sV\u6a94\u6848\u5eab
p6293
I3
sV\u8ca1\u52d9
p6294
I9
sV\u570b\u5747\u4e88
p6295
I1
sV\u68b5\u514b\u96c5
p6296
I1
sV\u570b\u969b\u5316
p6297
I1
sV\u63d0\u540d
p6298
I2
sVOliver
p6299
I2
sV\u8ca1\u5229
p6300
I1
sV\u98a8\u5473
p6301
I1
sV\u79fb\u8abf
p6302
I1
sV\u53f8\u9664
p6303
I1
sV\u5341\u9918
p6304
I1
sV\u73fe\u5be6
p6305
I2
sV\u516c\u5e03
p6306
I1
sV\u7336\u592a\u4eba
p6307
I2
sV\u6723
p6308
I1
sV\u523b\u82e6\u8010\u52de
p6309
I1
sV\u76f4\u7011\u5f0f
p6310
I1
sV\u5f88\u5f37
p6311
I1
sV\u7279\u5b9a
p6312
I2
sV\u4e4b\u969b
p6313
I3
sV\u8d70\u5f97
p6314
I1
sV\u95dc\u9375\u6027
p6315
I1
sV\u53d7\u640d
p6316
I1
sV\u5e33\u5916
p6317
I1
sV77
p6318
I1
sV75
p6319
I1
sV\u5468\u65ed\u6069
p6320
I1
sV70
p6321
I2
sV79
p6322
I2
sVXC90
p6323
I3
sV\u65f1\u707d
p6324
I1
sV\u6c88\u6069
p6325
I1
sV\u4e2d\u7db2
p6326
I36
sV\u5176\u9918
p6327
I3
sVLoWen
p6328
I1
sV\u98a8\u96f2\u4eba\u7269
p6329
I2
sV\u773c\u85e5\u6c34
p6330
I1
sV\u5149\u6e90
p6331
I2
sV\u65cf\u7fa4
p6332
I5
sV\u622a\u81f3
p6333
I2
sV\u8857\u9053
p6334
I2
sV\u4eba\u5bb6
p6335
I1
sV\u767c\u8868
p6336
I13
sV\u7a7a\u8ecd
p6337
I1
sV\u9069\u61c9
p6338
I3
sV\u6c61\u67d3
p6339
I2
sV\u5ac1\u9032
p6340
I1
sV\u63d0\u5347
p6341
I2
sV\u6536
p6342
I1
sV\u767c\u884c
p6343
I4
sV\u8655\u5883
p6344
I1
sV\u592e\u884c
p6345
I1
sV\u5b78\u6821
p6346
I3
sV\u4ee5\u5c0f
p6347
I1
sV\u96fb\u5b50\u5831
p6348
I3
sV\u9020\u5c31
p6349
I1
sV\u7f8e\u8b7d
p6350
I1
sV\u6b0a\u76ca
p6351
I4
sV\u6642\u5019
p6352
I20
sV\u5e55\u50da
p6353
I2
sV\u5c0d\u7f8e
p6354
I1
sV\u77ed
p6355
I1
sV\u5f97\u7f6a
p6356
I2
sV\u60c5\u6575
p6357
I1
sV\u4e00\u7968
p6358
I1
sV\u2014
p6359
I1
sV\u5305
p6360
I5
sV\u90e8\u843d
p6361
I14
sV\u552e\u50f9
p6362
I3
sV\u4f4d\u5728
p6363
I1
sV\u5e9c\u8859
p6364
I1
sV\u6d3b\u5152
p6365
I1
sV\u9023\u8cab\u6027
p6366
I1
sV\u5229\u5f97
p6367
I1
sV\u6c23\u6c1b
p6368
I1
sV\u5c16\u5c71
p6369
I1
sV\u6230\u548c
p6370
I1
sV\u4ed6\u65b9
p6371
I2
sV\u676d\u5ef7\u9813
p6372
I2
sV\u6210\u66f8
p6373
I1
sV\u672a\u5230
p6374
I1
sV\u7acb\u5373
p6375
I2
sV\u570b\u5bb6
p6376
I12
sV\u4e00\u9ede
p6377
I3
sV\u5f9e\u4f86
p6378
I1
sV\u76ae\u819a\u79d1
p6379
I2
sV\u8a08\u50f9
p6380
I2
sV\u4e26\u4e14
p6381
I2
sV\u53ef\u4ee5
p6382
I28
sV\u84cb\u5152
p6383
I2
sV\u8001\u7238
p6384
I4
sV\u8001\u723a
p6385
I3
sV\u4f4e\u6a94
p6386
I1
sV\u963f\u514b\u5df4
p6387
I1
sV\u9580\u9580
p6388
I1
sV\u4e16\u5bb6
p6389
I1
sV\u6642\u5148
p6390
I1
sV\u6389\u6dda
p6391
I1
sV\u5230\u4f86
p6392
I1
sV\u597d\u7720
p6393
I2
sV\u4fdd\u8b49
p6394
I7
sV\u5e1d\u570b
p6395
I10
sV\u5831\u540d\u8cbb
p6396
I6
sV\u6c23\u6d88
p6397
I1
sV\u8c26
p6398
I1
sV\u50b3\u4f86
p6399
I1
sV\u5065\u4fdd
p6400
I1
sV\u865f
p6401
I1
sV\u5f88
p6402
I55
sV\u7121\u7919
p6403
I1
sV\u9053\u7406
p6404
I2
sV\u7e73\u4ea4
p6405
I2
sV\u300aGQ\u300b
p6406
I1
sV\u5fa9\u6d3b\u7bc0
p6407
I22
sV\u5c46
p6408
I2
sV\u641c\u5c0b
p6409
I5
sV\u4e0d\u5f97\u4e0d
p6410
I1
sV\u7f3a\u4e4f
p6411
I2
sV\u82e5
p6412
I23
sV\u5f8c\u56ca
p6413
I1
sV\u516b\u5341\u842c
p6414
I1
sV\u5f9e\u4e2d
p6415
I1
sV\u60f9
p6416
I1
sV\u827a
p6417
I1
sV\u5f88\u591a
p6418
I12
sV\u6e67\u73fe
p6419
I1
sV\u672c\u6708
p6420
I1
sV\u53ef\u4f9b
p6421
I2
sV\u7acb\u523b
p6422
I3
sV\u77ed\u671f
p6423
I1
sV\u8e8a\u8e87
p6424
I1
sV\u6123
p6425
I2
sV\u7a46\u65af\u6797
p6426
I1
sV\u990a\u6d3b
p6427
I1
sV\u9762\u5c0d
p6428
I10
sV\u5b63\u7bc0
p6429
I1
sV\u7bc0\u76ee
p6430
I2
sV\u5b8c\u6210
p6431
I5
sV9
p6432
I18
sV\u7ad9\u53f0
p6433
I1
sV\u524d\u671f
p6434
I1
sV\u96b1\u79c1\u6b0a
p6435
I2
sV\u53ea\u80fd
p6436
I8
sVCox
p6437
I1
sV\u80ce
p6438
I2
sV\u5f9e\u4e8b
p6439
I1
sV\u7591\u7fa9
p6440
I1
sV\u5c08\u5229\u6b0a
p6441
I2
sV\u7121\u79c1
p6442
I1
sV\u76ae\u9769
p6443
I1
sV\u5f88\u597d
p6444
I4
sV\u756b
p6445
I1
sV\u6e05\u723d
p6446
I1
sV\u5e36\u52d5
p6447
I1
sV\u5fc5\u51fa
p6448
I1
sV\u6240\u61c9\u8ca0
p6449
I1
sV\u6700\u80fd
p6450
I1
sV\u6c23\u6eab
p6451
I1
sV\u6216\u8cc7
p6452
I1
sV\u73fe\u5e74
p6453
I1
sV\u4fdd\u885b
p6454
I1
sV\u4f86\u770b
p6455
I2
sV\u5fc3\u5e95
p6456
I1
sV\u843d\u5e55
p6457
I5
sV\u63a5\u8e35\u800c\u81f3
p6458
I1
sV\u6676\u79d1
p6459
I9
sV\u96d9\u80de\u80ce
p6460
I4
sV\u963f\u91cc
p6461
I1
sV\u89e3\u60d1
p6462
I1
sV\u570b\u5927
p6463
I1
sV\u5abd\u5abd
p6464
I1
sV\u99f1\u99dd
p6465
I1
sV\u73b0\u5728\u7adf\u51fa\u73b0\u8fd9\u4e48
p6466
I1
sV\u5ef6\u4f38
p6467
I3
sV\u7d20\u990a
p6468
I1
sV\u5ef6\u9072
p6469
I1
sV\u570b\u5916
p6470
I3
sV\u767c\u8a00
p6471
I2
sV\u88fd\u4f5c\u51fa
p6472
I1
sV\u6587\u8aaa
p6473
I1
sV\u8a0e\u8ad6
p6474
I5
sV\u6642\u523b
p6475
I4
sV\u834a\u5dde
p6476
I1
sV\u63d0\u51fa
p6477
I9
sV\u4f11
p6478
I1
sV\u5b89\u80ce
p6479
I2
sV\u8a08\u5283
p6480
I4
sV\u793e\u4ea4
p6481
I2
sV\u5b9e
p6482
I7
sV\u9762\u5c0d\u9762
p6483
I1
sV\u820a\u60c5\u7dbf\u7dbf
p6484
I1
sV\u69cb\u6210
p6485
I1
sV\u9935
p6486
I1
sV\u5ba3\u8a93
p6487
I1
sV\u5a66\u5973
p6488
I1
sV\u96d9\u548c
p6489
I1
sV\u9670\u5e73
p6490
I1
sV\u7b49
p6491
I57
sV\u9ad4\u80b2\u7d44
p6492
I1
sV\u5408\u6cd5
p6493
I1
sV\u5fc5\u52dd
p6494
I1
sV\u985b\u8986
p6495
I3
sV\u63a8\u6e2c
p6496
I2
sV\u623f\u7522
p6497
I1
sV\u8077\u5247
p6498
I1
sV\u8981\u8ca0
p6499
I1
sV\u65e2
p6500
I2
sV\u5438\u8840
p6501
I1
sV\u5f39
p6502
I2
sV\u53ee
p6503
I1
sV\u8a87\u5927
p6504
I1
sV\u5df2
p6505
I29
sV\u6355\u6349
p6506
I1
sV\u98db\u884c\u54e1
p6507
I1
sV\u6feb\u89f4
p6508
I1
sV\u687f
p6509
I1
sV\u672c\u6587
p6510
I1
sV\u50b3\u905e
p6511
I1
sV\u9a5a\u559c
p6512
I5
sV\u7269\u8cea
p6513
I1
sV\u7d71\u8a08
p6514
I3
sV\u5bb6\u4eba
p6515
I5
sV\u5b78\u6b77
p6516
I2
sV\u6cbb\u7652
p6517
I3
sV\u56b4\u683c
p6518
I6
sVSALM
p6519
I1
sV\u6d3b\u52d5
p6520
I9
sV\u81f4\u529b\u65bc
p6521
I1
sV\u6cbb\u7642
p6522
I18
sV\u968e\u7d1a
p6523
I2
sVEASY
p6524
I1
sV\u5dee\u7570
p6525
I3
sV\u6bcd\u611b
p6526
I1
sV\u5074\u7761
p6527
I2
sV\u838e\u746a
p6528
I1
sV\u4eba\u58eb
p6529
I3
sV\u8cc7\u6599\u5eab
p6530
I2
sV\u8001\u4e8c
p6531
I2
sV\u5973\u53cb
p6532
I1
sV\u6574\u500b
p6533
I3
sV\u50b3\u9001
p6534
I4
sV\u5831\u540d
p6535
I8
sV114
p6536
I1
sV\u6d3b\u529b
p6537
I1
sV\u7167\u5c04
p6538
I1
sV\u6210\u6548
p6539
I1
sV\u7f8e\u8853
p6540
I3
sV\u4e88\u4ee5
p6541
I2
sV\u55ae\u4e00
p6542
I1
sV\u5168\u65b0
p6543
I3
sV\u98db\u6a5f
p6544
I1
sV\u5bb6\u4e2d
p6545
I1
sV\u6c92
p6546
I3
sV\u5e02\u6c11
p6547
I2
sV\uff1b
p6548
I52
sV\u7687\u5e1d
p6549
I1
sV\u4ea6
p6550
I10
sV\u8ba8
p6551
I2
sV\u5927\u9d6c\u7063
p6552
I1
sV\u7d93\u9a57
p6553
I3
sV\u6f3e\u958b
p6554
I2
sV\u6311\u6230
p6555
I1
sV\u610f\u7fa9
p6556
I2
sV\u5e74\u8f15\u4eba
p6557
I9
sV\u4e0d\u898b\u5f97
p6558
I1
sV\u7a46\u7f55\u9ed8\u5fb7
p6559
I1
sV\u61a4\u800c
p6560
I1
sV\u793e\u4fdd
p6561
I1
sV\u8ac7\u6200\u611b
p6562
I2
sV\u843d\u5f8c
p6563
I2
sV\u4f55\u6642
p6564
I1
sVProrsum
p6565
I1
sV\u65e9\u8d77
p6566
I1
sV\u6b78\u5c6c\u611f
p6567
I1
sV\u4efb\u6027
p6568
I1
sV\u75c5\u9b54
p6569
I1
sV\u8207\u5176
p6570
I1
sV\u6297\u8001
p6571
I3
sV\u653e
p6572
I1
sV\u5546\u6a19
p6573
I1
sV\u985e\u6bd4
p6574
I1
sV\u5bb3\u6015
p6575
I2
sV\u73e0\u5bf6
p6576
I2
sV\u6642\u5c1a
p6577
I1
sV\u90fd\u6703\u5340
p6578
I1
sV\u6a19\u793a\u70ba
p6579
I2
sV\u8a3a\u6240
p6580
I2
sV\u5674
p6581
I1
sV\u7bc0\u7bc0
p6582
I2
sV\u552f\u8001\u81e3
p6583
I1
sV\u9678\u8def
p6584
I1
sV\u4eab\u53d7
p6585
I1
sV\u540d\u8b7d
p6586
I3
sV\u5973\u5c07
p6587
I1
sV\u8cc7\u8a0a
p6588
I21
sV\u81a0\u8457
p6589
I1
sV\u7d05\u8272
p6590
I3
sV\u6c23\u606f
p6591
I3
sV\u5df2\u7d93
p6592
I18
sV\u7570\u6559\u5f92
p6593
I1
sV\u8a0e\u8463
p6594
I1
sV\u9818\u929c
p6595
I1
sV\u8a8d\u70ba
p6596
I11
sV\u8072\u7a31
p6597
I1
sV\u611b\u617e
p6598
I3
sV\u5dee
p6599
I3
sV\u6d88\u606f\u4eba\u58eb
p6600
I1
sV\u5206\u6790
p6601
I3
sV\u591a\u5df4\u80fa
p6602
I2
sV\u8a8d
p6603
I1
sV\u6c23\u61a4
p6604
I1
sV\u986b\u6296
p6605
I1
sV\u6db5\u84cb
p6606
I3
sV\u57f7\u653f
p6607
I1
sV\u6f6e\u6fd5
p6608
I1
sV\u982d\u8166
p6609
I1
sV&
p6610
I5
sV\u5403\u5f97\u5230
p6611
I1
sV\u7232
p6612
I4
sV\u672a\u5fc5
p6613
I1
sV\u4efb\u610f
p6614
I2
sV\u69cb
p6615
I2
sV\u611b\u60c5
p6616
I6
sV\u6b63\u9762
p6617
I4
sV\u88dc\u4ef6
p6618
I1
sV\u9078\u8209
p6619
I3
sV\u7121\u754f
p6620
I1
sV\u547d\u904b
p6621
I2
sV\u672c\u6b04
p6622
I1
sV\u82e6\u60b6
p6623
I1
sV\u75c5\u8b8a
p6624
I7
sV\u5b9a\u4e0b\u4f86
p6625
I1
sV\u5927\u597d\u6642\u6a5f
p6626
I1
sV\u5206\u4e0d\u6e05
p6627
I1
sV\u805a\u9910
p6628
I1
sV\u771f
p6629
I1
sV\u985e\u56fa\u9187
p6630
I3
sV\u592b
p6631
I1
sV\u9031
p6632
I5
sV\u6d2a\u6d41
p6633
I1
sV\u7ce7\u8349
p6634
I2
sV\u96f6\u98df
p6635
I1
sV\u7761\u7720
p6636
I33
sV\u57ce\u4e2d
p6637
I1
sV\u542b\u6709
p6638
I1
sV\u74b0\u7bc0
p6639
I1
sV\u9662\u9577
p6640
I6
sV\u767e\u842c
p6641
I1
sV\u76f8\u4f3c
p6642
I3
sV\u53cd\u97ff
p6643
I1
sV\u5c3e\u76e4
p6644
I1
sV\u4e0b\u7a31\u672c
p6645
I1
sV\u59cb\u7d42
p6646
I3
sV\u57ce\u4e0b
p6647
I1
sV\u504f\u5fc3
p6648
I1
sV\u7121\u75db
p6649
I1
sV\u5ba2\u5c64
p6650
I6
sV\u9858\u610f
p6651
I3
sV\u6025\u6027
p6652
I4
sV\u7279\u5225
p6653
I11
sV\u50b3\u9054\u7d66
p6654
I1
sV\u5fc3\u529b
p6655
I1
sV\u6210
p6656
I8
sV\u4e00\u9014
p6657
I1
sV\u5b69\u7ae5
p6658
I1
sV\u623f\u79df
p6659
I1
sV\u503c\u5f97
p6660
I6
sV\u9996\u8166
p6661
I1
sV\u5343\u842c
p6662
I1
sV\u539f\u672c
p6663
I14
sV\u6025\u6012
p6664
I1
sV\u60c5\u6b4c
p6665
I1
sV\u554a
p6666
I2
sV\u884c
p6667
I2
sV\u4f4e
p6668
I7
sVCao
p6669
I6
sV\u4e0d\u4fbf
p6670
I2
sV\u91dd
p6671
I2
sV\u4ee3
p6672
I1
sV\u907a\u50b3\u6027
p6673
I1
sV\u76ae\u98fe
p6674
I2
sV\u8fad\u53bb
p6675
I1
sV\u5c0d\u7167
p6676
I1
sV\u6253\u62b1\u4e0d\u5e73
p6677
I2
sV\u5fb7\u570b
p6678
I5
sV\u5f8c\u5929
p6679
I1
sV\u89e3\u6c7a
p6680
I5
sV88
p6681
I1
sV\u4e0d\u4f73
p6682
I8
sV83
p6683
I1
sV80
p6684
I2
sV84
p6685
I1
sV\u4e0d\u4f46
p6686
I3
sV\u6027
p6687
I4
sV\u6c34\u7bb1\u7f69
p6688
I1
sVAniston
p6689
I1
sV\u6c92\u60f3\u904e
p6690
I1
sV\u6216\u8005
p6691
I2
sV\u5283\u5206
p6692
I5
sV\u5982\u4eca
p6693
I4
sV\u582a\u7a31
p6694
I1
sV\u6700\u8fd1
p6695
I5
sV\u5730\u7344
p6696
I1
sV\u4f01\u5716
p6697
I1
sV\u5806\u7a4d
p6698
I1
sV\u4eba\u554f
p6699
I1
sV\u65a7
p6700
I1
sV8L
p6701
I2
sV\u8001\u82b1\u773c
p6702
I2
sV\u4e00\u90e8
p6703
I5
sV\u8ffd\u6c42
p6704
I2
sV\u66f9\u9054
p6705
I2
sV\u7d04
p6706
I11
sV\u842c\u4e8b
p6707
I1
sV\u99b4\u670d
p6708
I1
sV\u7a2e
p6709
I43
sV\u78ba\u8a8d
p6710
I2
sV\u8e0f\u904d
p6711
I1
sV\u6563\u4f48
p6712
I1
sV\u4e0d\u4ec1
p6713
I1
sV\u5c16\u53eb
p6714
I1
sV\u8db3\u6d74
p6715
I1
sV1500
p6716
I2
sV\u795e\u5947
p6717
I1
sV\u842c\u4eba
p6718
I1
sV\u5546\u696d
p6719
I2
sV\u663e
p6720
I3
sV\u6f22\u5ba4
p6721
I1
sV\u8981\u8105
p6722
I1
sV\u4e00\u5e74\u591a
p6723
I2
sV\u544a
p6724
I1
sV\u4eba\u54e1
p6725
I7
sV\u5982\u4f55
p6726
I14
sV\u7565\u70ba
p6727
I1
sV\u852c\u83dc
p6728
I3
sV\u5c0e\u81f4
p6729
I7
sV\u5b57\u6a23
p6730
I1
sV\u9078\u8003
p6731
I1
sV\u4e8c\u6c27\u5316\u78b3
p6732
I2
sV\u51fa\u516c\u5dee
p6733
I1
sV\u4e0d\u4e88
p6734
I1
sVEdition
p6735
I3
sV\u63a8\u6389
p6736
I2
sV\u5373\u6642\u6027
p6737
I2
sV\u4e0d\u5c0f
p6738
I1
sV\u8cc7\u6599\u5ba4
p6739
I1
sV\u842c\u4e00
p6740
I1
sV\u516c\u76ca
p6741
I3
sV\u751f
p6742
I2
sV\u4e0d\u4e45
p6743
I2
sV\u81f4\u4f7f
p6744
I1
sV\u5e38\u6703
p6745
I3
sV\u982d
p6746
I2
sV\u653f\u5e9c\u8ecd
p6747
I1
sV\u73b0
p6748
I6
sV\u5733
p6749
I2
sV\u4e0d\u4e56
p6750
I3
sV=
p6751
I2
sV\u516c\u7684
p6752
I1
sV\u8eab\u908a
p6753
I1
sV\u5c08\u79d1
p6754
I1
sV\u5275\u7acb
p6755
I2
sV\u651d\u53d6\u91cf
p6756
I3
sV\u61f8\u540a
p6757
I1
sV\u73fe\u5728
p6758
I12
sV\u4e0b\u4f86
p6759
I2
sV\u7a31\u4e4b\u70ba
p6760
I1
sV\u907f\u514d
p6761
I9
sV\u5f4e\u9593
p6762
I1
sV\u5f7c\u4e4b\u9577
p6763
I1
sV\u5e25\u6c23
p6764
I1
sV\u9858\u671b
p6765
I1
sV\u56e0\u70ba
p6766
I30
sV\u63a8\u64e0
p6767
I1
sV\u8f49\u70ba
p6768
I1
sV\u5c0f\u7d44
p6769
I2
sV\u8abf\u5473\u6599
p6770
I1
sV\u53f8\u99ac
p6771
I2
sV\u5546
p6772
I1
sV\u534a
p6773
I7
sV\u90e8\u8cf4
p6774
I1
sV\u4eba\u53e3
p6775
I6
sV\u767c\u8868\u6703
p6776
I2
sV\u8eca\u578b
p6777
I2
sV\u62d2\u99ac
p6778
I1
sV\u64ec\u5b9a
p6779
I1
sV\u984f\u8272
p6780
I2
sV\u8be5
p6781
I5
sV\u5148\u65bd
p6782
I1
sV\u4e00\u9ad4\u5316
p6783
I1
sV\u8857\u982d
p6784
I1
sV\u5967\u65af\u5361
p6785
I2
sV\u767d\u5167\u969c
p6786
I26
sV\u5973\u58eb
p6787
I1
sV\u6642\u5831
p6788
I2
sV\u5167\u7701
p6789
I1
sV\u4e09\u4e94\u597d\u53cb
p6790
I1
sV\u5206\u6210
p6791
I1
sV\u5b6b\u5805
p6792
I2
sV\u5922\u60f3
p6793
I11
sV\u5de5\u5ee0
p6794
I2
sV\u9762\u9762\u89c0
p6795
I1
sV\u61f6\u60f0
p6796
I1
sV\u8cbb\u5de5
p6797
I1
sV\u5b9a
p6798
I1
sV\u7cd6\u679c
p6799
I9
sV\u8a00\u8ac7
p6800
I1
sV\u8ca0
p6801
I3
sV\u8eca\u7e2b\u7dda
p6802
I2
sV\u54ea\u4e9b
p6803
I2
sV\u6b50\u5143
p6804
I1
sV\u5176\u9593
p6805
I1
sV\u98a8\u5149\u660e\u5a9a
p6806
I1
sV\u53ea\u8981
p6807
I9
sV\u767c\u80b2
p6808
I1
sV\u5730\u76e4
p6809
I1
sV\u5f35\u9f8d\u6839
p6810
I2
sV\u4f11\u606f
p6811
I2
sV\u884c\u653f
p6812
I1
sV\u5c11\u898b
p6813
I1
sV\u9b3c\u6df7
p6814
I1
sV\u5f97\u77e5
p6815
I1
sV\u500d\u589e
p6816
I1
sV\u6027\u5b50
p6817
I1
sV\u8eca\u5728
p6818
I1
sV\u4ea4\u6613
p6819
I6
sV\u627f
p6820
I1
sV\u8868\u73fe\u51fa
p6821
I1
sV\u6d41\u6c57
p6822
I1
sV\u54c8\u514b
p6823
I1
sV\u671f\u5f85
p6824
I4
sVCD8
p6825
I1
sV\u5171\u540c
p6826
I1
sV\u6ca1
p6827
I6
sV\u57f7\u610f
p6828
I1
sV\u6c7a\u7b56\u8005
p6829
I2
sV\u53ca\u81f3
p6830
I1
sV\u7de8\u5287
p6831
I2
sV\u9ad4\u614b
p6832
I1
sV\u52c7\u95d6
p6833
I1
sV\u78ba\u5b9a
p6834
I6
sV\u4f0a\u6bd4
p6835
I8
sV\u6bcf
p6836
I24
sV\u56fa\u5b9a\u4f4f
p6837
I1
sV\u9858\u666f
p6838
I1
sV\u8207\u5426
p6839
I1
sV\u61f7\u5b55
p6840
I25
sV~
p6841
I5
sV\u5c01
p6842
I1
sV\u7acb\u5834
p6843
I2
sV\u4e0d
p6844
I118
sV\u53f0\u7248
p6845
I1
sV\u8ba4
p6846
I1
sV\u8d70\u51fa
p6847
I1
sV\u5361\u9f4a
p6848
I2
sV\u559c
p6849
I3
sV\u6ce8\u610f
p6850
I9
sV\u6e90\u982d
p6851
I1
sV\u60c5\u6cc1
p6852
I12
sV\u627f\u8972
p6853
I2
sV\u6e2c\u9a57
p6854
I7
sV\u5e38\u614b
p6855
I2
sVART
p6856
I1
sV\u8a62\u554f
p6857
I1
sV\u4f0a\u6bd4\u5229\u534a\u5cf6
p6858
I1
sV\u570b\u5167
p6859
I3
sV\u4e8b
p6860
I11
sV\u89aa\u5c6c
p6861
I3
sV\u8352\u8b2c
p6862
I1
sV\u9910\u9928
p6863
I1
sV\u53ef\u9054
p6864
I1
sV\u61f2\u7f70
p6865
I1
sV1959
p6866
I1
sV\u627f\u8a8d
p6867
I2
sV\u8cb7
p6868
I4
sV\u512a\u96c5
p6869
I3
sV\u5f4e\u9053
p6870
I1
sV\u627f\u8afe
p6871
I1
sV\u5f15\u4eba
p6872
I1
sV\u62d3
p6873
I1
sV\u596e\u529b
p6874
I2
sVT
p6875
I1
sV\u56db
p6876
I10
sV\u8f15\u5ea6
p6877
I1
sV\u9ad8\u7cd6
p6878
I1
sV2498
p6879
I1
sV\u6a23\u54c1
p6880
I2
sV\u5c6c
p6881
I6
sV\u65bc
p6882
I19
sV\u99ac\u6876
p6883
I4
sV\u6563\u5e03
p6884
I4
sV\u6574\u5929
p6885
I1
sV\u674e\u4fe1\u8b19
p6886
I11
sV\u9694\u58c1
p6887
I1
sV\u8a55\u8ad6
p6888
I1
sV\u690d\u7269
p6889
I1
sV\u4e00\u5e2d\u4e4b\u5730
p6890
I1
sV\u5a1b\u6a02
p6891
I1
sV\u8b49\u660e
p6892
I2
sV\u60f3\u50cf\u529b
p6893
I1
sVJonathan
p6894
I2
sV\u760b\u72c2
p6895
I1
sV\u6a23
p6896
I1
sV\u9032\u4e00\u6b65
p6897
I3
sV\u5e2b
p6898
I1
sV\u8d70\u52e2
p6899
I1
sV\u6211\u4e00\u5929
p6900
I1
sV\u63d0\u59c6
p6901
I1
sV\u534a\u65e5
p6902
I1
sV\u7d44\u5408
p6903
I1
sV\u6676\u7131
p6904
I1
sV\u53ad\u60e1
p6905
I1
sV\u5c0f\u7f8a
p6906
I1
sV\u85cd\u8ecd
p6907
I2
sV\u5167\u759a
p6908
I1
sV\u8af8
p6909
I9
sV\u69ae\u7372
p6910
I1
sVReally
p6911
I1
sV\u8f15\u5ffd
p6912
I1
sV\u5b83
p6913
I2
sV\u5be6\u529b\u6d3e
p6914
I1
sV\u300a
p6915
I32
sV\u7279\u7d04
p6916
I1
sV\u9084\u539f
p6917
I1
sV\u9000\u4f11
p6918
I2
sV\u6295\u7968
p6919
I4
sV\u97f3\u6a02
p6920
I4
sV\u8c22
p6921
I2
sV*
p6922
I1
sV\u5954\u8dd1
p6923
I1
sV\u6587\u83ef
p6924
I1
sV\u5f71\u5c55
p6925
I3
sV\u6bcd\u696d
p6926
I1
sV\u65b0\u6a5f
p6927
I1
sV\u8a2d\u8a08
p6928
I9
sV\u4fd0\u843d
p6929
I1
sV\u9812\u4ee4
p6930
I1
sV\u5c0f
p6931
I14
sV\u65b9\u4fbf
p6932
I1
sV\u5831\u5c0e
p6933
I8
sV\u53f0\u70ba
p6934
I1
sV\u6b64\u6642
p6935
I4
sV\u50b3\u958b\u4f86
p6936
I1
sV\u6c7a\u5b9a
p6937
I10
sV\u8a8d\u771f
p6938
I1
sV\u5f15\u4f86
p6939
I1
sV\u808c\u8010\u529b
p6940
I1
sV\u7686
p6941
I6
sV\u6f2b\u904a
p6942
I1
sV\u76f4\u9054
p6943
I3
sV\u9ad8\u7d1a
p6944
I1
sV\u4e00\u9593
p6945
I1
sV\u5fc5\u5b9a
p6946
I1
sV\u8a3a\u65b7
p6947
I1
sV\u654f\u92b3
p6948
I1
sV\u6708\u865f
p6949
I3
sV\u914d\u6a02
p6950
I1
sV\u9810\u5b9a
p6951
I2
sV\u53f0\u7063
p6952
I10
sV\u5e03\u840a\u723e
p6953
I1
sV\u4eba\u5011
p6954
I1
sV\u6559\u9577
p6955
I1
sV\u9910\u98f2
p6956
I1
sV\u5169\u6d3e
p6957
I1
sV\u53c8
p6958
I19
sV\u5973\u5b50
p6959
I1
sV\u4e92\u76f8
p6960
I1
sV\u8eca\u540d
p6961
I1
sVFuture
p6962
I1
sV\u767e\u822c
p6963
I1
sV\u4e00\u4e94\u4e8c\u4e5d\u5e74
p6964
I1
sV\u5f8c\u5c71
p6965
I1
sV\u9020\u578b
p6966
I3
sV\u5973\u5b69
p6967
I1
sV\u5148\u662f
p6968
I1
sV\u4ef6
p6969
I2
stp6970
Rp6971
(dp6972
S'_item_cache'
p6973
NsS'_max_cache'
p6974
NsS'_Nr_cache'
p6975
NsS'_N'
p6976
I27170
sb.